
websuit_MSS_MSS_CM3_0_app:     file format elf32-littlearm

Sections:
Idx Name          Size      VMA       LMA       File off  Algn
  0 .text         000071b8  20000000  20000000  00008000  2**4
                  CONTENTS, ALLOC, LOAD, READONLY, CODE
  1 .ARM.exidx    00000008  200071b8  200071b8  0000f1b8  2**2
                  CONTENTS, ALLOC, LOAD, READONLY, DATA
  2 .data         00000520  200071c0  200071c0  0000f1c0  2**2
                  CONTENTS, ALLOC, LOAD, DATA
  3 .bss          00000098  200076e0  200076e0  0000f6e0  2**2
                  ALLOC
  4 .stack        00003000  20007778  20007778  0000f6e0  2**0
                  ALLOC
  5 .comment      000000ac  00000000  00000000  0000f6e0  2**0
                  CONTENTS, READONLY
  6 .debug_aranges 000001e8  00000000  00000000  0000f78c  2**0
                  CONTENTS, READONLY, DEBUGGING
  7 .debug_pubnames 00000462  00000000  00000000  0000f974  2**0
                  CONTENTS, READONLY, DEBUGGING
  8 .debug_info   00003a55  00000000  00000000  0000fdd6  2**0
                  CONTENTS, READONLY, DEBUGGING
  9 .debug_abbrev 00000852  00000000  00000000  0001382b  2**0
                  CONTENTS, READONLY, DEBUGGING
 10 .debug_line   000011e2  00000000  00000000  0001407d  2**0
                  CONTENTS, READONLY, DEBUGGING
 11 .debug_frame  000010b4  00000000  00000000  00015260  2**2
                  CONTENTS, READONLY, DEBUGGING
 12 .debug_str    00001839  00000000  00000000  00016314  2**0
                  CONTENTS, READONLY, DEBUGGING
 13 .debug_loc    00000e00  00000000  00000000  00017b4d  2**0
                  CONTENTS, READONLY, DEBUGGING
 14 .debug_macinfo 0001ec56  00000000  00000000  0001894d  2**0
                  CONTENTS, READONLY, DEBUGGING
 15 .ARM.attributes 00000025  00000000  00000000  000375a3  2**0
                  CONTENTS, READONLY
 16 .debug_ranges 000001e0  00000000  00000000  000375c8  2**0
                  CONTENTS, READONLY, DEBUGGING

Disassembly of section .text:

20000000 <__text_start>:
20000000:	20010000 	.word	0x20010000
20000004:	20000299 	.word	0x20000299
20000008:	20000309 	.word	0x20000309
2000000c:	2000030b 	.word	0x2000030b
20000010:	2000030d 	.word	0x2000030d
20000014:	2000030f 	.word	0x2000030f
20000018:	20000311 	.word	0x20000311
	...
2000002c:	20000313 	.word	0x20000313
20000030:	20000315 	.word	0x20000315
20000034:	00000000 	.word	0x00000000
20000038:	20000317 	.word	0x20000317
2000003c:	20000319 	.word	0x20000319
20000040:	2000031b 	.word	0x2000031b
20000044:	2000031d 	.word	0x2000031d
20000048:	2000031f 	.word	0x2000031f
2000004c:	20000321 	.word	0x20000321
20000050:	20000323 	.word	0x20000323
20000054:	20000325 	.word	0x20000325
20000058:	20000327 	.word	0x20000327
2000005c:	20000329 	.word	0x20000329
20000060:	2000032b 	.word	0x2000032b
20000064:	2000032d 	.word	0x2000032d
20000068:	200008bd 	.word	0x200008bd
2000006c:	200008ed 	.word	0x200008ed
20000070:	20000333 	.word	0x20000333
20000074:	20000335 	.word	0x20000335
20000078:	20000337 	.word	0x20000337
2000007c:	20000339 	.word	0x20000339
20000080:	2000033b 	.word	0x2000033b
20000084:	2000033d 	.word	0x2000033d
20000088:	2000033f 	.word	0x2000033f
2000008c:	20000341 	.word	0x20000341
20000090:	20000343 	.word	0x20000343
20000094:	20000345 	.word	0x20000345
20000098:	20000347 	.word	0x20000347
2000009c:	20000349 	.word	0x20000349
200000a0:	2000034b 	.word	0x2000034b
	...
200000bc:	2000034d 	.word	0x2000034d
200000c0:	2000034f 	.word	0x2000034f
200000c4:	20000351 	.word	0x20000351
200000c8:	20000353 	.word	0x20000353
200000cc:	20000355 	.word	0x20000355
200000d0:	20000357 	.word	0x20000357
200000d4:	20000359 	.word	0x20000359
200000d8:	2000035b 	.word	0x2000035b
200000dc:	2000035d 	.word	0x2000035d
200000e0:	2000035f 	.word	0x2000035f
200000e4:	20000361 	.word	0x20000361
200000e8:	20000363 	.word	0x20000363
200000ec:	20000365 	.word	0x20000365
200000f0:	20000367 	.word	0x20000367
200000f4:	20000369 	.word	0x20000369
200000f8:	2000036b 	.word	0x2000036b
200000fc:	2000036d 	.word	0x2000036d
20000100:	2000036f 	.word	0x2000036f
20000104:	20000371 	.word	0x20000371
20000108:	20000373 	.word	0x20000373
2000010c:	20000375 	.word	0x20000375
20000110:	20000377 	.word	0x20000377
20000114:	20000379 	.word	0x20000379
20000118:	2000037b 	.word	0x2000037b
2000011c:	2000037d 	.word	0x2000037d
20000120:	2000037f 	.word	0x2000037f
20000124:	20000381 	.word	0x20000381
20000128:	20000383 	.word	0x20000383
2000012c:	20000385 	.word	0x20000385
20000130:	20000387 	.word	0x20000387
20000134:	20000389 	.word	0x20000389
20000138:	2000038b 	.word	0x2000038b
2000013c:	2000038d 	.word	0x2000038d
20000140:	2000038f 	.word	0x2000038f
20000144:	20000391 	.word	0x20000391
20000148:	20000393 	.word	0x20000393
2000014c:	20000395 	.word	0x20000395
20000150:	20000397 	.word	0x20000397
20000154:	20000399 	.word	0x20000399
20000158:	2000039b 	.word	0x2000039b
2000015c:	2000039d 	.word	0x2000039d
20000160:	2000039f 	.word	0x2000039f
20000164:	200003a1 	.word	0x200003a1
20000168:	200003a3 	.word	0x200003a3
2000016c:	200003a5 	.word	0x200003a5
20000170:	200003a7 	.word	0x200003a7
20000174:	200003a9 	.word	0x200003a9
20000178:	200003ab 	.word	0x200003ab
2000017c:	200003ad 	.word	0x200003ad
20000180:	200003af 	.word	0x200003af
20000184:	200003b1 	.word	0x200003b1
20000188:	200003b3 	.word	0x200003b3
2000018c:	200003b5 	.word	0x200003b5
20000190:	200003b7 	.word	0x200003b7
20000194:	200003b9 	.word	0x200003b9
20000198:	200003bb 	.word	0x200003bb
2000019c:	200003bd 	.word	0x200003bd
200001a0:	200003bf 	.word	0x200003bf
200001a4:	200003c1 	.word	0x200003c1
200001a8:	200003c3 	.word	0x200003c3
200001ac:	200003c5 	.word	0x200003c5
200001b0:	200003c7 	.word	0x200003c7
200001b4:	200003c9 	.word	0x200003c9
200001b8:	200003cb 	.word	0x200003cb
200001bc:	200003cd 	.word	0x200003cd
200001c0:	200003cf 	.word	0x200003cf
200001c4:	200003d1 	.word	0x200003d1
200001c8:	200003d3 	.word	0x200003d3
200001cc:	200003d5 	.word	0x200003d5
200001d0:	200003d7 	.word	0x200003d7
200001d4:	200003d9 	.word	0x200003d9
200001d8:	200003db 	.word	0x200003db
200001dc:	200003dd 	.word	0x200003dd
200001e0:	200003df 	.word	0x200003df
200001e4:	200003e1 	.word	0x200003e1
200001e8:	200003e3 	.word	0x200003e3
200001ec:	200003e5 	.word	0x200003e5
200001f0:	200003e7 	.word	0x200003e7
200001f4:	200003e9 	.word	0x200003e9
200001f8:	200003eb 	.word	0x200003eb
200001fc:	200003ed 	.word	0x200003ed
20000200:	200003ef 	.word	0x200003ef
20000204:	200003f1 	.word	0x200003f1
20000208:	200003f3 	.word	0x200003f3
2000020c:	200003f5 	.word	0x200003f5
20000210:	200003f7 	.word	0x200003f7
20000214:	200003f9 	.word	0x200003f9
20000218:	200003fb 	.word	0x200003fb
2000021c:	200003fd 	.word	0x200003fd
20000220:	200003ff 	.word	0x200003ff
20000224:	20000401 	.word	0x20000401
20000228:	20000403 	.word	0x20000403
2000022c:	20000405 	.word	0x20000405
20000230:	20000407 	.word	0x20000407
20000234:	20000409 	.word	0x20000409
20000238:	2000040b 	.word	0x2000040b
2000023c:	2000040d 	.word	0x2000040d
20000240:	2000040f 	.word	0x2000040f
20000244:	20000411 	.word	0x20000411
20000248:	20000413 	.word	0x20000413
2000024c:	20000415 	.word	0x20000415
20000250:	20000417 	.word	0x20000417
20000254:	20000419 	.word	0x20000419
20000258:	2000041b 	.word	0x2000041b
2000025c:	2000041d 	.word	0x2000041d
20000260:	2000041f 	.word	0x2000041f
20000264:	20000421 	.word	0x20000421
20000268:	20000423 	.word	0x20000423
2000026c:	20000425 	.word	0x20000425
20000270:	20000427 	.word	0x20000427
20000274:	20000429 	.word	0x20000429
20000278:	2000042b 	.word	0x2000042b
2000027c:	2000042d 	.word	0x2000042d
20000280:	2000042f 	.word	0x2000042f
20000284:	20000431 	.word	0x20000431
20000288:	20000433 	.word	0x20000433
2000028c:	20000435 	.word	0x20000435
20000290:	20000437 	.word	0x20000437
20000294:	20000439 	.word	0x20000439

20000298 <Reset_Handler>:
20000298:	4868      	ldr	r0, [pc, #416]	; (2000043c <ACE_PPE_Flag31_IRQHandler+0x4>)
2000029a:	4780      	blx	r0
2000029c:	4868      	ldr	r0, [pc, #416]	; (20000440 <ACE_PPE_Flag31_IRQHandler+0x8>)
2000029e:	2800      	cmp	r0, #0
200002a0:	d10b      	bne.n	200002ba <copy_data>
200002a2:	4868      	ldr	r0, [pc, #416]	; (20000444 <ACE_PPE_Flag31_IRQHandler+0xc>)
200002a4:	4968      	ldr	r1, [pc, #416]	; (20000448 <ACE_PPE_Flag31_IRQHandler+0x10>)
200002a6:	4a69      	ldr	r2, [pc, #420]	; (2000044c <ACE_PPE_Flag31_IRQHandler+0x14>)
200002a8:	4288      	cmp	r0, r1
200002aa:	d006      	beq.n	200002ba <copy_data>

200002ac <copy_code_loop>:
200002ac:	4291      	cmp	r1, r2
200002ae:	bf1c      	itt	ne
200002b0:	f850 3b04 	ldrne.w	r3, [r0], #4
200002b4:	f841 3b04 	strne.w	r3, [r1], #4
200002b8:	d1f8      	bne.n	200002ac <copy_code_loop>

200002ba <copy_data>:
200002ba:	4865      	ldr	r0, [pc, #404]	; (20000450 <ACE_PPE_Flag31_IRQHandler+0x18>)
200002bc:	4965      	ldr	r1, [pc, #404]	; (20000454 <ACE_PPE_Flag31_IRQHandler+0x1c>)
200002be:	4a66      	ldr	r2, [pc, #408]	; (20000458 <ACE_PPE_Flag31_IRQHandler+0x20>)
200002c0:	4288      	cmp	r0, r1
200002c2:	d006      	beq.n	200002d2 <clear_bss>

200002c4 <copy_data_loop>:
200002c4:	4291      	cmp	r1, r2
200002c6:	bf1c      	itt	ne
200002c8:	f850 3b04 	ldrne.w	r3, [r0], #4
200002cc:	f841 3b04 	strne.w	r3, [r1], #4
200002d0:	d1f8      	bne.n	200002c4 <copy_data_loop>

200002d2 <clear_bss>:
200002d2:	4862      	ldr	r0, [pc, #392]	; (2000045c <ACE_PPE_Flag31_IRQHandler+0x24>)
200002d4:	4962      	ldr	r1, [pc, #392]	; (20000460 <ACE_PPE_Flag31_IRQHandler+0x28>)
200002d6:	4a63      	ldr	r2, [pc, #396]	; (20000464 <ACE_PPE_Flag31_IRQHandler+0x2c>)

200002d8 <clear_bss_loop>:
200002d8:	4291      	cmp	r1, r2
200002da:	bf18      	it	ne
200002dc:	f841 0b04 	strne.w	r0, [r1], #4
200002e0:	d1fa      	bne.n	200002d8 <clear_bss_loop>
	...

200002f0 <call_glob_ctor>:
200002f0:	f8df 0174 	ldr.w	r0, [pc, #372]	; 20000468 <ACE_PPE_Flag31_IRQHandler+0x30>
200002f4:	f20f 0e03 	addw	lr, pc, #3
200002f8:	4700      	bx	r0

200002fa <branch_to_main>:
200002fa:	f04f 0000 	mov.w	r0, #0
200002fe:	f04f 0100 	mov.w	r1, #0
20000302:	f8df f168 	ldr.w	pc, [pc, #360]	; 2000046c <ACE_PPE_Flag31_IRQHandler+0x34>

20000306 <ExitLoop>:
20000306:	e7fe      	b.n	20000306 <ExitLoop>

20000308 <NMI_Handler>:
20000308:	e7fe      	b.n	20000308 <NMI_Handler>

2000030a <HardFault_Handler>:
2000030a:	e7fe      	b.n	2000030a <HardFault_Handler>

2000030c <MemManage_Handler>:
2000030c:	e7fe      	b.n	2000030c <MemManage_Handler>

2000030e <BusFault_Handler>:
2000030e:	e7fe      	b.n	2000030e <BusFault_Handler>

20000310 <UsageFault_Handler>:
20000310:	e7fe      	b.n	20000310 <UsageFault_Handler>

20000312 <SVC_Handler>:
20000312:	e7fe      	b.n	20000312 <SVC_Handler>

20000314 <DebugMon_Handler>:
20000314:	e7fe      	b.n	20000314 <DebugMon_Handler>

20000316 <PendSV_Handler>:
20000316:	e7fe      	b.n	20000316 <PendSV_Handler>

20000318 <SysTick_Handler>:
20000318:	e7fe      	b.n	20000318 <SysTick_Handler>

2000031a <WdogWakeup_IRQHandler>:
2000031a:	e7fe      	b.n	2000031a <WdogWakeup_IRQHandler>

2000031c <BrownOut_1_5V_IRQHandler>:
2000031c:	e7fe      	b.n	2000031c <BrownOut_1_5V_IRQHandler>

2000031e <BrownOut_3_3V_IRQHandler>:
2000031e:	e7fe      	b.n	2000031e <BrownOut_3_3V_IRQHandler>

20000320 <RTC_Match_IRQHandler>:
20000320:	e7fe      	b.n	20000320 <RTC_Match_IRQHandler>

20000322 <RTCIF_Pub_IRQHandler>:
20000322:	e7fe      	b.n	20000322 <RTCIF_Pub_IRQHandler>

20000324 <EthernetMAC_IRQHandler>:
20000324:	e7fe      	b.n	20000324 <EthernetMAC_IRQHandler>

20000326 <IAP_IRQHandler>:
20000326:	e7fe      	b.n	20000326 <IAP_IRQHandler>

20000328 <ENVM0_IRQHandler>:
20000328:	e7fe      	b.n	20000328 <ENVM0_IRQHandler>

2000032a <ENVM1_IRQHandler>:
2000032a:	e7fe      	b.n	2000032a <ENVM1_IRQHandler>

2000032c <DMA_IRQHandler>:
2000032c:	e7fe      	b.n	2000032c <DMA_IRQHandler>
2000032e:	e7fe      	b.n	2000032e <DMA_IRQHandler+0x2>
20000330:	e7fe      	b.n	20000330 <DMA_IRQHandler+0x4>

20000332 <SPI0_IRQHandler>:
20000332:	e7fe      	b.n	20000332 <SPI0_IRQHandler>

20000334 <SPI1_IRQHandler>:
20000334:	e7fe      	b.n	20000334 <SPI1_IRQHandler>

20000336 <I2C0_IRQHandler>:
20000336:	e7fe      	b.n	20000336 <I2C0_IRQHandler>

20000338 <I2C0_SMBAlert_IRQHandler>:
20000338:	e7fe      	b.n	20000338 <I2C0_SMBAlert_IRQHandler>

2000033a <I2C0_SMBus_IRQHandler>:
2000033a:	e7fe      	b.n	2000033a <I2C0_SMBus_IRQHandler>

2000033c <I2C1_IRQHandler>:
2000033c:	e7fe      	b.n	2000033c <I2C1_IRQHandler>

2000033e <I2C1_SMBAlert_IRQHandler>:
2000033e:	e7fe      	b.n	2000033e <I2C1_SMBAlert_IRQHandler>

20000340 <I2C1_SMBus_IRQHandler>:
20000340:	e7fe      	b.n	20000340 <I2C1_SMBus_IRQHandler>

20000342 <Timer1_IRQHandler>:
20000342:	e7fe      	b.n	20000342 <Timer1_IRQHandler>

20000344 <Timer2_IRQHandler>:
20000344:	e7fe      	b.n	20000344 <Timer2_IRQHandler>

20000346 <PLL_Lock_IRQHandler>:
20000346:	e7fe      	b.n	20000346 <PLL_Lock_IRQHandler>

20000348 <PLL_LockLost_IRQHandler>:
20000348:	e7fe      	b.n	20000348 <PLL_LockLost_IRQHandler>

2000034a <CommError_IRQHandler>:
2000034a:	e7fe      	b.n	2000034a <CommError_IRQHandler>

2000034c <Fabric_IRQHandler>:
2000034c:	e7fe      	b.n	2000034c <Fabric_IRQHandler>

2000034e <GPIO0_IRQHandler>:
2000034e:	e7fe      	b.n	2000034e <GPIO0_IRQHandler>

20000350 <GPIO1_IRQHandler>:
20000350:	e7fe      	b.n	20000350 <GPIO1_IRQHandler>

20000352 <GPIO2_IRQHandler>:
20000352:	e7fe      	b.n	20000352 <GPIO2_IRQHandler>

20000354 <GPIO3_IRQHandler>:
20000354:	e7fe      	b.n	20000354 <GPIO3_IRQHandler>

20000356 <GPIO4_IRQHandler>:
20000356:	e7fe      	b.n	20000356 <GPIO4_IRQHandler>

20000358 <GPIO5_IRQHandler>:
20000358:	e7fe      	b.n	20000358 <GPIO5_IRQHandler>

2000035a <GPIO6_IRQHandler>:
2000035a:	e7fe      	b.n	2000035a <GPIO6_IRQHandler>

2000035c <GPIO7_IRQHandler>:
2000035c:	e7fe      	b.n	2000035c <GPIO7_IRQHandler>

2000035e <GPIO8_IRQHandler>:
2000035e:	e7fe      	b.n	2000035e <GPIO8_IRQHandler>

20000360 <GPIO9_IRQHandler>:
20000360:	e7fe      	b.n	20000360 <GPIO9_IRQHandler>

20000362 <GPIO10_IRQHandler>:
20000362:	e7fe      	b.n	20000362 <GPIO10_IRQHandler>

20000364 <GPIO11_IRQHandler>:
20000364:	e7fe      	b.n	20000364 <GPIO11_IRQHandler>

20000366 <GPIO12_IRQHandler>:
20000366:	e7fe      	b.n	20000366 <GPIO12_IRQHandler>

20000368 <GPIO13_IRQHandler>:
20000368:	e7fe      	b.n	20000368 <GPIO13_IRQHandler>

2000036a <GPIO14_IRQHandler>:
2000036a:	e7fe      	b.n	2000036a <GPIO14_IRQHandler>

2000036c <GPIO15_IRQHandler>:
2000036c:	e7fe      	b.n	2000036c <GPIO15_IRQHandler>

2000036e <GPIO16_IRQHandler>:
2000036e:	e7fe      	b.n	2000036e <GPIO16_IRQHandler>

20000370 <GPIO17_IRQHandler>:
20000370:	e7fe      	b.n	20000370 <GPIO17_IRQHandler>

20000372 <GPIO18_IRQHandler>:
20000372:	e7fe      	b.n	20000372 <GPIO18_IRQHandler>

20000374 <GPIO19_IRQHandler>:
20000374:	e7fe      	b.n	20000374 <GPIO19_IRQHandler>

20000376 <GPIO20_IRQHandler>:
20000376:	e7fe      	b.n	20000376 <GPIO20_IRQHandler>

20000378 <GPIO21_IRQHandler>:
20000378:	e7fe      	b.n	20000378 <GPIO21_IRQHandler>

2000037a <GPIO22_IRQHandler>:
2000037a:	e7fe      	b.n	2000037a <GPIO22_IRQHandler>

2000037c <GPIO23_IRQHandler>:
2000037c:	e7fe      	b.n	2000037c <GPIO23_IRQHandler>

2000037e <GPIO24_IRQHandler>:
2000037e:	e7fe      	b.n	2000037e <GPIO24_IRQHandler>

20000380 <GPIO25_IRQHandler>:
20000380:	e7fe      	b.n	20000380 <GPIO25_IRQHandler>

20000382 <GPIO26_IRQHandler>:
20000382:	e7fe      	b.n	20000382 <GPIO26_IRQHandler>

20000384 <GPIO27_IRQHandler>:
20000384:	e7fe      	b.n	20000384 <GPIO27_IRQHandler>

20000386 <GPIO28_IRQHandler>:
20000386:	e7fe      	b.n	20000386 <GPIO28_IRQHandler>

20000388 <GPIO29_IRQHandler>:
20000388:	e7fe      	b.n	20000388 <GPIO29_IRQHandler>

2000038a <GPIO30_IRQHandler>:
2000038a:	e7fe      	b.n	2000038a <GPIO30_IRQHandler>

2000038c <GPIO31_IRQHandler>:
2000038c:	e7fe      	b.n	2000038c <GPIO31_IRQHandler>

2000038e <ACE_PC0_Flag0_IRQHandler>:
2000038e:	e7fe      	b.n	2000038e <ACE_PC0_Flag0_IRQHandler>

20000390 <ACE_PC0_Flag1_IRQHandler>:
20000390:	e7fe      	b.n	20000390 <ACE_PC0_Flag1_IRQHandler>

20000392 <ACE_PC0_Flag2_IRQHandler>:
20000392:	e7fe      	b.n	20000392 <ACE_PC0_Flag2_IRQHandler>

20000394 <ACE_PC0_Flag3_IRQHandler>:
20000394:	e7fe      	b.n	20000394 <ACE_PC0_Flag3_IRQHandler>

20000396 <ACE_PC1_Flag0_IRQHandler>:
20000396:	e7fe      	b.n	20000396 <ACE_PC1_Flag0_IRQHandler>

20000398 <ACE_PC1_Flag1_IRQHandler>:
20000398:	e7fe      	b.n	20000398 <ACE_PC1_Flag1_IRQHandler>

2000039a <ACE_PC1_Flag2_IRQHandler>:
2000039a:	e7fe      	b.n	2000039a <ACE_PC1_Flag2_IRQHandler>

2000039c <ACE_PC1_Flag3_IRQHandler>:
2000039c:	e7fe      	b.n	2000039c <ACE_PC1_Flag3_IRQHandler>

2000039e <ACE_PC2_Flag0_IRQHandler>:
2000039e:	e7fe      	b.n	2000039e <ACE_PC2_Flag0_IRQHandler>

200003a0 <ACE_PC2_Flag1_IRQHandler>:
200003a0:	e7fe      	b.n	200003a0 <ACE_PC2_Flag1_IRQHandler>

200003a2 <ACE_PC2_Flag2_IRQHandler>:
200003a2:	e7fe      	b.n	200003a2 <ACE_PC2_Flag2_IRQHandler>

200003a4 <ACE_PC2_Flag3_IRQHandler>:
200003a4:	e7fe      	b.n	200003a4 <ACE_PC2_Flag3_IRQHandler>

200003a6 <ACE_ADC0_DataValid_IRQHandler>:
200003a6:	e7fe      	b.n	200003a6 <ACE_ADC0_DataValid_IRQHandler>

200003a8 <ACE_ADC1_DataValid_IRQHandler>:
200003a8:	e7fe      	b.n	200003a8 <ACE_ADC1_DataValid_IRQHandler>

200003aa <ACE_ADC2_DataValid_IRQHandler>:
200003aa:	e7fe      	b.n	200003aa <ACE_ADC2_DataValid_IRQHandler>

200003ac <ACE_ADC0_CalDone_IRQHandler>:
200003ac:	e7fe      	b.n	200003ac <ACE_ADC0_CalDone_IRQHandler>

200003ae <ACE_ADC1_CalDone_IRQHandler>:
200003ae:	e7fe      	b.n	200003ae <ACE_ADC1_CalDone_IRQHandler>

200003b0 <ACE_ADC2_CalDone_IRQHandler>:
200003b0:	e7fe      	b.n	200003b0 <ACE_ADC2_CalDone_IRQHandler>

200003b2 <ACE_ADC0_CalStart_IRQHandler>:
200003b2:	e7fe      	b.n	200003b2 <ACE_ADC0_CalStart_IRQHandler>

200003b4 <ACE_ADC1_CalStart_IRQHandler>:
200003b4:	e7fe      	b.n	200003b4 <ACE_ADC1_CalStart_IRQHandler>

200003b6 <ACE_ADC2_CalStart_IRQHandler>:
200003b6:	e7fe      	b.n	200003b6 <ACE_ADC2_CalStart_IRQHandler>

200003b8 <ACE_Comp0_Fall_IRQHandler>:
200003b8:	e7fe      	b.n	200003b8 <ACE_Comp0_Fall_IRQHandler>

200003ba <ACE_Comp1_Fall_IRQHandler>:
200003ba:	e7fe      	b.n	200003ba <ACE_Comp1_Fall_IRQHandler>

200003bc <ACE_Comp2_Fall_IRQHandler>:
200003bc:	e7fe      	b.n	200003bc <ACE_Comp2_Fall_IRQHandler>

200003be <ACE_Comp3_Fall_IRQHandler>:
200003be:	e7fe      	b.n	200003be <ACE_Comp3_Fall_IRQHandler>

200003c0 <ACE_Comp4_Fall_IRQHandler>:
200003c0:	e7fe      	b.n	200003c0 <ACE_Comp4_Fall_IRQHandler>

200003c2 <ACE_Comp5_Fall_IRQHandler>:
200003c2:	e7fe      	b.n	200003c2 <ACE_Comp5_Fall_IRQHandler>

200003c4 <ACE_Comp6_Fall_IRQHandler>:
200003c4:	e7fe      	b.n	200003c4 <ACE_Comp6_Fall_IRQHandler>

200003c6 <ACE_Comp7_Fall_IRQHandler>:
200003c6:	e7fe      	b.n	200003c6 <ACE_Comp7_Fall_IRQHandler>

200003c8 <ACE_Comp8_Fall_IRQHandler>:
200003c8:	e7fe      	b.n	200003c8 <ACE_Comp8_Fall_IRQHandler>

200003ca <ACE_Comp9_Fall_IRQHandler>:
200003ca:	e7fe      	b.n	200003ca <ACE_Comp9_Fall_IRQHandler>

200003cc <ACE_Comp10_Fall_IRQHandler>:
200003cc:	e7fe      	b.n	200003cc <ACE_Comp10_Fall_IRQHandler>

200003ce <ACE_Comp11_Fall_IRQHandler>:
200003ce:	e7fe      	b.n	200003ce <ACE_Comp11_Fall_IRQHandler>

200003d0 <ACE_Comp0_Rise_IRQHandler>:
200003d0:	e7fe      	b.n	200003d0 <ACE_Comp0_Rise_IRQHandler>

200003d2 <ACE_Comp1_Rise_IRQHandler>:
200003d2:	e7fe      	b.n	200003d2 <ACE_Comp1_Rise_IRQHandler>

200003d4 <ACE_Comp2_Rise_IRQHandler>:
200003d4:	e7fe      	b.n	200003d4 <ACE_Comp2_Rise_IRQHandler>

200003d6 <ACE_Comp3_Rise_IRQHandler>:
200003d6:	e7fe      	b.n	200003d6 <ACE_Comp3_Rise_IRQHandler>

200003d8 <ACE_Comp4_Rise_IRQHandler>:
200003d8:	e7fe      	b.n	200003d8 <ACE_Comp4_Rise_IRQHandler>

200003da <ACE_Comp5_Rise_IRQHandler>:
200003da:	e7fe      	b.n	200003da <ACE_Comp5_Rise_IRQHandler>

200003dc <ACE_Comp6_Rise_IRQHandler>:
200003dc:	e7fe      	b.n	200003dc <ACE_Comp6_Rise_IRQHandler>

200003de <ACE_Comp7_Rise_IRQHandler>:
200003de:	e7fe      	b.n	200003de <ACE_Comp7_Rise_IRQHandler>

200003e0 <ACE_Comp8_Rise_IRQHandler>:
200003e0:	e7fe      	b.n	200003e0 <ACE_Comp8_Rise_IRQHandler>

200003e2 <ACE_Comp9_Rise_IRQHandler>:
200003e2:	e7fe      	b.n	200003e2 <ACE_Comp9_Rise_IRQHandler>

200003e4 <ACE_Comp10_Rise_IRQHandler>:
200003e4:	e7fe      	b.n	200003e4 <ACE_Comp10_Rise_IRQHandler>

200003e6 <ACE_Comp11_Rise_IRQHandler>:
200003e6:	e7fe      	b.n	200003e6 <ACE_Comp11_Rise_IRQHandler>

200003e8 <ACE_ADC0_FifoFull_IRQHandler>:
200003e8:	e7fe      	b.n	200003e8 <ACE_ADC0_FifoFull_IRQHandler>

200003ea <ACE_ADC0_FifoAFull_IRQHandler>:
200003ea:	e7fe      	b.n	200003ea <ACE_ADC0_FifoAFull_IRQHandler>

200003ec <ACE_ADC0_FifoEmpty_IRQHandler>:
200003ec:	e7fe      	b.n	200003ec <ACE_ADC0_FifoEmpty_IRQHandler>

200003ee <ACE_ADC1_FifoFull_IRQHandler>:
200003ee:	e7fe      	b.n	200003ee <ACE_ADC1_FifoFull_IRQHandler>

200003f0 <ACE_ADC1_FifoAFull_IRQHandler>:
200003f0:	e7fe      	b.n	200003f0 <ACE_ADC1_FifoAFull_IRQHandler>

200003f2 <ACE_ADC1_FifoEmpty_IRQHandler>:
200003f2:	e7fe      	b.n	200003f2 <ACE_ADC1_FifoEmpty_IRQHandler>

200003f4 <ACE_ADC2_FifoFull_IRQHandler>:
200003f4:	e7fe      	b.n	200003f4 <ACE_ADC2_FifoFull_IRQHandler>

200003f6 <ACE_ADC2_FifoAFull_IRQHandler>:
200003f6:	e7fe      	b.n	200003f6 <ACE_ADC2_FifoAFull_IRQHandler>

200003f8 <ACE_ADC2_FifoEmpty_IRQHandler>:
200003f8:	e7fe      	b.n	200003f8 <ACE_ADC2_FifoEmpty_IRQHandler>

200003fa <ACE_PPE_Flag0_IRQHandler>:
200003fa:	e7fe      	b.n	200003fa <ACE_PPE_Flag0_IRQHandler>

200003fc <ACE_PPE_Flag1_IRQHandler>:
200003fc:	e7fe      	b.n	200003fc <ACE_PPE_Flag1_IRQHandler>

200003fe <ACE_PPE_Flag2_IRQHandler>:
200003fe:	e7fe      	b.n	200003fe <ACE_PPE_Flag2_IRQHandler>

20000400 <ACE_PPE_Flag3_IRQHandler>:
20000400:	e7fe      	b.n	20000400 <ACE_PPE_Flag3_IRQHandler>

20000402 <ACE_PPE_Flag4_IRQHandler>:
20000402:	e7fe      	b.n	20000402 <ACE_PPE_Flag4_IRQHandler>

20000404 <ACE_PPE_Flag5_IRQHandler>:
20000404:	e7fe      	b.n	20000404 <ACE_PPE_Flag5_IRQHandler>

20000406 <ACE_PPE_Flag6_IRQHandler>:
20000406:	e7fe      	b.n	20000406 <ACE_PPE_Flag6_IRQHandler>

20000408 <ACE_PPE_Flag7_IRQHandler>:
20000408:	e7fe      	b.n	20000408 <ACE_PPE_Flag7_IRQHandler>

2000040a <ACE_PPE_Flag8_IRQHandler>:
2000040a:	e7fe      	b.n	2000040a <ACE_PPE_Flag8_IRQHandler>

2000040c <ACE_PPE_Flag9_IRQHandler>:
2000040c:	e7fe      	b.n	2000040c <ACE_PPE_Flag9_IRQHandler>

2000040e <ACE_PPE_Flag10_IRQHandler>:
2000040e:	e7fe      	b.n	2000040e <ACE_PPE_Flag10_IRQHandler>

20000410 <ACE_PPE_Flag11_IRQHandler>:
20000410:	e7fe      	b.n	20000410 <ACE_PPE_Flag11_IRQHandler>

20000412 <ACE_PPE_Flag12_IRQHandler>:
20000412:	e7fe      	b.n	20000412 <ACE_PPE_Flag12_IRQHandler>

20000414 <ACE_PPE_Flag13_IRQHandler>:
20000414:	e7fe      	b.n	20000414 <ACE_PPE_Flag13_IRQHandler>

20000416 <ACE_PPE_Flag14_IRQHandler>:
20000416:	e7fe      	b.n	20000416 <ACE_PPE_Flag14_IRQHandler>

20000418 <ACE_PPE_Flag15_IRQHandler>:
20000418:	e7fe      	b.n	20000418 <ACE_PPE_Flag15_IRQHandler>

2000041a <ACE_PPE_Flag16_IRQHandler>:
2000041a:	e7fe      	b.n	2000041a <ACE_PPE_Flag16_IRQHandler>

2000041c <ACE_PPE_Flag17_IRQHandler>:
2000041c:	e7fe      	b.n	2000041c <ACE_PPE_Flag17_IRQHandler>

2000041e <ACE_PPE_Flag18_IRQHandler>:
2000041e:	e7fe      	b.n	2000041e <ACE_PPE_Flag18_IRQHandler>

20000420 <ACE_PPE_Flag19_IRQHandler>:
20000420:	e7fe      	b.n	20000420 <ACE_PPE_Flag19_IRQHandler>

20000422 <ACE_PPE_Flag20_IRQHandler>:
20000422:	e7fe      	b.n	20000422 <ACE_PPE_Flag20_IRQHandler>

20000424 <ACE_PPE_Flag21_IRQHandler>:
20000424:	e7fe      	b.n	20000424 <ACE_PPE_Flag21_IRQHandler>

20000426 <ACE_PPE_Flag22_IRQHandler>:
20000426:	e7fe      	b.n	20000426 <ACE_PPE_Flag22_IRQHandler>

20000428 <ACE_PPE_Flag23_IRQHandler>:
20000428:	e7fe      	b.n	20000428 <ACE_PPE_Flag23_IRQHandler>

2000042a <ACE_PPE_Flag24_IRQHandler>:
2000042a:	e7fe      	b.n	2000042a <ACE_PPE_Flag24_IRQHandler>

2000042c <ACE_PPE_Flag25_IRQHandler>:
2000042c:	e7fe      	b.n	2000042c <ACE_PPE_Flag25_IRQHandler>

2000042e <ACE_PPE_Flag26_IRQHandler>:
2000042e:	e7fe      	b.n	2000042e <ACE_PPE_Flag26_IRQHandler>

20000430 <ACE_PPE_Flag27_IRQHandler>:
20000430:	e7fe      	b.n	20000430 <ACE_PPE_Flag27_IRQHandler>

20000432 <ACE_PPE_Flag28_IRQHandler>:
20000432:	e7fe      	b.n	20000432 <ACE_PPE_Flag28_IRQHandler>

20000434 <ACE_PPE_Flag29_IRQHandler>:
20000434:	e7fe      	b.n	20000434 <ACE_PPE_Flag29_IRQHandler>

20000436 <ACE_PPE_Flag30_IRQHandler>:
20000436:	e7fe      	b.n	20000436 <ACE_PPE_Flag30_IRQHandler>

20000438 <ACE_PPE_Flag31_IRQHandler>:
20000438:	e7fe      	b.n	20000438 <ACE_PPE_Flag31_IRQHandler>
2000043a:	0000      	.short	0x0000
2000043c:	20000a6d 	.word	0x20000a6d
20000440:	00000000 	.word	0x00000000
20000444:	20000000 	.word	0x20000000
20000448:	20000000 	.word	0x20000000
2000044c:	200071c0 	.word	0x200071c0
20000450:	200071c0 	.word	0x200071c0
20000454:	200071c0 	.word	0x200071c0
20000458:	200076e0 	.word	0x200076e0
2000045c:	00000000 	.word	0x00000000
20000460:	200076e0 	.word	0x200076e0
20000464:	20007778 	.word	0x20007778
20000468:	20000ba1 	.word	0x20000ba1
2000046c:	200005b5 	.word	0x200005b5

20000470 <__do_global_dtors_aux>:
20000470:	f247 63e0 	movw	r3, #30432	; 0x76e0
20000474:	f2c2 0300 	movt	r3, #8192	; 0x2000
20000478:	781a      	ldrb	r2, [r3, #0]
2000047a:	b90a      	cbnz	r2, 20000480 <__do_global_dtors_aux+0x10>
2000047c:	2001      	movs	r0, #1
2000047e:	7018      	strb	r0, [r3, #0]
20000480:	4770      	bx	lr
20000482:	bf00      	nop

20000484 <frame_dummy>:
20000484:	f247 10c0 	movw	r0, #29120	; 0x71c0
20000488:	f2c2 0000 	movt	r0, #8192	; 0x2000
2000048c:	b508      	push	{r3, lr}
2000048e:	6803      	ldr	r3, [r0, #0]
20000490:	b12b      	cbz	r3, 2000049e <frame_dummy+0x1a>
20000492:	f240 0300 	movw	r3, #0
20000496:	f2c0 0300 	movt	r3, #0
2000049a:	b103      	cbz	r3, 2000049e <frame_dummy+0x1a>
2000049c:	4798      	blx	r3
2000049e:	bd08      	pop	{r3, pc}

200004a0 <MIDI_init>:
#include "drivers/mss_uart/mss_uart.h"

#define MIDI_DEFAULT_CHANNEL 0
#define MIDI_DEFAULT_VELOCITY 127

void MIDI_init() {
200004a0:	b580      	push	{r7, lr}
200004a2:	af00      	add	r7, sp, #0
	MSS_UART_init( &g_mss_uart1, 31250,
200004a4:	f247 7020 	movw	r0, #30496	; 0x7720
200004a8:	f2c2 0000 	movt	r0, #8192	; 0x2000
200004ac:	f647 2112 	movw	r1, #31250	; 0x7a12
200004b0:	f04f 0203 	mov.w	r2, #3
200004b4:	f000 fa32 	bl	2000091c <MSS_UART_init>
					MSS_UART_DATA_8_BITS | MSS_UART_NO_PARITY | MSS_UART_ONE_STOP_BIT );
}
200004b8:	bd80      	pop	{r7, pc}
200004ba:	bf00      	nop

200004bc <MIDI_sendMessage>:

void MIDI_sendMessage(uint8_t dataBytes[], uint32_t numDataBytes) {
200004bc:	b580      	push	{r7, lr}
200004be:	b082      	sub	sp, #8
200004c0:	af00      	add	r7, sp, #0
200004c2:	6078      	str	r0, [r7, #4]
200004c4:	6039      	str	r1, [r7, #0]
    MSS_UART_polled_tx( &g_mss_uart1, dataBytes, numDataBytes );
200004c6:	f247 7020 	movw	r0, #30496	; 0x7720
200004ca:	f2c2 0000 	movt	r0, #8192	; 0x2000
200004ce:	6879      	ldr	r1, [r7, #4]
200004d0:	683a      	ldr	r2, [r7, #0]
200004d2:	f000 f911 	bl	200006f8 <MSS_UART_polled_tx>
}
200004d6:	f107 0708 	add.w	r7, r7, #8
200004da:	46bd      	mov	sp, r7
200004dc:	bd80      	pop	{r7, pc}
200004de:	bf00      	nop

200004e0 <MIDI_noteOn>:

void MIDI_noteOn(uint8_t note, uint8_t velocity, uint8_t channel) {
200004e0:	b580      	push	{r7, lr}
200004e2:	b084      	sub	sp, #16
200004e4:	af00      	add	r7, sp, #0
200004e6:	4613      	mov	r3, r2
200004e8:	4602      	mov	r2, r0
200004ea:	71fa      	strb	r2, [r7, #7]
200004ec:	460a      	mov	r2, r1
200004ee:	71ba      	strb	r2, [r7, #6]
200004f0:	717b      	strb	r3, [r7, #5]
    uint8_t data[3] = { 0x90 | (channel & 0xF), note, velocity};
200004f2:	797b      	ldrb	r3, [r7, #5]
200004f4:	b2db      	uxtb	r3, r3
200004f6:	f003 030f 	and.w	r3, r3, #15
200004fa:	ea6f 0303 	mvn.w	r3, r3
200004fe:	f003 036f 	and.w	r3, r3, #111	; 0x6f
20000502:	ea6f 0303 	mvn.w	r3, r3
20000506:	b2db      	uxtb	r3, r3
20000508:	b2db      	uxtb	r3, r3
2000050a:	733b      	strb	r3, [r7, #12]
2000050c:	79fb      	ldrb	r3, [r7, #7]
2000050e:	737b      	strb	r3, [r7, #13]
20000510:	79bb      	ldrb	r3, [r7, #6]
20000512:	73bb      	strb	r3, [r7, #14]
    MIDI_sendMessage(data, 3);
20000514:	f107 030c 	add.w	r3, r7, #12
20000518:	4618      	mov	r0, r3
2000051a:	f04f 0103 	mov.w	r1, #3
2000051e:	f7ff ffcd 	bl	200004bc <MIDI_sendMessage>
}
20000522:	f107 0710 	add.w	r7, r7, #16
20000526:	46bd      	mov	sp, r7
20000528:	bd80      	pop	{r7, pc}
2000052a:	bf00      	nop

2000052c <MIDI_noteOff>:

void MIDI_noteOff(uint8_t note, uint8_t velocity, uint8_t channel) {
2000052c:	b580      	push	{r7, lr}
2000052e:	b084      	sub	sp, #16
20000530:	af00      	add	r7, sp, #0
20000532:	4613      	mov	r3, r2
20000534:	4602      	mov	r2, r0
20000536:	71fa      	strb	r2, [r7, #7]
20000538:	460a      	mov	r2, r1
2000053a:	71ba      	strb	r2, [r7, #6]
2000053c:	717b      	strb	r3, [r7, #5]
    uint8_t data[3] = { 0x80 | (channel & 0xF), note, velocity};
2000053e:	797b      	ldrb	r3, [r7, #5]
20000540:	b2db      	uxtb	r3, r3
20000542:	f003 030f 	and.w	r3, r3, #15
20000546:	ea6f 6343 	mvn.w	r3, r3, lsl #25
2000054a:	ea6f 6353 	mvn.w	r3, r3, lsr #25
2000054e:	b2db      	uxtb	r3, r3
20000550:	b2db      	uxtb	r3, r3
20000552:	733b      	strb	r3, [r7, #12]
20000554:	79fb      	ldrb	r3, [r7, #7]
20000556:	737b      	strb	r3, [r7, #13]
20000558:	79bb      	ldrb	r3, [r7, #6]
2000055a:	73bb      	strb	r3, [r7, #14]
    MIDI_sendMessage(data, 3);
2000055c:	f107 030c 	add.w	r3, r7, #12
20000560:	4618      	mov	r0, r3
20000562:	f04f 0103 	mov.w	r1, #3
20000566:	f7ff ffa9 	bl	200004bc <MIDI_sendMessage>
}
2000056a:	f107 0710 	add.w	r7, r7, #16
2000056e:	46bd      	mov	sp, r7
20000570:	bd80      	pop	{r7, pc}
20000572:	bf00      	nop

20000574 <MIDI_programChange>:
void MIDI_controlChange(uint8_t control, uint8_t value, uint8_t channel) {
    uint8_t data[3] = { 0xB0 | (channel & 0xF), control, value};
    MIDI_sendMessage(data, 3);
}

void MIDI_programChange(uint8_t program, uint8_t channel) {
20000574:	b580      	push	{r7, lr}
20000576:	b084      	sub	sp, #16
20000578:	af00      	add	r7, sp, #0
2000057a:	4602      	mov	r2, r0
2000057c:	460b      	mov	r3, r1
2000057e:	71fa      	strb	r2, [r7, #7]
20000580:	71bb      	strb	r3, [r7, #6]
    uint8_t data[2] = { 0xC0 | (channel & 0xF), program};
20000582:	79bb      	ldrb	r3, [r7, #6]
20000584:	b2db      	uxtb	r3, r3
20000586:	f003 030f 	and.w	r3, r3, #15
2000058a:	ea6f 6383 	mvn.w	r3, r3, lsl #26
2000058e:	ea6f 6393 	mvn.w	r3, r3, lsr #26
20000592:	b2db      	uxtb	r3, r3
20000594:	b2db      	uxtb	r3, r3
20000596:	733b      	strb	r3, [r7, #12]
20000598:	79fb      	ldrb	r3, [r7, #7]
2000059a:	737b      	strb	r3, [r7, #13]
    MIDI_sendMessage(data, 2);
2000059c:	f107 030c 	add.w	r3, r7, #12
200005a0:	4618      	mov	r0, r3
200005a2:	f04f 0102 	mov.w	r1, #2
200005a6:	f7ff ff89 	bl	200004bc <MIDI_sendMessage>
}
200005aa:	f107 0710 	add.w	r7, r7, #16
200005ae:	46bd      	mov	sp, r7
200005b0:	bd80      	pop	{r7, pc}
200005b2:	bf00      	nop

200005b4 <main>:
#include <stdio.h>
#include <inttypes.h>
#include "midi.h"

int main()
{
200005b4:	b580      	push	{r7, lr}
200005b6:	b082      	sub	sp, #8
200005b8:	af00      	add	r7, sp, #0

	MIDI_init();
200005ba:	f7ff ff71 	bl	200004a0 <MIDI_init>
	MIDI_programChange(2, 3);
200005be:	f04f 0002 	mov.w	r0, #2
200005c2:	f04f 0103 	mov.w	r1, #3
200005c6:	f7ff ffd5 	bl	20000574 <MIDI_programChange>
	MIDI_noteOn(60, MIDI_DEFAULT_VELOCITY, MIDI_DEFAULT_CHANNEL);
200005ca:	f04f 003c 	mov.w	r0, #60	; 0x3c
200005ce:	f04f 017f 	mov.w	r1, #127	; 0x7f
200005d2:	f04f 0200 	mov.w	r2, #0
200005d6:	f7ff ff83 	bl	200004e0 <MIDI_noteOn>
	int i;
	for (i = 0; i < 200; i++) {
200005da:	f04f 0300 	mov.w	r3, #0
200005de:	607b      	str	r3, [r7, #4]
200005e0:	e00a      	b.n	200005f8 <main+0x44>
		printf("Busy looping: %d\n\r", i);
200005e2:	f646 7010 	movw	r0, #28432	; 0x6f10
200005e6:	f2c2 0000 	movt	r0, #8192	; 0x2000
200005ea:	6879      	ldr	r1, [r7, #4]
200005ec:	f000 fb00 	bl	20000bf0 <printf>

	MIDI_init();
	MIDI_programChange(2, 3);
	MIDI_noteOn(60, MIDI_DEFAULT_VELOCITY, MIDI_DEFAULT_CHANNEL);
	int i;
	for (i = 0; i < 200; i++) {
200005f0:	687b      	ldr	r3, [r7, #4]
200005f2:	f103 0301 	add.w	r3, r3, #1
200005f6:	607b      	str	r3, [r7, #4]
200005f8:	687b      	ldr	r3, [r7, #4]
200005fa:	2bc7      	cmp	r3, #199	; 0xc7
200005fc:	ddf1      	ble.n	200005e2 <main+0x2e>
		printf("Busy looping: %d\n\r", i);
	}
	MIDI_noteOff(60, MIDI_DEFAULT_VELOCITY, MIDI_DEFAULT_CHANNEL);
200005fe:	f04f 003c 	mov.w	r0, #60	; 0x3c
20000602:	f04f 017f 	mov.w	r1, #127	; 0x7f
20000606:	f04f 0200 	mov.w	r2, #0
2000060a:	f7ff ff8f 	bl	2000052c <MIDI_noteOff>
	return(0);
2000060e:	f04f 0300 	mov.w	r3, #0
}
20000612:	4618      	mov	r0, r3
20000614:	f107 0708 	add.w	r7, r7, #8
20000618:	46bd      	mov	sp, r7
2000061a:	bd80      	pop	{r7, pc}

2000061c <_close>:
 * Close a file.
 */
int _close(int file)
{
    return -1;
}
2000061c:	f04f 30ff 	mov.w	r0, #4294967295
20000620:	4770      	bx	lr
20000622:	bf00      	nop

20000624 <_exit>:
	/* Should we force a system reset? */
	while( 1 )
	{
		;
	}
}
20000624:	e7fe      	b.n	20000624 <_exit>
20000626:	bf00      	nop

20000628 <_fstat>:
/*==============================================================================
 * Status of an open file.
 */
int _fstat(int file, struct stat *st)
{
    st->st_mode = S_IFCHR;
20000628:	f44f 5300 	mov.w	r3, #8192	; 0x2000
2000062c:	604b      	str	r3, [r1, #4]
    return 0;
}
2000062e:	f04f 0000 	mov.w	r0, #0
20000632:	4770      	bx	lr

20000634 <_isatty>:
 * Query whether output stream is a terminal.
 */
int _isatty(int file)
{
    return 1;
}
20000634:	f04f 0001 	mov.w	r0, #1
20000638:	4770      	bx	lr
2000063a:	bf00      	nop

2000063c <_lseek>:
 * Set position in a file.
 */
int _lseek(int file, int ptr, int dir)
{
    return 0;
}
2000063c:	f04f 0000 	mov.w	r0, #0
20000640:	4770      	bx	lr
20000642:	bf00      	nop

20000644 <_read>:
 * Read from a file.
 */
int _read(int file, char *ptr, int len)
{
    return 0;
}
20000644:	f04f 0000 	mov.w	r0, #0
20000648:	4770      	bx	lr
2000064a:	bf00      	nop

2000064c <_write_r>:
 * all files, including stdout—so if you need to generate any output, for
 * example to a serial port for debugging, you should make your minimal write
 * capable of doing this.
 */
int _write_r( void * reent, int file, char * ptr, int len )
{
2000064c:	b538      	push	{r3, r4, r5, lr}
2000064e:	4615      	mov	r5, r2
20000650:	461c      	mov	r4, r3
#ifdef ACTEL_STDIO_THRU_UART
    /*--------------------------------------------------------------------------
     * Initialize the UART driver if it is the first time this function is
     * called.
     */
    if ( !g_stdio_uart_init_done )
20000652:	f247 63e4 	movw	r3, #30436	; 0x76e4
20000656:	f2c2 0300 	movt	r3, #8192	; 0x2000
2000065a:	681b      	ldr	r3, [r3, #0]
2000065c:	b983      	cbnz	r3, 20000680 <_write_r+0x34>
    {
        MSS_UART_init( &g_mss_uart0, ACTEL_STDIO_BAUD_RATE, (MSS_UART_DATA_8_BITS | MSS_UART_NO_PARITY));
2000065e:	f247 7048 	movw	r0, #30536	; 0x7748
20000662:	f2c2 0000 	movt	r0, #8192	; 0x2000
20000666:	f44f 4161 	mov.w	r1, #57600	; 0xe100
2000066a:	f04f 0203 	mov.w	r2, #3
2000066e:	f000 f955 	bl	2000091c <MSS_UART_init>
        g_stdio_uart_init_done = 1;
20000672:	f247 63e4 	movw	r3, #30436	; 0x76e4
20000676:	f2c2 0300 	movt	r3, #8192	; 0x2000
2000067a:	f04f 0201 	mov.w	r2, #1
2000067e:	601a      	str	r2, [r3, #0]
    }
    
    /*--------------------------------------------------------------------------
     * Output text to the UART.
     */
    MSS_UART_polled_tx( &g_mss_uart0, (uint8_t *)ptr, len );
20000680:	f247 7048 	movw	r0, #30536	; 0x7748
20000684:	f2c2 0000 	movt	r0, #8192	; 0x2000
20000688:	4629      	mov	r1, r5
2000068a:	4622      	mov	r2, r4
2000068c:	f000 f834 	bl	200006f8 <MSS_UART_polled_tx>
    
    return len;
#else   /* ACTEL_STDIO_THRU_UART */
    return 0;
#endif  /* ACTEL_STDIO_THRU_UART */
}
20000690:	4620      	mov	r0, r4
20000692:	bd38      	pop	{r3, r4, r5, pc}

20000694 <_sbrk>:
 * it is useful to have a working implementation. The following suffices for a
 * standalone system; it exploits the symbol _end automatically defined by the
 * GNU linker. 
 */
caddr_t _sbrk(int incr)
{
20000694:	b508      	push	{r3, lr}
    extern char _end;		/* Defined by the linker */
    static char *heap_end;
    char *prev_heap_end;
    char * stack_ptr;
    
    if (heap_end == 0)
20000696:	f247 63e8 	movw	r3, #30440	; 0x76e8
2000069a:	f2c2 0300 	movt	r3, #8192	; 0x2000
2000069e:	681b      	ldr	r3, [r3, #0]
200006a0:	b943      	cbnz	r3, 200006b4 <_sbrk+0x20>
    {
      heap_end = &_end;
200006a2:	f247 63e8 	movw	r3, #30440	; 0x76e8
200006a6:	f2c2 0300 	movt	r3, #8192	; 0x2000
200006aa:	f247 7278 	movw	r2, #30584	; 0x7778
200006ae:	f2c2 0200 	movt	r2, #8192	; 0x2000
200006b2:	601a      	str	r2, [r3, #0]
    }
    
    prev_heap_end = heap_end;
200006b4:	f247 63e8 	movw	r3, #30440	; 0x76e8
200006b8:	f2c2 0300 	movt	r3, #8192	; 0x2000
200006bc:	681a      	ldr	r2, [r3, #0]
    asm volatile ("MRS %0, msp" : "=r" (stack_ptr) );
200006be:	f3ef 8308 	mrs	r3, MSP
    if (heap_end + incr > stack_ptr)
200006c2:	4410      	add	r0, r2
200006c4:	4283      	cmp	r3, r0
200006c6:	d20f      	bcs.n	200006e8 <_sbrk+0x54>
    {
      _write_r ((void *)0, 1, "Heap and stack collision\n", 25);
200006c8:	f04f 0000 	mov.w	r0, #0
200006cc:	f04f 0101 	mov.w	r1, #1
200006d0:	f646 7224 	movw	r2, #28452	; 0x6f24
200006d4:	f2c2 0200 	movt	r2, #8192	; 0x2000
200006d8:	f04f 0319 	mov.w	r3, #25
200006dc:	f7ff ffb6 	bl	2000064c <_write_r>
      _exit (1);
200006e0:	f04f 0001 	mov.w	r0, #1
200006e4:	f7ff ff9e 	bl	20000624 <_exit>
    }
  
    heap_end += incr;
200006e8:	f247 63e8 	movw	r3, #30440	; 0x76e8
200006ec:	f2c2 0300 	movt	r3, #8192	; 0x2000
200006f0:	6018      	str	r0, [r3, #0]
    return (caddr_t) prev_heap_end;
}
200006f2:	4610      	mov	r0, r2
200006f4:	bd08      	pop	{r3, pc}
200006f6:	bf00      	nop

200006f8 <MSS_UART_polled_tx>:
(
    mss_uart_instance_t * this_uart,
    const uint8_t * pbuff,
    uint32_t tx_size
)
{
200006f8:	e92d 05f0 	stmdb	sp!, {r4, r5, r6, r7, r8, sl}
    uint32_t char_idx = 0U;
    uint32_t size_sent;
    uint8_t status;

    ASSERT( (this_uart == &g_mss_uart0) || (this_uart == &g_mss_uart1) );
200006fc:	f247 7348 	movw	r3, #30536	; 0x7748
20000700:	f2c2 0300 	movt	r3, #8192	; 0x2000
20000704:	4298      	cmp	r0, r3
20000706:	d006      	beq.n	20000716 <MSS_UART_polled_tx+0x1e>
20000708:	f247 7320 	movw	r3, #30496	; 0x7720
2000070c:	f2c2 0300 	movt	r3, #8192	; 0x2000
20000710:	4298      	cmp	r0, r3
20000712:	d000      	beq.n	20000716 <MSS_UART_polled_tx+0x1e>
20000714:	be00      	bkpt	0x0000
    ASSERT( pbuff != ( (uint8_t *)0 ) );
20000716:	b901      	cbnz	r1, 2000071a <MSS_UART_polled_tx+0x22>
20000718:	be00      	bkpt	0x0000
    ASSERT( tx_size > 0U );
2000071a:	b902      	cbnz	r2, 2000071e <MSS_UART_polled_tx+0x26>
2000071c:	be00      	bkpt	0x0000

    if( ( (this_uart == &g_mss_uart0) || (this_uart == &g_mss_uart1) ) &&
2000071e:	f247 7348 	movw	r3, #30536	; 0x7748
20000722:	f2c2 0300 	movt	r3, #8192	; 0x2000
20000726:	4298      	cmp	r0, r3
20000728:	d005      	beq.n	20000736 <MSS_UART_polled_tx+0x3e>
2000072a:	f247 7320 	movw	r3, #30496	; 0x7720
2000072e:	f2c2 0300 	movt	r3, #8192	; 0x2000
20000732:	4298      	cmp	r0, r3
20000734:	d133      	bne.n	2000079e <MSS_UART_polled_tx+0xa6>
20000736:	1e13      	subs	r3, r2, #0
20000738:	bf18      	it	ne
2000073a:	2301      	movne	r3, #1
2000073c:	2900      	cmp	r1, #0
2000073e:	bf0c      	ite	eq
20000740:	2300      	moveq	r3, #0
20000742:	f003 0301 	andne.w	r3, r3, #1
20000746:	2b00      	cmp	r3, #0
20000748:	d029      	beq.n	2000079e <MSS_UART_polled_tx+0xa6>
2000074a:	f04f 0700 	mov.w	r7, #0
                {
                    fill_size = tx_size;
                }

                /* Fill the TX FIFO with the calculated the number of bytes. */
                for ( size_sent = 0U; size_sent < fill_size; ++size_sent )
2000074e:	46b8      	mov	r8, r7
            if( status & MSS_UART_THRE )
            {
                uint32_t fill_size = TX_FIFO_SIZE;

                /* Calculate the number of bytes to transmit. */
                if ( tx_size < TX_FIFO_SIZE )
20000750:	f04f 0a10 	mov.w	sl, #16
         /* Remain in this loop until the entire input buffer
          * has been transferred to the UART.
          */
        do {
            /* Read the Line Status Register and update the sticky record */
            status = this_uart->hw_reg->LSR;
20000754:	6803      	ldr	r3, [r0, #0]
20000756:	7d1b      	ldrb	r3, [r3, #20]
            this_uart->status |= status;
20000758:	f890 c00a 	ldrb.w	ip, [r0, #10]
2000075c:	ea43 0c0c 	orr.w	ip, r3, ip
20000760:	f880 c00a 	strb.w	ip, [r0, #10]

            /* Check if TX FIFO is empty. */
            if( status & MSS_UART_THRE )
20000764:	f013 0f20 	tst.w	r3, #32
20000768:	d017      	beq.n	2000079a <MSS_UART_polled_tx+0xa2>
            {
                uint32_t fill_size = TX_FIFO_SIZE;

                /* Calculate the number of bytes to transmit. */
                if ( tx_size < TX_FIFO_SIZE )
2000076a:	2a0f      	cmp	r2, #15
2000076c:	d904      	bls.n	20000778 <MSS_UART_polled_tx+0x80>
2000076e:	4656      	mov	r6, sl
20000770:	46bc      	mov	ip, r7
20000772:	4643      	mov	r3, r8

                /* Fill the TX FIFO with the calculated the number of bytes. */
                for ( size_sent = 0U; size_sent < fill_size; ++size_sent )
                {
                    /* Send next character in the buffer. */
                    this_uart->hw_reg->THR = pbuff[char_idx++];
20000774:	440f      	add	r7, r1
20000776:	e004      	b.n	20000782 <MSS_UART_polled_tx+0x8a>
                {
                    fill_size = tx_size;
                }

                /* Fill the TX FIFO with the calculated the number of bytes. */
                for ( size_sent = 0U; size_sent < fill_size; ++size_sent )
20000778:	b90a      	cbnz	r2, 2000077e <MSS_UART_polled_tx+0x86>
2000077a:	4643      	mov	r3, r8
2000077c:	e00b      	b.n	20000796 <MSS_UART_polled_tx+0x9e>
2000077e:	4616      	mov	r6, r2
20000780:	e7f6      	b.n	20000770 <MSS_UART_polled_tx+0x78>
                {
                    /* Send next character in the buffer. */
                    this_uart->hw_reg->THR = pbuff[char_idx++];
20000782:	6804      	ldr	r4, [r0, #0]
20000784:	5cfd      	ldrb	r5, [r7, r3]
20000786:	7025      	strb	r5, [r4, #0]
20000788:	f10c 0c01 	add.w	ip, ip, #1
                {
                    fill_size = tx_size;
                }

                /* Fill the TX FIFO with the calculated the number of bytes. */
                for ( size_sent = 0U; size_sent < fill_size; ++size_sent )
2000078c:	f103 0301 	add.w	r3, r3, #1
20000790:	429e      	cmp	r6, r3
20000792:	d8f6      	bhi.n	20000782 <MSS_UART_polled_tx+0x8a>
20000794:	4667      	mov	r7, ip
                    /* Send next character in the buffer. */
                    this_uart->hw_reg->THR = pbuff[char_idx++];
                }

                /* Calculate the number of untransmitted bytes remaining. */
                tx_size -= size_sent;
20000796:	ebc3 0202 	rsb	r2, r3, r2
            }
        }while( tx_size );
2000079a:	2a00      	cmp	r2, #0
2000079c:	d1da      	bne.n	20000754 <MSS_UART_polled_tx+0x5c>
    }
}
2000079e:	e8bd 05f0 	ldmia.w	sp!, {r4, r5, r6, r7, r8, sl}
200007a2:	4770      	bx	lr

200007a4 <MSS_UART_isr>:
static void
MSS_UART_isr
(
    mss_uart_instance_t * this_uart
)
{
200007a4:	b508      	push	{r3, lr}
    uint8_t iirf;

    ASSERT( (this_uart == &g_mss_uart0) || (this_uart == &g_mss_uart1) );
200007a6:	f247 7348 	movw	r3, #30536	; 0x7748
200007aa:	f2c2 0300 	movt	r3, #8192	; 0x2000
200007ae:	4298      	cmp	r0, r3
200007b0:	d007      	beq.n	200007c2 <MSS_UART_isr+0x1e>
200007b2:	f247 7320 	movw	r3, #30496	; 0x7720
200007b6:	f2c2 0300 	movt	r3, #8192	; 0x2000
200007ba:	4298      	cmp	r0, r3
200007bc:	d001      	beq.n	200007c2 <MSS_UART_isr+0x1e>
200007be:	be00      	bkpt	0x0000
200007c0:	bd08      	pop	{r3, pc}

    if ( (this_uart == &g_mss_uart0) || (this_uart == &g_mss_uart1) )
    {
        iirf = this_uart->hw_reg->IIR & IIRF_MASK;
200007c2:	6803      	ldr	r3, [r0, #0]
200007c4:	7a1b      	ldrb	r3, [r3, #8]

        switch ( iirf )
200007c6:	f003 030f 	and.w	r3, r3, #15
200007ca:	2b0c      	cmp	r3, #12
200007cc:	d820      	bhi.n	20000810 <MSS_UART_isr+0x6c>
200007ce:	e8df f003 	tbb	[pc, r3]
200007d2:	1f07      	.short	0x1f07
200007d4:	1f131f0d 	.word	0x1f131f0d
200007d8:	1f1f1f19 	.word	0x1f1f1f19
200007dc:	1f1f      	.short	0x1f1f
200007de:	13          	.byte	0x13
200007df:	00          	.byte	0x00
        {
            case IIRF_MODEM_STATUS:  /* Modem status interrupt */
            {
                ASSERT( NULL_HANDLER != this_uart->modemsts_handler );
200007e0:	6a43      	ldr	r3, [r0, #36]	; 0x24
200007e2:	b90b      	cbnz	r3, 200007e8 <MSS_UART_isr+0x44>
200007e4:	be00      	bkpt	0x0000
200007e6:	bd08      	pop	{r3, pc}
                if( NULL_HANDLER != this_uart->modemsts_handler )
                {
                   (*(this_uart->modemsts_handler))( this_uart );
200007e8:	4798      	blx	r3
200007ea:	bd08      	pop	{r3, pc}
            }
            break;

            case IIRF_THRE: /* Transmitter Holding Register Empty */
            {
                ASSERT( NULL_HANDLER != this_uart->tx_handler );
200007ec:	6a03      	ldr	r3, [r0, #32]
200007ee:	b90b      	cbnz	r3, 200007f4 <MSS_UART_isr+0x50>
200007f0:	be00      	bkpt	0x0000
200007f2:	bd08      	pop	{r3, pc}
                if ( NULL_HANDLER != this_uart->tx_handler )
                {
                    (*(this_uart->tx_handler))( this_uart );
200007f4:	4798      	blx	r3
200007f6:	bd08      	pop	{r3, pc}
            break;

            case IIRF_RX_DATA:      /* Received Data Available */
            case IIRF_DATA_TIMEOUT: /* Received Data Timed-out */
            {
                ASSERT( NULL_HANDLER != this_uart->rx_handler );
200007f8:	69c3      	ldr	r3, [r0, #28]
200007fa:	b90b      	cbnz	r3, 20000800 <MSS_UART_isr+0x5c>
200007fc:	be00      	bkpt	0x0000
200007fe:	bd08      	pop	{r3, pc}
                if ( NULL_HANDLER != this_uart->rx_handler )
                {
                    (*(this_uart->rx_handler))( this_uart );
20000800:	4798      	blx	r3
20000802:	bd08      	pop	{r3, pc}
            }
            break;

            case IIRF_RX_LINE_STATUS:  /* Line Status Interrupt */
            {
                ASSERT( NULL_HANDLER != this_uart->linests_handler );
20000804:	6983      	ldr	r3, [r0, #24]
20000806:	b90b      	cbnz	r3, 2000080c <MSS_UART_isr+0x68>
20000808:	be00      	bkpt	0x0000
2000080a:	bd08      	pop	{r3, pc}
                if ( NULL_HANDLER != this_uart->linests_handler )
                {
                   (*(this_uart->linests_handler))( this_uart );
2000080c:	4798      	blx	r3
2000080e:	bd08      	pop	{r3, pc}
            }
            break;

            default:
            {
                ASSERT( INVALID_INTERRUPT );
20000810:	be00      	bkpt	0x0000
20000812:	bd08      	pop	{r3, pc}

20000814 <default_tx_handler>:
static void
default_tx_handler
(
    mss_uart_instance_t * this_uart
)
{
20000814:	b410      	push	{r4}
    uint8_t status;

    ASSERT( (this_uart == &g_mss_uart0) || (this_uart == &g_mss_uart1) );
20000816:	f247 7348 	movw	r3, #30536	; 0x7748
2000081a:	f2c2 0300 	movt	r3, #8192	; 0x2000
2000081e:	4298      	cmp	r0, r3
20000820:	d006      	beq.n	20000830 <default_tx_handler+0x1c>
20000822:	f247 7320 	movw	r3, #30496	; 0x7720
20000826:	f2c2 0300 	movt	r3, #8192	; 0x2000
2000082a:	4298      	cmp	r0, r3
2000082c:	d000      	beq.n	20000830 <default_tx_handler+0x1c>
2000082e:	be00      	bkpt	0x0000
    ASSERT( ( (uint8_t *)0 ) != this_uart->tx_buffer );
20000830:	68c2      	ldr	r2, [r0, #12]
20000832:	b902      	cbnz	r2, 20000836 <default_tx_handler+0x22>
20000834:	be00      	bkpt	0x0000
    ASSERT( 0U < this_uart->tx_buff_size );
20000836:	6901      	ldr	r1, [r0, #16]
20000838:	b901      	cbnz	r1, 2000083c <default_tx_handler+0x28>
2000083a:	be00      	bkpt	0x0000

    if( ( (this_uart == &g_mss_uart0) || (this_uart == &g_mss_uart1) ) &&
2000083c:	f247 7348 	movw	r3, #30536	; 0x7748
20000840:	f2c2 0300 	movt	r3, #8192	; 0x2000
20000844:	4298      	cmp	r0, r3
20000846:	d005      	beq.n	20000854 <default_tx_handler+0x40>
20000848:	f247 7320 	movw	r3, #30496	; 0x7720
2000084c:	f2c2 0300 	movt	r3, #8192	; 0x2000
20000850:	4298      	cmp	r0, r3
20000852:	d130      	bne.n	200008b6 <default_tx_handler+0xa2>
20000854:	2a00      	cmp	r2, #0
20000856:	d02e      	beq.n	200008b6 <default_tx_handler+0xa2>
20000858:	2900      	cmp	r1, #0
2000085a:	d02c      	beq.n	200008b6 <default_tx_handler+0xa2>
        ( ( (uint8_t *)0 ) != this_uart->tx_buffer ) &&
        ( 0U < this_uart->tx_buff_size ) )
    {
        /* Read the Line Status Register and update the sticky record. */
        status = this_uart->hw_reg->LSR;
2000085c:	6803      	ldr	r3, [r0, #0]
2000085e:	7d1b      	ldrb	r3, [r3, #20]
        this_uart->status |= status;
20000860:	7a82      	ldrb	r2, [r0, #10]
20000862:	ea43 0202 	orr.w	r2, r3, r2
20000866:	7282      	strb	r2, [r0, #10]

        /*
         * This function should only be called as a result of a THRE interrupt.
         * Verify that this is true before proceeding to transmit data.
         */
        if ( status & MSS_UART_THRE )
20000868:	f013 0f20 	tst.w	r3, #32
2000086c:	d01a      	beq.n	200008a4 <default_tx_handler+0x90>
        {
            uint32_t i;
            uint32_t fill_size = TX_FIFO_SIZE;
            uint32_t tx_remain = this_uart->tx_buff_size - this_uart->tx_idx;
2000086e:	6902      	ldr	r2, [r0, #16]
20000870:	6943      	ldr	r3, [r0, #20]
20000872:	ebc3 0302 	rsb	r3, r3, r2

            /* Calculate the number of bytes to transmit. */
            if ( tx_remain < TX_FIFO_SIZE )
20000876:	2b0f      	cmp	r3, #15
20000878:	d904      	bls.n	20000884 <default_tx_handler+0x70>
2000087a:	f04f 0c10 	mov.w	ip, #16
2000087e:	f04f 0300 	mov.w	r3, #0
20000882:	e002      	b.n	2000088a <default_tx_handler+0x76>
            {
                fill_size = tx_remain;
            }

            /* Fill the TX FIFO with the calculated the number of bytes. */
            for ( i = 0U; i < fill_size; ++i )
20000884:	b173      	cbz	r3, 200008a4 <default_tx_handler+0x90>
20000886:	469c      	mov	ip, r3
20000888:	e7f9      	b.n	2000087e <default_tx_handler+0x6a>
            {
                /* Send next character in the buffer. */
                this_uart->hw_reg->THR = this_uart->tx_buffer[this_uart->tx_idx];
2000088a:	6802      	ldr	r2, [r0, #0]
2000088c:	68c4      	ldr	r4, [r0, #12]
2000088e:	6941      	ldr	r1, [r0, #20]
20000890:	5c61      	ldrb	r1, [r4, r1]
20000892:	7011      	strb	r1, [r2, #0]
                ++this_uart->tx_idx;
20000894:	6942      	ldr	r2, [r0, #20]
20000896:	f102 0201 	add.w	r2, r2, #1
2000089a:	6142      	str	r2, [r0, #20]
            {
                fill_size = tx_remain;
            }

            /* Fill the TX FIFO with the calculated the number of bytes. */
            for ( i = 0U; i < fill_size; ++i )
2000089c:	f103 0301 	add.w	r3, r3, #1
200008a0:	4563      	cmp	r3, ip
200008a2:	d3f2      	bcc.n	2000088a <default_tx_handler+0x76>
                ++this_uart->tx_idx;
            }
        }

        /* Flag Tx as complete if all data has been pushed into the Tx FIFO. */
        if ( this_uart->tx_idx == this_uart->tx_buff_size )
200008a4:	6942      	ldr	r2, [r0, #20]
200008a6:	6903      	ldr	r3, [r0, #16]
200008a8:	429a      	cmp	r2, r3
        {
            this_uart->tx_buff_size = TX_COMPLETE;
200008aa:	bf01      	itttt	eq
200008ac:	2300      	moveq	r3, #0
200008ae:	6103      	streq	r3, [r0, #16]
            /* disables TX interrupt */
            this_uart->hw_reg_bit->IER_ETBEI = 0U;
200008b0:	6842      	ldreq	r2, [r0, #4]
200008b2:	f8c2 3084 	streq.w	r3, [r2, #132]	; 0x84
        }
    }
}
200008b6:	bc10      	pop	{r4}
200008b8:	4770      	bx	lr
200008ba:	bf00      	nop

200008bc <UART0_IRQHandler>:
#if defined(__GNUC__)
__attribute__((__interrupt__)) void UART0_IRQHandler( void )
#else
void UART0_IRQHandler( void )
#endif
{
200008bc:	4668      	mov	r0, sp
200008be:	f020 0107 	bic.w	r1, r0, #7
200008c2:	468d      	mov	sp, r1
200008c4:	b501      	push	{r0, lr}
    MSS_UART_isr( &g_mss_uart0 );
200008c6:	f247 7048 	movw	r0, #30536	; 0x7748
200008ca:	f2c2 0000 	movt	r0, #8192	; 0x2000
200008ce:	f7ff ff69 	bl	200007a4 <MSS_UART_isr>
 * Clear the pending bit for the specified interrupt. 
 * The interrupt number cannot be a negative value.
 */
static __INLINE void NVIC_ClearPendingIRQ(IRQn_Type IRQn)
{
  NVIC->ICPR[((uint32_t)(IRQn) >> 5)] = (1 << ((uint32_t)(IRQn) & 0x1F)); /* Clear pending interrupt */
200008d2:	f24e 1300 	movw	r3, #57600	; 0xe100
200008d6:	f2ce 0300 	movt	r3, #57344	; 0xe000
200008da:	f44f 6280 	mov.w	r2, #1024	; 0x400
200008de:	f8c3 2180 	str.w	r2, [r3, #384]	; 0x180
    NVIC_ClearPendingIRQ( UART0_IRQn );
}
200008e2:	e8bd 4001 	ldmia.w	sp!, {r0, lr}
200008e6:	4685      	mov	sp, r0
200008e8:	4770      	bx	lr
200008ea:	bf00      	nop

200008ec <UART1_IRQHandler>:
#if defined(__GNUC__)
__attribute__((__interrupt__)) void UART1_IRQHandler( void )
#else
void UART1_IRQHandler( void )
#endif
{
200008ec:	4668      	mov	r0, sp
200008ee:	f020 0107 	bic.w	r1, r0, #7
200008f2:	468d      	mov	sp, r1
200008f4:	b501      	push	{r0, lr}
    MSS_UART_isr( &g_mss_uart1 );
200008f6:	f247 7020 	movw	r0, #30496	; 0x7720
200008fa:	f2c2 0000 	movt	r0, #8192	; 0x2000
200008fe:	f7ff ff51 	bl	200007a4 <MSS_UART_isr>
20000902:	f24e 1300 	movw	r3, #57600	; 0xe100
20000906:	f2ce 0300 	movt	r3, #57344	; 0xe000
2000090a:	f44f 6200 	mov.w	r2, #2048	; 0x800
2000090e:	f8c3 2180 	str.w	r2, [r3, #384]	; 0x180
    NVIC_ClearPendingIRQ( UART1_IRQn );
}
20000912:	e8bd 4001 	ldmia.w	sp!, {r0, lr}
20000916:	4685      	mov	sp, r0
20000918:	4770      	bx	lr
2000091a:	bf00      	nop

2000091c <MSS_UART_init>:
(
    mss_uart_instance_t* this_uart,
    uint32_t baud_rate,
    uint8_t line_config
)
{
2000091c:	b570      	push	{r4, r5, r6, lr}
2000091e:	4604      	mov	r4, r0
20000920:	460d      	mov	r5, r1
20000922:	4616      	mov	r6, r2
    uint32_t pclk_freq = 0U;
    uint32_t baud_value_l;

    /* The driver expects g_mss_uart0 and g_mss_uart1 to be the only
     * mss_uart_instance_t instances used to identify UART0 and UART1. */
    ASSERT( (this_uart == &g_mss_uart0) || (this_uart == &g_mss_uart1) );
20000924:	f247 7348 	movw	r3, #30536	; 0x7748
20000928:	f2c2 0300 	movt	r3, #8192	; 0x2000
2000092c:	4298      	cmp	r0, r3
2000092e:	d006      	beq.n	2000093e <MSS_UART_init+0x22>
20000930:	f247 7320 	movw	r3, #30496	; 0x7720
20000934:	f2c2 0300 	movt	r3, #8192	; 0x2000
20000938:	4298      	cmp	r0, r3
2000093a:	d000      	beq.n	2000093e <MSS_UART_init+0x22>
2000093c:	be00      	bkpt	0x0000

    /* baud_rate should be greater than 0 */
    ASSERT( 0U < baud_rate );
2000093e:	b905      	cbnz	r5, 20000942 <MSS_UART_init+0x26>
20000940:	be00      	bkpt	0x0000

    /* Force the value of the CMSIS global variables holding the various system
     * clock frequencies to be updated. */
    SystemCoreClockUpdate();
20000942:	f000 f895 	bl	20000a70 <SystemCoreClockUpdate>

    if ( this_uart == &g_mss_uart0 )
20000946:	f247 7348 	movw	r3, #30536	; 0x7748
2000094a:	f2c2 0300 	movt	r3, #8192	; 0x2000
2000094e:	429c      	cmp	r4, r3
20000950:	d126      	bne.n	200009a0 <MSS_UART_init+0x84>
    {
        this_uart->hw_reg = UART0;
20000952:	f247 7348 	movw	r3, #30536	; 0x7748
20000956:	f2c2 0300 	movt	r3, #8192	; 0x2000
2000095a:	f04f 4280 	mov.w	r2, #1073741824	; 0x40000000
2000095e:	601a      	str	r2, [r3, #0]
        this_uart->hw_reg_bit = UART0_BITBAND;
20000960:	f04f 4284 	mov.w	r2, #1107296256	; 0x42000000
20000964:	605a      	str	r2, [r3, #4]
        this_uart->irqn = UART0_IRQn;
20000966:	f04f 020a 	mov.w	r2, #10
2000096a:	811a      	strh	r2, [r3, #8]

        pclk_freq = g_FrequencyPCLK0;
2000096c:	f247 13cc 	movw	r3, #29132	; 0x71cc
20000970:	f2c2 0300 	movt	r3, #8192	; 0x2000
20000974:	6818      	ldr	r0, [r3, #0]

        /* reset UART0 */
        SYSREG->SOFT_RST_CR |= SYSREG_UART0_SOFTRESET_MASK;
20000976:	f242 0300 	movw	r3, #8192	; 0x2000
2000097a:	f2ce 0304 	movt	r3, #57348	; 0xe004
2000097e:	6b1a      	ldr	r2, [r3, #48]	; 0x30
20000980:	f042 0280 	orr.w	r2, r2, #128	; 0x80
20000984:	631a      	str	r2, [r3, #48]	; 0x30
20000986:	f24e 1200 	movw	r2, #57600	; 0xe100
2000098a:	f2ce 0200 	movt	r2, #57344	; 0xe000
2000098e:	f44f 6180 	mov.w	r1, #1024	; 0x400
20000992:	f8c2 1180 	str.w	r1, [r2, #384]	; 0x180
        /* Clear any previously pended UART0 interrupt */
        NVIC_ClearPendingIRQ( UART0_IRQn );
        /* Take UART0 out of reset. */
        SYSREG->SOFT_RST_CR &= ~SYSREG_UART0_SOFTRESET_MASK;
20000996:	6b1a      	ldr	r2, [r3, #48]	; 0x30
20000998:	f022 0280 	bic.w	r2, r2, #128	; 0x80
2000099c:	631a      	str	r2, [r3, #48]	; 0x30
2000099e:	e025      	b.n	200009ec <MSS_UART_init+0xd0>
    }
    else
    {
        this_uart->hw_reg = UART1;
200009a0:	f240 0300 	movw	r3, #0
200009a4:	f2c4 0301 	movt	r3, #16385	; 0x4001
200009a8:	6023      	str	r3, [r4, #0]
        this_uart->hw_reg_bit = UART1_BITBAND;
200009aa:	f240 0300 	movw	r3, #0
200009ae:	f2c4 2320 	movt	r3, #16928	; 0x4220
200009b2:	6063      	str	r3, [r4, #4]
        this_uart->irqn = UART1_IRQn;
200009b4:	f04f 030b 	mov.w	r3, #11
200009b8:	8123      	strh	r3, [r4, #8]

        pclk_freq = g_FrequencyPCLK1;
200009ba:	f247 13d0 	movw	r3, #29136	; 0x71d0
200009be:	f2c2 0300 	movt	r3, #8192	; 0x2000
200009c2:	6818      	ldr	r0, [r3, #0]

        /* Reset UART1 */
        SYSREG->SOFT_RST_CR |= SYSREG_UART1_SOFTRESET_MASK;
200009c4:	f242 0300 	movw	r3, #8192	; 0x2000
200009c8:	f2ce 0304 	movt	r3, #57348	; 0xe004
200009cc:	6b1a      	ldr	r2, [r3, #48]	; 0x30
200009ce:	f442 7280 	orr.w	r2, r2, #256	; 0x100
200009d2:	631a      	str	r2, [r3, #48]	; 0x30
200009d4:	f24e 1200 	movw	r2, #57600	; 0xe100
200009d8:	f2ce 0200 	movt	r2, #57344	; 0xe000
200009dc:	f44f 6100 	mov.w	r1, #2048	; 0x800
200009e0:	f8c2 1180 	str.w	r1, [r2, #384]	; 0x180
        /* Clear any previously pended UART1 interrupt */
        NVIC_ClearPendingIRQ( UART1_IRQn );
        /* Take UART1 out of reset. */
        SYSREG->SOFT_RST_CR &= ~SYSREG_UART1_SOFTRESET_MASK;
200009e4:	6b1a      	ldr	r2, [r3, #48]	; 0x30
200009e6:	f422 7280 	bic.w	r2, r2, #256	; 0x100
200009ea:	631a      	str	r2, [r3, #48]	; 0x30
    }

    /* disable interrupts */
    this_uart->hw_reg->IER = 0U;
200009ec:	6823      	ldr	r3, [r4, #0]
200009ee:	f04f 0200 	mov.w	r2, #0
200009f2:	711a      	strb	r2, [r3, #4]
     * The baud value is computed using the following equation:
     *      baud_value_l = PCLK_Frequency / (baud_rate * 16)
     * The baud value is rounded up or down depending on what would be the remainder
     * of the divide by 16 operation.
     */
    if( 0U < baud_rate )
200009f4:	b915      	cbnz	r5, 200009fc <MSS_UART_init+0xe0>
200009f6:	f04f 0501 	mov.w	r5, #1
200009fa:	e00f      	b.n	20000a1c <MSS_UART_init+0x100>
    {
        baud_value_l = (uint32_t)(pclk_freq / baud_rate);
200009fc:	fbb0 f5f5 	udiv	r5, r0, r5
        if( baud_value_l & 0x00000008U )
20000a00:	f015 0f08 	tst.w	r5, #8
        {
            /* remainder above 0.5 */
            baud_value_l = (baud_value_l >> 4U) + 1U;        
20000a04:	ea4f 1515 	mov.w	r5, r5, lsr #4
20000a08:	bf18      	it	ne
20000a0a:	3501      	addne	r5, #1
            /* remainder below 0.5 */
            baud_value_l = (baud_value_l >> 4U);
        }
    
        /* Check if the baud rate is supported by the PCLK */
        ASSERT( baud_value_l <= UINT16_MAX);
20000a0c:	f5b5 3f80 	cmp.w	r5, #65536	; 0x10000
        if( baud_value_l <= (uint32_t)UINT16_MAX)
        {
            baud_value = (uint16_t)baud_value_l;
20000a10:	bf38      	it	cc
20000a12:	b2ad      	uxthcc	r5, r5
            /* remainder below 0.5 */
            baud_value_l = (baud_value_l >> 4U);
        }
    
        /* Check if the baud rate is supported by the PCLK */
        ASSERT( baud_value_l <= UINT16_MAX);
20000a14:	d302      	bcc.n	20000a1c <MSS_UART_init+0x100>
20000a16:	be00      	bkpt	0x0000
20000a18:	f04f 0501 	mov.w	r5, #1
            baud_value = (uint16_t)baud_value_l;
        }
    }
    
    /* set divisor latch */
    this_uart->hw_reg_bit->LCR_DLAB = (uint32_t)1;
20000a1c:	6863      	ldr	r3, [r4, #4]
20000a1e:	f04f 0201 	mov.w	r2, #1
20000a22:	f8c3 219c 	str.w	r2, [r3, #412]	; 0x19c

    /* msb of baud value */
    this_uart->hw_reg->DMR = (uint8_t)(baud_value >> 8);
20000a26:	6823      	ldr	r3, [r4, #0]
20000a28:	ea4f 2215 	mov.w	r2, r5, lsr #8
20000a2c:	711a      	strb	r2, [r3, #4]
    /* lsb of baud value */
    this_uart->hw_reg->DLR = (uint8_t)baud_value;
20000a2e:	6823      	ldr	r3, [r4, #0]
20000a30:	b2ed      	uxtb	r5, r5
20000a32:	701d      	strb	r5, [r3, #0]

    /* reset divisor latch */
    this_uart->hw_reg_bit->LCR_DLAB = (uint32_t)0;
20000a34:	6862      	ldr	r2, [r4, #4]
20000a36:	f04f 0300 	mov.w	r3, #0
20000a3a:	f8c2 319c 	str.w	r3, [r2, #412]	; 0x19c

    /* set the line control register (bit length, stop bits, parity) */
    this_uart->hw_reg->LCR = line_config;
20000a3e:	6822      	ldr	r2, [r4, #0]
20000a40:	7316      	strb	r6, [r2, #12]

    /* FIFO configuration */
    /* RX FIFO length = 1 byte, clear receiver FIFO, 
       clear transmitter FIFO, enable RXRDYN and TXRDYN pins. */
    this_uart->hw_reg->FCR = (uint8_t)MSS_UART_FIFO_SINGLE_BYTE | 
20000a42:	6822      	ldr	r2, [r4, #0]
20000a44:	f04f 010e 	mov.w	r1, #14
20000a48:	7211      	strb	r1, [r2, #8]
                              FCR_CLEAR_RX_FIFO_MASK | FCR_CLEAR_TX_FIFO_MASK | 
                              FCR_ENABLE_TXRDY_RXRDY_MASK;
    /* disable loopback */
    this_uart->hw_reg_bit->MCR_LOOP = (uint32_t)0;
20000a4a:	6862      	ldr	r2, [r4, #4]
20000a4c:	f8c2 3210 	str.w	r3, [r2, #528]	; 0x210

    /* Instance setup */
    this_uart->tx_buff_size = TX_COMPLETE;
20000a50:	6123      	str	r3, [r4, #16]
    this_uart->tx_buffer = (const uint8_t *)0;
20000a52:	60e3      	str	r3, [r4, #12]
    this_uart->tx_idx = 0U;
20000a54:	6163      	str	r3, [r4, #20]

    /* Default handlers for MSS UART interrupts */
    this_uart->rx_handler       = NULL_HANDLER;
20000a56:	61e3      	str	r3, [r4, #28]
    this_uart->tx_handler       = default_tx_handler;
20000a58:	f640 0215 	movw	r2, #2069	; 0x815
20000a5c:	f2c2 0200 	movt	r2, #8192	; 0x2000
20000a60:	6222      	str	r2, [r4, #32]
    this_uart->linests_handler  = NULL_HANDLER;
20000a62:	61a3      	str	r3, [r4, #24]
    this_uart->modemsts_handler = NULL_HANDLER;
20000a64:	6263      	str	r3, [r4, #36]	; 0x24

    /* Initialize the sticky status */
    this_uart->status = 0U;
20000a66:	72a3      	strb	r3, [r4, #10]
}
20000a68:	bd70      	pop	{r4, r5, r6, pc}
20000a6a:	bf00      	nop

20000a6c <SystemInit>:
    /*
     * Do not make use of global variables or make any asumptions regarding
     * memory content if modifying this function. The memory content has not been
     * initialised by the time this function is called by the start-up code.
     */
}
20000a6c:	4770      	bx	lr
20000a6e:	bf00      	nop

20000a70 <SystemCoreClockUpdate>:

/***************************************************************************//**
 *
 */
void SystemCoreClockUpdate (void)
{
20000a70:	b430      	push	{r4, r5}
20000a72:	b084      	sub	sp, #16
    uint32_t PclkDiv0;
    uint32_t PclkDiv1;
    uint32_t AceDiv;
    uint32_t FabDiv;

    const uint32_t pclk_div_lut[4] = { 1uL, 2uL, 4uL, 1uL };
20000a74:	f646 7340 	movw	r3, #28480	; 0x6f40
20000a78:	f2c2 0300 	movt	r3, #8192	; 0x2000
20000a7c:	46ec      	mov	ip, sp
20000a7e:	cb0f      	ldmia	r3!, {r0, r1, r2, r3}
20000a80:	e88c 000f 	stmia.w	ip, {r0, r1, r2, r3}

    /* Read PCLK dividers from system registers. Multiply the value read from
     * system register by two to get actual divider value. */
    PclkDiv0 = pclk_div_lut[((SYSREG->MSS_CLK_CR >> PCLK0_DIV_SHIFT) & PCLK_DIV_MASK)];
20000a84:	f242 0300 	movw	r3, #8192	; 0x2000
20000a88:	f2ce 0304 	movt	r3, #57348	; 0xe004
20000a8c:	6c9a      	ldr	r2, [r3, #72]	; 0x48
20000a8e:	f002 020c 	and.w	r2, r2, #12
20000a92:	a904      	add	r1, sp, #16
20000a94:	440a      	add	r2, r1
20000a96:	f852 5c10 	ldr.w	r5, [r2, #-16]
    PclkDiv1 = pclk_div_lut[((SYSREG->MSS_CLK_CR >> PCLK1_DIV_SHIFT) & PCLK_DIV_MASK)];
20000a9a:	6c9a      	ldr	r2, [r3, #72]	; 0x48
20000a9c:	f3c2 1201 	ubfx	r2, r2, #4, #2
20000aa0:	eb01 0282 	add.w	r2, r1, r2, lsl #2
20000aa4:	f852 4c10 	ldr.w	r4, [r2, #-16]
    AceDiv = pclk_div_lut[((SYSREG->MSS_CLK_CR >> ACE_DIV_SHIFT) & PCLK_DIV_MASK)];
20000aa8:	6c9a      	ldr	r2, [r3, #72]	; 0x48
20000aaa:	f3c2 1281 	ubfx	r2, r2, #6, #2
20000aae:	eb01 0282 	add.w	r2, r1, r2, lsl #2
20000ab2:	f852 0c10 	ldr.w	r0, [r2, #-16]
    {
        /* Compute the FPGA fabric frequency divider. */
        uint32_t obdiv;
        uint32_t obdivhalf;
        
        obdiv = (SYSREG->MSS_CCC_DIV_CR >> OBDIV_SHIFT) & OBDIV_MASK;
20000ab6:	6cd9      	ldr	r1, [r3, #76]	; 0x4c
        obdivhalf = (SYSREG->MSS_CCC_DIV_CR >> OBDIVHALF_SHIFT) & OBDIVHALF_MASK;
20000ab8:	6cdb      	ldr	r3, [r3, #76]	; 0x4c
        FabDiv = obdiv + 1uL;
20000aba:	f3c1 2104 	ubfx	r1, r1, #8, #5
20000abe:	f101 0101 	add.w	r1, r1, #1
        if ( obdivhalf != 0uL )
20000ac2:	f413 5f00 	tst.w	r3, #8192	; 0x2000
        {
            FabDiv = FabDiv * 2uL;
20000ac6:	bf18      	it	ne
20000ac8:	0049      	lslne	r1, r1, #1
    
    uint32_t * p_sysboot_key = SYSBOOT_KEY_ADDR;
    uint32_t * p_idcode = IDCODE_LOCATION;
    uint32_t idcode;
	
    idcode = *p_idcode & ~IDCODE_DEV_REV_MASK;
20000aca:	f240 2330 	movw	r3, #560	; 0x230
20000ace:	f2c6 0308 	movt	r3, #24584	; 0x6008
20000ad2:	681a      	ldr	r2, [r3, #0]
	
    if ( A2F060IFX_ID == idcode )
20000ad4:	f022 4270 	bic.w	r2, r2, #4026531840	; 0xf0000000
20000ad8:	f241 13cf 	movw	r3, #4559	; 0x11cf
20000adc:	f2c0 53a1 	movt	r3, #1441	; 0x5a1
20000ae0:	429a      	cmp	r2, r3
20000ae2:	d105      	bne.n	20000af0 <SystemCoreClockUpdate+0x80>
    {
        uint32_t *p_fclk = SYSBOOT_A2F060_FCLK_ADDR;
        fclk = *p_fclk;
20000ae4:	f64e 732c 	movw	r3, #61228	; 0xef2c
20000ae8:	f2c6 0301 	movt	r3, #24577	; 0x6001
20000aec:	681b      	ldr	r3, [r3, #0]
20000aee:	e028      	b.n	20000b42 <SystemCoreClockUpdate+0xd2>
    }
    else if ( SYSBOOT_KEY_VALUE == *p_sysboot_key )
20000af0:	f640 031c 	movw	r3, #2076	; 0x81c
20000af4:	f2c6 0308 	movt	r3, #24584	; 0x6008
20000af8:	681a      	ldr	r2, [r3, #0]
20000afa:	f244 3341 	movw	r3, #17217	; 0x4341
20000afe:	f6c4 4354 	movt	r3, #19540	; 0x4c54
20000b02:	429a      	cmp	r2, r3
20000b04:	d11e      	bne.n	20000b44 <SystemCoreClockUpdate+0xd4>
    {
        /* Actel system boot programmed, check if it has the FCLK value stored. */
        uint32_t *p_sysboot_version = SYSBOOT_VERSION_ADDR;
        uint32_t sysboot_version = *p_sysboot_version;
20000b06:	f640 0340 	movw	r3, #2112	; 0x840
20000b0a:	f2c6 0308 	movt	r3, #24584	; 0x6008
20000b0e:	681a      	ldr	r2, [r3, #0]
        
        sysboot_version &= SYSBOOT_VERSION_MASK;
20000b10:	f022 427f 	bic.w	r2, r2, #4278190080	; 0xff000000
        
        if ( sysboot_version >= MIN_SYSBOOT_VERSION )
20000b14:	f240 3300 	movw	r3, #768	; 0x300
20000b18:	f2c0 0301 	movt	r3, #1
20000b1c:	429a      	cmp	r2, r3
20000b1e:	d911      	bls.n	20000b44 <SystemCoreClockUpdate+0xd4>
        {
            /* Handle change of eNVM location of FCLK between 1.3.x and 2.x.x versions of the system boot. */
            if ( sysboot_version < SYSBOOT_VERSION_2_X )
20000b20:	f5b2 3f00 	cmp.w	r2, #131072	; 0x20000
20000b24:	d205      	bcs.n	20000b32 <SystemCoreClockUpdate+0xc2>
            {
                /* Read FCLK value from MSS configurator generated configuration
                 * data stored in eNVM spare pages as part of system boot version 1.3.x
                 * configuration tables. */
                uint32_t *p_fclk = SYSBOOT_1_3_FCLK_ADDR;
                fclk = *p_fclk;
20000b26:	f241 632c 	movw	r3, #5676	; 0x162c
20000b2a:	f2c6 0308 	movt	r3, #24584	; 0x6008
20000b2e:	681b      	ldr	r3, [r3, #0]
20000b30:	e007      	b.n	20000b42 <SystemCoreClockUpdate+0xd2>
            }
            else if ( sysboot_version < MAX_SYSBOOT_VERSION )
20000b32:	f5b2 3f40 	cmp.w	r2, #196608	; 0x30000
20000b36:	d205      	bcs.n	20000b44 <SystemCoreClockUpdate+0xd4>
            {
                /* Read FCLK value from MSS configurator generated configuration
                 * data stored in eNVM spare pages as part of system boot version 2.x.x
                 * configuration tables. */
                uint32_t *p_fclk = SYSBOOT_2_x_FCLK_ADDR;
                fclk = *p_fclk;
20000b38:	f641 63ac 	movw	r3, #7852	; 0x1eac
20000b3c:	f2c6 0308 	movt	r3, #24584	; 0x6008
20000b40:	681b      	ldr	r3, [r3, #0]
                fclk = 0uL;
            }
        }
    }
    
    if ( 0uL == fclk )
20000b42:	b923      	cbnz	r3, 20000b4e <SystemCoreClockUpdate+0xde>
        /* 
         * Could not retrieve FCLK from system boot configuration data. Fall back
         * to using SMARTFUSION_FCLK_FREQ which must then be defined as part of
         * project settings.
         */
        ASSERT( SMARTFUSION_FCLK_FREQ_DEFINED );
20000b44:	be00      	bkpt	0x0000
20000b46:	f647 0340 	movw	r3, #30784	; 0x7840
20000b4a:	f2c0 137d 	movt	r3, #381	; 0x17d
    }
    
    /* Retrieve FCLK from eNVM spare pages if Actel system boot programmed as part of the system. */
    
    /* Read system clock from eNVM spare pages. */
    SystemCoreClock = GetSystemClock();
20000b4e:	f247 12d4 	movw	r2, #29140	; 0x71d4
20000b52:	f2c2 0200 	movt	r2, #8192	; 0x2000
20000b56:	6013      	str	r3, [r2, #0]
    g_FrequencyPCLK0 = SystemCoreClock / PclkDiv0;
20000b58:	f247 12cc 	movw	r2, #29132	; 0x71cc
20000b5c:	f2c2 0200 	movt	r2, #8192	; 0x2000
20000b60:	fbb3 f5f5 	udiv	r5, r3, r5
20000b64:	6015      	str	r5, [r2, #0]
    g_FrequencyPCLK1 = SystemCoreClock / PclkDiv1;
20000b66:	f247 12d0 	movw	r2, #29136	; 0x71d0
20000b6a:	f2c2 0200 	movt	r2, #8192	; 0x2000
20000b6e:	fbb3 f4f4 	udiv	r4, r3, r4
20000b72:	6014      	str	r4, [r2, #0]
    g_FrequencyACE = SystemCoreClock / AceDiv;
20000b74:	f247 12c4 	movw	r2, #29124	; 0x71c4
20000b78:	f2c2 0200 	movt	r2, #8192	; 0x2000
20000b7c:	fbb3 f0f0 	udiv	r0, r3, r0
20000b80:	6010      	str	r0, [r2, #0]
    g_FrequencyFPGA = SystemCoreClock / FabDiv;
20000b82:	f247 12c8 	movw	r2, #29128	; 0x71c8
20000b86:	f2c2 0200 	movt	r2, #8192	; 0x2000
20000b8a:	fbb3 f1f1 	udiv	r1, r3, r1
20000b8e:	6011      	str	r1, [r2, #0]
    
    /* Keep SystemFrequency as well as SystemCoreClock for legacy reasons. */
    SystemFrequency = SystemCoreClock;
20000b90:	f247 12d8 	movw	r2, #29144	; 0x71d8
20000b94:	f2c2 0200 	movt	r2, #8192	; 0x2000
20000b98:	6013      	str	r3, [r2, #0]
}
20000b9a:	b004      	add	sp, #16
20000b9c:	bc30      	pop	{r4, r5}
20000b9e:	4770      	bx	lr

20000ba0 <__libc_init_array>:
20000ba0:	b570      	push	{r4, r5, r6, lr}
20000ba2:	f247 16b0 	movw	r6, #29104	; 0x71b0
20000ba6:	f247 15b0 	movw	r5, #29104	; 0x71b0
20000baa:	f2c2 0600 	movt	r6, #8192	; 0x2000
20000bae:	f2c2 0500 	movt	r5, #8192	; 0x2000
20000bb2:	1b76      	subs	r6, r6, r5
20000bb4:	10b6      	asrs	r6, r6, #2
20000bb6:	d006      	beq.n	20000bc6 <__libc_init_array+0x26>
20000bb8:	2400      	movs	r4, #0
20000bba:	f855 3024 	ldr.w	r3, [r5, r4, lsl #2]
20000bbe:	3401      	adds	r4, #1
20000bc0:	4798      	blx	r3
20000bc2:	42a6      	cmp	r6, r4
20000bc4:	d8f9      	bhi.n	20000bba <__libc_init_array+0x1a>
20000bc6:	f247 15b0 	movw	r5, #29104	; 0x71b0
20000bca:	f247 16b4 	movw	r6, #29108	; 0x71b4
20000bce:	f2c2 0500 	movt	r5, #8192	; 0x2000
20000bd2:	f2c2 0600 	movt	r6, #8192	; 0x2000
20000bd6:	1b76      	subs	r6, r6, r5
20000bd8:	f006 fade 	bl	20007198 <_init>
20000bdc:	10b6      	asrs	r6, r6, #2
20000bde:	d006      	beq.n	20000bee <__libc_init_array+0x4e>
20000be0:	2400      	movs	r4, #0
20000be2:	f855 3024 	ldr.w	r3, [r5, r4, lsl #2]
20000be6:	3401      	adds	r4, #1
20000be8:	4798      	blx	r3
20000bea:	42a6      	cmp	r6, r4
20000bec:	d8f9      	bhi.n	20000be2 <__libc_init_array+0x42>
20000bee:	bd70      	pop	{r4, r5, r6, pc}

20000bf0 <printf>:
20000bf0:	b40f      	push	{r0, r1, r2, r3}
20000bf2:	f247 13dc 	movw	r3, #29148	; 0x71dc
20000bf6:	f2c2 0300 	movt	r3, #8192	; 0x2000
20000bfa:	b510      	push	{r4, lr}
20000bfc:	681c      	ldr	r4, [r3, #0]
20000bfe:	b082      	sub	sp, #8
20000c00:	b124      	cbz	r4, 20000c0c <printf+0x1c>
20000c02:	69a3      	ldr	r3, [r4, #24]
20000c04:	b913      	cbnz	r3, 20000c0c <printf+0x1c>
20000c06:	4620      	mov	r0, r4
20000c08:	f002 fe92 	bl	20003930 <__sinit>
20000c0c:	4620      	mov	r0, r4
20000c0e:	ac05      	add	r4, sp, #20
20000c10:	9a04      	ldr	r2, [sp, #16]
20000c12:	4623      	mov	r3, r4
20000c14:	6881      	ldr	r1, [r0, #8]
20000c16:	9401      	str	r4, [sp, #4]
20000c18:	f000 f82a 	bl	20000c70 <_vfprintf_r>
20000c1c:	b002      	add	sp, #8
20000c1e:	e8bd 4010 	ldmia.w	sp!, {r4, lr}
20000c22:	b004      	add	sp, #16
20000c24:	4770      	bx	lr
20000c26:	bf00      	nop

20000c28 <_printf_r>:
20000c28:	b40e      	push	{r1, r2, r3}
20000c2a:	b510      	push	{r4, lr}
20000c2c:	4604      	mov	r4, r0
20000c2e:	b083      	sub	sp, #12
20000c30:	b118      	cbz	r0, 20000c3a <_printf_r+0x12>
20000c32:	6983      	ldr	r3, [r0, #24]
20000c34:	b90b      	cbnz	r3, 20000c3a <_printf_r+0x12>
20000c36:	f002 fe7b 	bl	20003930 <__sinit>
20000c3a:	4620      	mov	r0, r4
20000c3c:	ac06      	add	r4, sp, #24
20000c3e:	9a05      	ldr	r2, [sp, #20]
20000c40:	4623      	mov	r3, r4
20000c42:	6881      	ldr	r1, [r0, #8]
20000c44:	9401      	str	r4, [sp, #4]
20000c46:	f000 f813 	bl	20000c70 <_vfprintf_r>
20000c4a:	b003      	add	sp, #12
20000c4c:	e8bd 4010 	ldmia.w	sp!, {r4, lr}
20000c50:	b003      	add	sp, #12
20000c52:	4770      	bx	lr

20000c54 <__sprint_r>:
20000c54:	6893      	ldr	r3, [r2, #8]
20000c56:	b510      	push	{r4, lr}
20000c58:	4614      	mov	r4, r2
20000c5a:	b913      	cbnz	r3, 20000c62 <__sprint_r+0xe>
20000c5c:	6053      	str	r3, [r2, #4]
20000c5e:	4618      	mov	r0, r3
20000c60:	bd10      	pop	{r4, pc}
20000c62:	f002 ffc9 	bl	20003bf8 <__sfvwrite_r>
20000c66:	2300      	movs	r3, #0
20000c68:	6063      	str	r3, [r4, #4]
20000c6a:	60a3      	str	r3, [r4, #8]
20000c6c:	bd10      	pop	{r4, pc}
20000c6e:	bf00      	nop

20000c70 <_vfprintf_r>:
20000c70:	e92d 4ff0 	stmdb	sp!, {r4, r5, r6, r7, r8, r9, sl, fp, lr}
20000c74:	f5ad 6dae 	sub.w	sp, sp, #1392	; 0x570
20000c78:	b083      	sub	sp, #12
20000c7a:	460e      	mov	r6, r1
20000c7c:	4615      	mov	r5, r2
20000c7e:	469a      	mov	sl, r3
20000c80:	4681      	mov	r9, r0
20000c82:	f003 f9a9 	bl	20003fd8 <_localeconv_r>
20000c86:	6800      	ldr	r0, [r0, #0]
20000c88:	901d      	str	r0, [sp, #116]	; 0x74
20000c8a:	f1b9 0f00 	cmp.w	r9, #0
20000c8e:	d004      	beq.n	20000c9a <_vfprintf_r+0x2a>
20000c90:	f8d9 3018 	ldr.w	r3, [r9, #24]
20000c94:	2b00      	cmp	r3, #0
20000c96:	f000 815a 	beq.w	20000f4e <_vfprintf_r+0x2de>
20000c9a:	f646 73cc 	movw	r3, #28620	; 0x6fcc
20000c9e:	f2c2 0300 	movt	r3, #8192	; 0x2000
20000ca2:	429e      	cmp	r6, r3
20000ca4:	bf08      	it	eq
20000ca6:	f8d9 6004 	ldreq.w	r6, [r9, #4]
20000caa:	d010      	beq.n	20000cce <_vfprintf_r+0x5e>
20000cac:	f646 73ec 	movw	r3, #28652	; 0x6fec
20000cb0:	f2c2 0300 	movt	r3, #8192	; 0x2000
20000cb4:	429e      	cmp	r6, r3
20000cb6:	bf08      	it	eq
20000cb8:	f8d9 6008 	ldreq.w	r6, [r9, #8]
20000cbc:	d007      	beq.n	20000cce <_vfprintf_r+0x5e>
20000cbe:	f247 030c 	movw	r3, #28684	; 0x700c
20000cc2:	f2c2 0300 	movt	r3, #8192	; 0x2000
20000cc6:	429e      	cmp	r6, r3
20000cc8:	bf08      	it	eq
20000cca:	f8d9 600c 	ldreq.w	r6, [r9, #12]
20000cce:	f8b6 c00c 	ldrh.w	ip, [r6, #12]
20000cd2:	fa1f f38c 	uxth.w	r3, ip
20000cd6:	f413 5f00 	tst.w	r3, #8192	; 0x2000
20000cda:	d109      	bne.n	20000cf0 <_vfprintf_r+0x80>
20000cdc:	f44c 5c00 	orr.w	ip, ip, #8192	; 0x2000
20000ce0:	6e72      	ldr	r2, [r6, #100]	; 0x64
20000ce2:	f8a6 c00c 	strh.w	ip, [r6, #12]
20000ce6:	fa1f f38c 	uxth.w	r3, ip
20000cea:	f422 5200 	bic.w	r2, r2, #8192	; 0x2000
20000cee:	6672      	str	r2, [r6, #100]	; 0x64
20000cf0:	f013 0f08 	tst.w	r3, #8
20000cf4:	f001 8301 	beq.w	200022fa <_vfprintf_r+0x168a>
20000cf8:	6932      	ldr	r2, [r6, #16]
20000cfa:	2a00      	cmp	r2, #0
20000cfc:	f001 82fd 	beq.w	200022fa <_vfprintf_r+0x168a>
20000d00:	f003 031a 	and.w	r3, r3, #26
20000d04:	2b0a      	cmp	r3, #10
20000d06:	f000 80e0 	beq.w	20000eca <_vfprintf_r+0x25a>
20000d0a:	2200      	movs	r2, #0
20000d0c:	9212      	str	r2, [sp, #72]	; 0x48
20000d0e:	921a      	str	r2, [sp, #104]	; 0x68
20000d10:	2300      	movs	r3, #0
20000d12:	921c      	str	r2, [sp, #112]	; 0x70
20000d14:	f50d 649c 	add.w	r4, sp, #1248	; 0x4e0
20000d18:	9211      	str	r2, [sp, #68]	; 0x44
20000d1a:	3404      	adds	r4, #4
20000d1c:	9219      	str	r2, [sp, #100]	; 0x64
20000d1e:	f50d 62a4 	add.w	r2, sp, #1312	; 0x520
20000d22:	931b      	str	r3, [sp, #108]	; 0x6c
20000d24:	3204      	adds	r2, #4
20000d26:	f50d 6390 	add.w	r3, sp, #1152	; 0x480
20000d2a:	3228      	adds	r2, #40	; 0x28
20000d2c:	3303      	adds	r3, #3
20000d2e:	9218      	str	r2, [sp, #96]	; 0x60
20000d30:	9307      	str	r3, [sp, #28]
20000d32:	2300      	movs	r3, #0
20000d34:	f8cd 454c 	str.w	r4, [sp, #1356]	; 0x54c
20000d38:	f8cd 3550 	str.w	r3, [sp, #1360]	; 0x550
20000d3c:	f8cd 3554 	str.w	r3, [sp, #1364]	; 0x554
20000d40:	782b      	ldrb	r3, [r5, #0]
20000d42:	1e1a      	subs	r2, r3, #0
20000d44:	bf18      	it	ne
20000d46:	2201      	movne	r2, #1
20000d48:	2b25      	cmp	r3, #37	; 0x25
20000d4a:	bf0c      	ite	eq
20000d4c:	2200      	moveq	r2, #0
20000d4e:	f002 0201 	andne.w	r2, r2, #1
20000d52:	b332      	cbz	r2, 20000da2 <_vfprintf_r+0x132>
20000d54:	462f      	mov	r7, r5
20000d56:	f817 3f01 	ldrb.w	r3, [r7, #1]!
20000d5a:	1e1a      	subs	r2, r3, #0
20000d5c:	bf18      	it	ne
20000d5e:	2201      	movne	r2, #1
20000d60:	2b25      	cmp	r3, #37	; 0x25
20000d62:	bf0c      	ite	eq
20000d64:	2200      	moveq	r2, #0
20000d66:	f002 0201 	andne.w	r2, r2, #1
20000d6a:	2a00      	cmp	r2, #0
20000d6c:	d1f3      	bne.n	20000d56 <_vfprintf_r+0xe6>
20000d6e:	ebb7 0805 	subs.w	r8, r7, r5
20000d72:	bf08      	it	eq
20000d74:	463d      	moveq	r5, r7
20000d76:	d014      	beq.n	20000da2 <_vfprintf_r+0x132>
20000d78:	f8c4 8004 	str.w	r8, [r4, #4]
20000d7c:	f8dd 3550 	ldr.w	r3, [sp, #1360]	; 0x550
20000d80:	f8dd 2554 	ldr.w	r2, [sp, #1364]	; 0x554
20000d84:	3301      	adds	r3, #1
20000d86:	6025      	str	r5, [r4, #0]
20000d88:	2b07      	cmp	r3, #7
20000d8a:	4442      	add	r2, r8
20000d8c:	f8cd 3550 	str.w	r3, [sp, #1360]	; 0x550
20000d90:	f8cd 2554 	str.w	r2, [sp, #1364]	; 0x554
20000d94:	dc78      	bgt.n	20000e88 <_vfprintf_r+0x218>
20000d96:	3408      	adds	r4, #8
20000d98:	9811      	ldr	r0, [sp, #68]	; 0x44
20000d9a:	463d      	mov	r5, r7
20000d9c:	4440      	add	r0, r8
20000d9e:	9011      	str	r0, [sp, #68]	; 0x44
20000da0:	783b      	ldrb	r3, [r7, #0]
20000da2:	2b00      	cmp	r3, #0
20000da4:	d07c      	beq.n	20000ea0 <_vfprintf_r+0x230>
20000da6:	1c6b      	adds	r3, r5, #1
20000da8:	f04f 37ff 	mov.w	r7, #4294967295
20000dac:	202b      	movs	r0, #43	; 0x2b
20000dae:	f04f 0c20 	mov.w	ip, #32
20000db2:	2100      	movs	r1, #0
20000db4:	f04f 0200 	mov.w	r2, #0
20000db8:	910f      	str	r1, [sp, #60]	; 0x3c
20000dba:	f88d 2577 	strb.w	r2, [sp, #1399]	; 0x577
20000dbe:	f8cd a02c 	str.w	sl, [sp, #44]	; 0x2c
20000dc2:	786a      	ldrb	r2, [r5, #1]
20000dc4:	910a      	str	r1, [sp, #40]	; 0x28
20000dc6:	1c5d      	adds	r5, r3, #1
20000dc8:	f1a2 0320 	sub.w	r3, r2, #32
20000dcc:	2b58      	cmp	r3, #88	; 0x58
20000dce:	f200 8286 	bhi.w	200012de <_vfprintf_r+0x66e>
20000dd2:	e8df f013 	tbh	[pc, r3, lsl #1]
20000dd6:	0298      	.short	0x0298
20000dd8:	02840284 	.word	0x02840284
20000ddc:	028402a4 	.word	0x028402a4
20000de0:	02840284 	.word	0x02840284
20000de4:	02840284 	.word	0x02840284
20000de8:	02ad0284 	.word	0x02ad0284
20000dec:	028402ba 	.word	0x028402ba
20000df0:	02ca02c1 	.word	0x02ca02c1
20000df4:	02e70284 	.word	0x02e70284
20000df8:	02f002f0 	.word	0x02f002f0
20000dfc:	02f002f0 	.word	0x02f002f0
20000e00:	02f002f0 	.word	0x02f002f0
20000e04:	02f002f0 	.word	0x02f002f0
20000e08:	028402f0 	.word	0x028402f0
20000e0c:	02840284 	.word	0x02840284
20000e10:	02840284 	.word	0x02840284
20000e14:	02840284 	.word	0x02840284
20000e18:	02840284 	.word	0x02840284
20000e1c:	03040284 	.word	0x03040284
20000e20:	02840326 	.word	0x02840326
20000e24:	02840326 	.word	0x02840326
20000e28:	02840284 	.word	0x02840284
20000e2c:	036a0284 	.word	0x036a0284
20000e30:	02840284 	.word	0x02840284
20000e34:	02840481 	.word	0x02840481
20000e38:	02840284 	.word	0x02840284
20000e3c:	02840284 	.word	0x02840284
20000e40:	02840414 	.word	0x02840414
20000e44:	042f0284 	.word	0x042f0284
20000e48:	02840284 	.word	0x02840284
20000e4c:	02840284 	.word	0x02840284
20000e50:	02840284 	.word	0x02840284
20000e54:	02840284 	.word	0x02840284
20000e58:	02840284 	.word	0x02840284
20000e5c:	0465044f 	.word	0x0465044f
20000e60:	03260326 	.word	0x03260326
20000e64:	03730326 	.word	0x03730326
20000e68:	02840465 	.word	0x02840465
20000e6c:	03790284 	.word	0x03790284
20000e70:	03850284 	.word	0x03850284
20000e74:	03ad0396 	.word	0x03ad0396
20000e78:	0284040a 	.word	0x0284040a
20000e7c:	028403cc 	.word	0x028403cc
20000e80:	028403f4 	.word	0x028403f4
20000e84:	00c00284 	.word	0x00c00284
20000e88:	f50d 62a8 	add.w	r2, sp, #1344	; 0x540
20000e8c:	4648      	mov	r0, r9
20000e8e:	4631      	mov	r1, r6
20000e90:	320c      	adds	r2, #12
20000e92:	f7ff fedf 	bl	20000c54 <__sprint_r>
20000e96:	b958      	cbnz	r0, 20000eb0 <_vfprintf_r+0x240>
20000e98:	f50d 649c 	add.w	r4, sp, #1248	; 0x4e0
20000e9c:	3404      	adds	r4, #4
20000e9e:	e77b      	b.n	20000d98 <_vfprintf_r+0x128>
20000ea0:	f8dd 3554 	ldr.w	r3, [sp, #1364]	; 0x554
20000ea4:	2b00      	cmp	r3, #0
20000ea6:	f041 8192 	bne.w	200021ce <_vfprintf_r+0x155e>
20000eaa:	2300      	movs	r3, #0
20000eac:	f8cd 3550 	str.w	r3, [sp, #1360]	; 0x550
20000eb0:	89b3      	ldrh	r3, [r6, #12]
20000eb2:	f013 0f40 	tst.w	r3, #64	; 0x40
20000eb6:	d002      	beq.n	20000ebe <_vfprintf_r+0x24e>
20000eb8:	f04f 30ff 	mov.w	r0, #4294967295
20000ebc:	9011      	str	r0, [sp, #68]	; 0x44
20000ebe:	9811      	ldr	r0, [sp, #68]	; 0x44
20000ec0:	b05f      	add	sp, #380	; 0x17c
20000ec2:	f50d 6d80 	add.w	sp, sp, #1024	; 0x400
20000ec6:	e8bd 8ff0 	ldmia.w	sp!, {r4, r5, r6, r7, r8, r9, sl, fp, pc}
20000eca:	f9b6 300e 	ldrsh.w	r3, [r6, #14]
20000ece:	2b00      	cmp	r3, #0
20000ed0:	f6ff af1b 	blt.w	20000d0a <_vfprintf_r+0x9a>
20000ed4:	6a37      	ldr	r7, [r6, #32]
20000ed6:	f02c 0c02 	bic.w	ip, ip, #2
20000eda:	f8d6 e028 	ldr.w	lr, [r6, #40]	; 0x28
20000ede:	f50d 648e 	add.w	r4, sp, #1136	; 0x470
20000ee2:	f8ad c488 	strh.w	ip, [sp, #1160]	; 0x488
20000ee6:	340c      	adds	r4, #12
20000ee8:	f8b6 c00e 	ldrh.w	ip, [r6, #14]
20000eec:	462a      	mov	r2, r5
20000eee:	4653      	mov	r3, sl
20000ef0:	4648      	mov	r0, r9
20000ef2:	4621      	mov	r1, r4
20000ef4:	ad1f      	add	r5, sp, #124	; 0x7c
20000ef6:	f8cd 749c 	str.w	r7, [sp, #1180]	; 0x49c
20000efa:	2700      	movs	r7, #0
20000efc:	f8cd 548c 	str.w	r5, [sp, #1164]	; 0x48c
20000f00:	f8cd 547c 	str.w	r5, [sp, #1148]	; 0x47c
20000f04:	f44f 6580 	mov.w	r5, #1024	; 0x400
20000f08:	f8cd e4a4 	str.w	lr, [sp, #1188]	; 0x4a4
20000f0c:	f8ad c48a 	strh.w	ip, [sp, #1162]	; 0x48a
20000f10:	f8cd 5490 	str.w	r5, [sp, #1168]	; 0x490
20000f14:	f8cd 7494 	str.w	r7, [sp, #1172]	; 0x494
20000f18:	f8cd 5484 	str.w	r5, [sp, #1156]	; 0x484
20000f1c:	f7ff fea8 	bl	20000c70 <_vfprintf_r>
20000f20:	2800      	cmp	r0, #0
20000f22:	9011      	str	r0, [sp, #68]	; 0x44
20000f24:	db09      	blt.n	20000f3a <_vfprintf_r+0x2ca>
20000f26:	4621      	mov	r1, r4
20000f28:	4648      	mov	r0, r9
20000f2a:	f002 fb91 	bl	20003650 <_fflush_r>
20000f2e:	9911      	ldr	r1, [sp, #68]	; 0x44
20000f30:	42b8      	cmp	r0, r7
20000f32:	bf18      	it	ne
20000f34:	f04f 31ff 	movne.w	r1, #4294967295
20000f38:	9111      	str	r1, [sp, #68]	; 0x44
20000f3a:	f8bd 3488 	ldrh.w	r3, [sp, #1160]	; 0x488
20000f3e:	f013 0f40 	tst.w	r3, #64	; 0x40
20000f42:	d0bc      	beq.n	20000ebe <_vfprintf_r+0x24e>
20000f44:	89b3      	ldrh	r3, [r6, #12]
20000f46:	f043 0340 	orr.w	r3, r3, #64	; 0x40
20000f4a:	81b3      	strh	r3, [r6, #12]
20000f4c:	e7b7      	b.n	20000ebe <_vfprintf_r+0x24e>
20000f4e:	4648      	mov	r0, r9
20000f50:	f002 fcee 	bl	20003930 <__sinit>
20000f54:	e6a1      	b.n	20000c9a <_vfprintf_r+0x2a>
20000f56:	980a      	ldr	r0, [sp, #40]	; 0x28
20000f58:	f646 7c9c 	movw	ip, #28572	; 0x6f9c
20000f5c:	f2c2 0c00 	movt	ip, #8192	; 0x2000
20000f60:	9216      	str	r2, [sp, #88]	; 0x58
20000f62:	f010 0f20 	tst.w	r0, #32
20000f66:	f8cd c064 	str.w	ip, [sp, #100]	; 0x64
20000f6a:	f000 836e 	beq.w	2000164a <_vfprintf_r+0x9da>
20000f6e:	990b      	ldr	r1, [sp, #44]	; 0x2c
20000f70:	1dcb      	adds	r3, r1, #7
20000f72:	f023 0307 	bic.w	r3, r3, #7
20000f76:	f103 0208 	add.w	r2, r3, #8
20000f7a:	920b      	str	r2, [sp, #44]	; 0x2c
20000f7c:	e9d3 ab00 	ldrd	sl, fp, [r3]
20000f80:	ea5a 020b 	orrs.w	r2, sl, fp
20000f84:	9b0a      	ldr	r3, [sp, #40]	; 0x28
20000f86:	bf0c      	ite	eq
20000f88:	2200      	moveq	r2, #0
20000f8a:	2201      	movne	r2, #1
20000f8c:	4213      	tst	r3, r2
20000f8e:	f040 866b 	bne.w	20001c68 <_vfprintf_r+0xff8>
20000f92:	2302      	movs	r3, #2
20000f94:	f04f 0100 	mov.w	r1, #0
20000f98:	f88d 1577 	strb.w	r1, [sp, #1399]	; 0x577
20000f9c:	2f00      	cmp	r7, #0
20000f9e:	bfa2      	ittt	ge
20000fa0:	f8dd c028 	ldrge.w	ip, [sp, #40]	; 0x28
20000fa4:	f02c 0c80 	bicge.w	ip, ip, #128	; 0x80
20000fa8:	f8cd c028 	strge.w	ip, [sp, #40]	; 0x28
20000fac:	2f00      	cmp	r7, #0
20000fae:	bf18      	it	ne
20000fb0:	f042 0201 	orrne.w	r2, r2, #1
20000fb4:	2a00      	cmp	r2, #0
20000fb6:	f000 841e 	beq.w	200017f6 <_vfprintf_r+0xb86>
20000fba:	2b01      	cmp	r3, #1
20000fbc:	f000 85de 	beq.w	20001b7c <_vfprintf_r+0xf0c>
20000fc0:	2b02      	cmp	r3, #2
20000fc2:	f000 85c1 	beq.w	20001b48 <_vfprintf_r+0xed8>
20000fc6:	9918      	ldr	r1, [sp, #96]	; 0x60
20000fc8:	9113      	str	r1, [sp, #76]	; 0x4c
20000fca:	ea4f 08da 	mov.w	r8, sl, lsr #3
20000fce:	ea4f 0cdb 	mov.w	ip, fp, lsr #3
20000fd2:	ea48 784b 	orr.w	r8, r8, fp, lsl #29
20000fd6:	f00a 0007 	and.w	r0, sl, #7
20000fda:	46e3      	mov	fp, ip
20000fdc:	46c2      	mov	sl, r8
20000fde:	3030      	adds	r0, #48	; 0x30
20000fe0:	ea5a 020b 	orrs.w	r2, sl, fp
20000fe4:	f801 0d01 	strb.w	r0, [r1, #-1]!
20000fe8:	d1ef      	bne.n	20000fca <_vfprintf_r+0x35a>
20000fea:	f8dd c028 	ldr.w	ip, [sp, #40]	; 0x28
20000fee:	9113      	str	r1, [sp, #76]	; 0x4c
20000ff0:	f01c 0f01 	tst.w	ip, #1
20000ff4:	f040 868c 	bne.w	20001d10 <_vfprintf_r+0x10a0>
20000ff8:	9818      	ldr	r0, [sp, #96]	; 0x60
20000ffa:	1a40      	subs	r0, r0, r1
20000ffc:	9010      	str	r0, [sp, #64]	; 0x40
20000ffe:	f89d 3577 	ldrb.w	r3, [sp, #1399]	; 0x577
20001002:	9a10      	ldr	r2, [sp, #64]	; 0x40
20001004:	9717      	str	r7, [sp, #92]	; 0x5c
20001006:	42ba      	cmp	r2, r7
20001008:	bfb8      	it	lt
2000100a:	463a      	movlt	r2, r7
2000100c:	920c      	str	r2, [sp, #48]	; 0x30
2000100e:	b113      	cbz	r3, 20001016 <_vfprintf_r+0x3a6>
20001010:	9a0c      	ldr	r2, [sp, #48]	; 0x30
20001012:	3201      	adds	r2, #1
20001014:	920c      	str	r2, [sp, #48]	; 0x30
20001016:	9b0a      	ldr	r3, [sp, #40]	; 0x28
20001018:	980a      	ldr	r0, [sp, #40]	; 0x28
2000101a:	f013 0302 	ands.w	r3, r3, #2
2000101e:	9315      	str	r3, [sp, #84]	; 0x54
20001020:	bf1e      	ittt	ne
20001022:	f8dd c030 	ldrne.w	ip, [sp, #48]	; 0x30
20001026:	f10c 0c02 	addne.w	ip, ip, #2
2000102a:	f8cd c030 	strne.w	ip, [sp, #48]	; 0x30
2000102e:	f010 0084 	ands.w	r0, r0, #132	; 0x84
20001032:	9014      	str	r0, [sp, #80]	; 0x50
20001034:	d14d      	bne.n	200010d2 <_vfprintf_r+0x462>
20001036:	990f      	ldr	r1, [sp, #60]	; 0x3c
20001038:	9a0c      	ldr	r2, [sp, #48]	; 0x30
2000103a:	1a8f      	subs	r7, r1, r2
2000103c:	2f00      	cmp	r7, #0
2000103e:	dd48      	ble.n	200010d2 <_vfprintf_r+0x462>
20001040:	2f10      	cmp	r7, #16
20001042:	f646 7858 	movw	r8, #28504	; 0x6f58
20001046:	bfd8      	it	le
20001048:	f2c2 0800 	movtle	r8, #8192	; 0x2000
2000104c:	dd30      	ble.n	200010b0 <_vfprintf_r+0x440>
2000104e:	f2c2 0800 	movt	r8, #8192	; 0x2000
20001052:	f50d 6ba8 	add.w	fp, sp, #1344	; 0x540
20001056:	4643      	mov	r3, r8
20001058:	f04f 0a10 	mov.w	sl, #16
2000105c:	46a8      	mov	r8, r5
2000105e:	f10b 0b0c 	add.w	fp, fp, #12
20001062:	461d      	mov	r5, r3
20001064:	e002      	b.n	2000106c <_vfprintf_r+0x3fc>
20001066:	3f10      	subs	r7, #16
20001068:	2f10      	cmp	r7, #16
2000106a:	dd1e      	ble.n	200010aa <_vfprintf_r+0x43a>
2000106c:	f8c4 a004 	str.w	sl, [r4, #4]
20001070:	f8dd 3550 	ldr.w	r3, [sp, #1360]	; 0x550
20001074:	f8dd 2554 	ldr.w	r2, [sp, #1364]	; 0x554
20001078:	3301      	adds	r3, #1
2000107a:	6025      	str	r5, [r4, #0]
2000107c:	3210      	adds	r2, #16
2000107e:	2b07      	cmp	r3, #7
20001080:	f8cd 2554 	str.w	r2, [sp, #1364]	; 0x554
20001084:	f104 0408 	add.w	r4, r4, #8
20001088:	f8cd 3550 	str.w	r3, [sp, #1360]	; 0x550
2000108c:	ddeb      	ble.n	20001066 <_vfprintf_r+0x3f6>
2000108e:	f50d 649c 	add.w	r4, sp, #1248	; 0x4e0
20001092:	4648      	mov	r0, r9
20001094:	4631      	mov	r1, r6
20001096:	465a      	mov	r2, fp
20001098:	3404      	adds	r4, #4
2000109a:	f7ff fddb 	bl	20000c54 <__sprint_r>
2000109e:	2800      	cmp	r0, #0
200010a0:	f47f af06 	bne.w	20000eb0 <_vfprintf_r+0x240>
200010a4:	3f10      	subs	r7, #16
200010a6:	2f10      	cmp	r7, #16
200010a8:	dce0      	bgt.n	2000106c <_vfprintf_r+0x3fc>
200010aa:	462b      	mov	r3, r5
200010ac:	4645      	mov	r5, r8
200010ae:	4698      	mov	r8, r3
200010b0:	6067      	str	r7, [r4, #4]
200010b2:	f8dd 3550 	ldr.w	r3, [sp, #1360]	; 0x550
200010b6:	f8c4 8000 	str.w	r8, [r4]
200010ba:	1c5a      	adds	r2, r3, #1
200010bc:	f8dd 3554 	ldr.w	r3, [sp, #1364]	; 0x554
200010c0:	f8cd 2550 	str.w	r2, [sp, #1360]	; 0x550
200010c4:	19db      	adds	r3, r3, r7
200010c6:	2a07      	cmp	r2, #7
200010c8:	f8cd 3554 	str.w	r3, [sp, #1364]	; 0x554
200010cc:	f300 858a 	bgt.w	20001be4 <_vfprintf_r+0xf74>
200010d0:	3408      	adds	r4, #8
200010d2:	f89d 3577 	ldrb.w	r3, [sp, #1399]	; 0x577
200010d6:	b19b      	cbz	r3, 20001100 <_vfprintf_r+0x490>
200010d8:	2301      	movs	r3, #1
200010da:	6063      	str	r3, [r4, #4]
200010dc:	f8dd 3550 	ldr.w	r3, [sp, #1360]	; 0x550
200010e0:	f50d 62ae 	add.w	r2, sp, #1392	; 0x570
200010e4:	3207      	adds	r2, #7
200010e6:	6022      	str	r2, [r4, #0]
200010e8:	f8dd 2554 	ldr.w	r2, [sp, #1364]	; 0x554
200010ec:	3301      	adds	r3, #1
200010ee:	f8cd 3550 	str.w	r3, [sp, #1360]	; 0x550
200010f2:	3201      	adds	r2, #1
200010f4:	2b07      	cmp	r3, #7
200010f6:	f8cd 2554 	str.w	r2, [sp, #1364]	; 0x554
200010fa:	f300 84b6 	bgt.w	20001a6a <_vfprintf_r+0xdfa>
200010fe:	3408      	adds	r4, #8
20001100:	9b15      	ldr	r3, [sp, #84]	; 0x54
20001102:	b19b      	cbz	r3, 2000112c <_vfprintf_r+0x4bc>
20001104:	2302      	movs	r3, #2
20001106:	6063      	str	r3, [r4, #4]
20001108:	f8dd 3550 	ldr.w	r3, [sp, #1360]	; 0x550
2000110c:	f50d 62ae 	add.w	r2, sp, #1392	; 0x570
20001110:	3204      	adds	r2, #4
20001112:	6022      	str	r2, [r4, #0]
20001114:	f8dd 2554 	ldr.w	r2, [sp, #1364]	; 0x554
20001118:	3301      	adds	r3, #1
2000111a:	f8cd 3550 	str.w	r3, [sp, #1360]	; 0x550
2000111e:	3202      	adds	r2, #2
20001120:	2b07      	cmp	r3, #7
20001122:	f8cd 2554 	str.w	r2, [sp, #1364]	; 0x554
20001126:	f300 84af 	bgt.w	20001a88 <_vfprintf_r+0xe18>
2000112a:	3408      	adds	r4, #8
2000112c:	f8dd c050 	ldr.w	ip, [sp, #80]	; 0x50
20001130:	f1bc 0f80 	cmp.w	ip, #128	; 0x80
20001134:	f000 8376 	beq.w	20001824 <_vfprintf_r+0xbb4>
20001138:	9b17      	ldr	r3, [sp, #92]	; 0x5c
2000113a:	9a10      	ldr	r2, [sp, #64]	; 0x40
2000113c:	1a9f      	subs	r7, r3, r2
2000113e:	2f00      	cmp	r7, #0
20001140:	dd43      	ble.n	200011ca <_vfprintf_r+0x55a>
20001142:	2f10      	cmp	r7, #16
20001144:	f8df 8b8c 	ldr.w	r8, [pc, #2956]	; 20001cd4 <_vfprintf_r+0x1064>
20001148:	dd2e      	ble.n	200011a8 <_vfprintf_r+0x538>
2000114a:	4643      	mov	r3, r8
2000114c:	f50d 6ba8 	add.w	fp, sp, #1344	; 0x540
20001150:	46a8      	mov	r8, r5
20001152:	f04f 0a10 	mov.w	sl, #16
20001156:	f10b 0b0c 	add.w	fp, fp, #12
2000115a:	461d      	mov	r5, r3
2000115c:	e002      	b.n	20001164 <_vfprintf_r+0x4f4>
2000115e:	3f10      	subs	r7, #16
20001160:	2f10      	cmp	r7, #16
20001162:	dd1e      	ble.n	200011a2 <_vfprintf_r+0x532>
20001164:	f8c4 a004 	str.w	sl, [r4, #4]
20001168:	f8dd 3550 	ldr.w	r3, [sp, #1360]	; 0x550
2000116c:	f8dd 2554 	ldr.w	r2, [sp, #1364]	; 0x554
20001170:	3301      	adds	r3, #1
20001172:	6025      	str	r5, [r4, #0]
20001174:	3210      	adds	r2, #16
20001176:	2b07      	cmp	r3, #7
20001178:	f8cd 2554 	str.w	r2, [sp, #1364]	; 0x554
2000117c:	f104 0408 	add.w	r4, r4, #8
20001180:	f8cd 3550 	str.w	r3, [sp, #1360]	; 0x550
20001184:	ddeb      	ble.n	2000115e <_vfprintf_r+0x4ee>
20001186:	f50d 649c 	add.w	r4, sp, #1248	; 0x4e0
2000118a:	4648      	mov	r0, r9
2000118c:	4631      	mov	r1, r6
2000118e:	465a      	mov	r2, fp
20001190:	3404      	adds	r4, #4
20001192:	f7ff fd5f 	bl	20000c54 <__sprint_r>
20001196:	2800      	cmp	r0, #0
20001198:	f47f ae8a 	bne.w	20000eb0 <_vfprintf_r+0x240>
2000119c:	3f10      	subs	r7, #16
2000119e:	2f10      	cmp	r7, #16
200011a0:	dce0      	bgt.n	20001164 <_vfprintf_r+0x4f4>
200011a2:	462b      	mov	r3, r5
200011a4:	4645      	mov	r5, r8
200011a6:	4698      	mov	r8, r3
200011a8:	6067      	str	r7, [r4, #4]
200011aa:	f8dd 3550 	ldr.w	r3, [sp, #1360]	; 0x550
200011ae:	f8dd 2554 	ldr.w	r2, [sp, #1364]	; 0x554
200011b2:	3301      	adds	r3, #1
200011b4:	f8c4 8000 	str.w	r8, [r4]
200011b8:	19d2      	adds	r2, r2, r7
200011ba:	2b07      	cmp	r3, #7
200011bc:	f8cd 2554 	str.w	r2, [sp, #1364]	; 0x554
200011c0:	f8cd 3550 	str.w	r3, [sp, #1360]	; 0x550
200011c4:	f300 8442 	bgt.w	20001a4c <_vfprintf_r+0xddc>
200011c8:	3408      	adds	r4, #8
200011ca:	f8dd c028 	ldr.w	ip, [sp, #40]	; 0x28
200011ce:	f41c 7f80 	tst.w	ip, #256	; 0x100
200011d2:	f040 829d 	bne.w	20001710 <_vfprintf_r+0xaa0>
200011d6:	9810      	ldr	r0, [sp, #64]	; 0x40
200011d8:	9913      	ldr	r1, [sp, #76]	; 0x4c
200011da:	6060      	str	r0, [r4, #4]
200011dc:	f8dd 3550 	ldr.w	r3, [sp, #1360]	; 0x550
200011e0:	f8dd 2554 	ldr.w	r2, [sp, #1364]	; 0x554
200011e4:	3301      	adds	r3, #1
200011e6:	6021      	str	r1, [r4, #0]
200011e8:	1812      	adds	r2, r2, r0
200011ea:	2b07      	cmp	r3, #7
200011ec:	f8cd 3550 	str.w	r3, [sp, #1360]	; 0x550
200011f0:	bfd8      	it	le
200011f2:	f104 0308 	addle.w	r3, r4, #8
200011f6:	f8cd 2554 	str.w	r2, [sp, #1364]	; 0x554
200011fa:	f300 839b 	bgt.w	20001934 <_vfprintf_r+0xcc4>
200011fe:	990a      	ldr	r1, [sp, #40]	; 0x28
20001200:	f011 0f04 	tst.w	r1, #4
20001204:	d055      	beq.n	200012b2 <_vfprintf_r+0x642>
20001206:	9a0f      	ldr	r2, [sp, #60]	; 0x3c
20001208:	f8dd c030 	ldr.w	ip, [sp, #48]	; 0x30
2000120c:	ebcc 0702 	rsb	r7, ip, r2
20001210:	2f00      	cmp	r7, #0
20001212:	dd4e      	ble.n	200012b2 <_vfprintf_r+0x642>
20001214:	2f10      	cmp	r7, #16
20001216:	f646 7858 	movw	r8, #28504	; 0x6f58
2000121a:	bfd8      	it	le
2000121c:	f2c2 0800 	movtle	r8, #8192	; 0x2000
20001220:	dd2e      	ble.n	20001280 <_vfprintf_r+0x610>
20001222:	f2c2 0800 	movt	r8, #8192	; 0x2000
20001226:	f50d 6aa8 	add.w	sl, sp, #1344	; 0x540
2000122a:	4642      	mov	r2, r8
2000122c:	2410      	movs	r4, #16
2000122e:	46a8      	mov	r8, r5
20001230:	f10a 0a0c 	add.w	sl, sl, #12
20001234:	4615      	mov	r5, r2
20001236:	e002      	b.n	2000123e <_vfprintf_r+0x5ce>
20001238:	3f10      	subs	r7, #16
2000123a:	2f10      	cmp	r7, #16
2000123c:	dd1d      	ble.n	2000127a <_vfprintf_r+0x60a>
2000123e:	605c      	str	r4, [r3, #4]
20001240:	f8dd 2550 	ldr.w	r2, [sp, #1360]	; 0x550
20001244:	f8dd 1554 	ldr.w	r1, [sp, #1364]	; 0x554
20001248:	3201      	adds	r2, #1
2000124a:	601d      	str	r5, [r3, #0]
2000124c:	3110      	adds	r1, #16
2000124e:	2a07      	cmp	r2, #7
20001250:	f8cd 1554 	str.w	r1, [sp, #1364]	; 0x554
20001254:	f103 0308 	add.w	r3, r3, #8
20001258:	f8cd 2550 	str.w	r2, [sp, #1360]	; 0x550
2000125c:	ddec      	ble.n	20001238 <_vfprintf_r+0x5c8>
2000125e:	4648      	mov	r0, r9
20001260:	4631      	mov	r1, r6
20001262:	4652      	mov	r2, sl
20001264:	f7ff fcf6 	bl	20000c54 <__sprint_r>
20001268:	f50d 639c 	add.w	r3, sp, #1248	; 0x4e0
2000126c:	3304      	adds	r3, #4
2000126e:	2800      	cmp	r0, #0
20001270:	f47f ae1e 	bne.w	20000eb0 <_vfprintf_r+0x240>
20001274:	3f10      	subs	r7, #16
20001276:	2f10      	cmp	r7, #16
20001278:	dce1      	bgt.n	2000123e <_vfprintf_r+0x5ce>
2000127a:	462a      	mov	r2, r5
2000127c:	4645      	mov	r5, r8
2000127e:	4690      	mov	r8, r2
20001280:	605f      	str	r7, [r3, #4]
20001282:	f8dd 2550 	ldr.w	r2, [sp, #1360]	; 0x550
20001286:	f8c3 8000 	str.w	r8, [r3]
2000128a:	f8dd 3554 	ldr.w	r3, [sp, #1364]	; 0x554
2000128e:	3201      	adds	r2, #1
20001290:	f8cd 2550 	str.w	r2, [sp, #1360]	; 0x550
20001294:	18fb      	adds	r3, r7, r3
20001296:	2a07      	cmp	r2, #7
20001298:	f8cd 3554 	str.w	r3, [sp, #1364]	; 0x554
2000129c:	dd0b      	ble.n	200012b6 <_vfprintf_r+0x646>
2000129e:	f50d 62a8 	add.w	r2, sp, #1344	; 0x540
200012a2:	4648      	mov	r0, r9
200012a4:	4631      	mov	r1, r6
200012a6:	320c      	adds	r2, #12
200012a8:	f7ff fcd4 	bl	20000c54 <__sprint_r>
200012ac:	2800      	cmp	r0, #0
200012ae:	f47f adff 	bne.w	20000eb0 <_vfprintf_r+0x240>
200012b2:	f8dd 3554 	ldr.w	r3, [sp, #1364]	; 0x554
200012b6:	9811      	ldr	r0, [sp, #68]	; 0x44
200012b8:	9a0c      	ldr	r2, [sp, #48]	; 0x30
200012ba:	990f      	ldr	r1, [sp, #60]	; 0x3c
200012bc:	428a      	cmp	r2, r1
200012be:	bfac      	ite	ge
200012c0:	1880      	addge	r0, r0, r2
200012c2:	1840      	addlt	r0, r0, r1
200012c4:	9011      	str	r0, [sp, #68]	; 0x44
200012c6:	2b00      	cmp	r3, #0
200012c8:	f040 8342 	bne.w	20001950 <_vfprintf_r+0xce0>
200012cc:	f50d 649c 	add.w	r4, sp, #1248	; 0x4e0
200012d0:	2300      	movs	r3, #0
200012d2:	f8dd a02c 	ldr.w	sl, [sp, #44]	; 0x2c
200012d6:	3404      	adds	r4, #4
200012d8:	f8cd 3550 	str.w	r3, [sp, #1360]	; 0x550
200012dc:	e530      	b.n	20000d40 <_vfprintf_r+0xd0>
200012de:	9216      	str	r2, [sp, #88]	; 0x58
200012e0:	2a00      	cmp	r2, #0
200012e2:	f43f addd 	beq.w	20000ea0 <_vfprintf_r+0x230>
200012e6:	f50d 60a4 	add.w	r0, sp, #1312	; 0x520
200012ea:	2301      	movs	r3, #1
200012ec:	f04f 0c00 	mov.w	ip, #0
200012f0:	3004      	adds	r0, #4
200012f2:	930c      	str	r3, [sp, #48]	; 0x30
200012f4:	f88d 2524 	strb.w	r2, [sp, #1316]	; 0x524
200012f8:	f88d c577 	strb.w	ip, [sp, #1399]	; 0x577
200012fc:	9013      	str	r0, [sp, #76]	; 0x4c
200012fe:	9310      	str	r3, [sp, #64]	; 0x40
20001300:	2100      	movs	r1, #0
20001302:	9117      	str	r1, [sp, #92]	; 0x5c
20001304:	e687      	b.n	20001016 <_vfprintf_r+0x3a6>
20001306:	f89d 3577 	ldrb.w	r3, [sp, #1399]	; 0x577
2000130a:	2b00      	cmp	r3, #0
2000130c:	f040 852b 	bne.w	20001d66 <_vfprintf_r+0x10f6>
20001310:	990b      	ldr	r1, [sp, #44]	; 0x2c
20001312:	462b      	mov	r3, r5
20001314:	f88d c577 	strb.w	ip, [sp, #1399]	; 0x577
20001318:	782a      	ldrb	r2, [r5, #0]
2000131a:	910b      	str	r1, [sp, #44]	; 0x2c
2000131c:	e553      	b.n	20000dc6 <_vfprintf_r+0x156>
2000131e:	990b      	ldr	r1, [sp, #44]	; 0x2c
20001320:	9b0a      	ldr	r3, [sp, #40]	; 0x28
20001322:	f043 0301 	orr.w	r3, r3, #1
20001326:	930a      	str	r3, [sp, #40]	; 0x28
20001328:	462b      	mov	r3, r5
2000132a:	782a      	ldrb	r2, [r5, #0]
2000132c:	910b      	str	r1, [sp, #44]	; 0x2c
2000132e:	e54a      	b.n	20000dc6 <_vfprintf_r+0x156>
20001330:	990b      	ldr	r1, [sp, #44]	; 0x2c
20001332:	9a0b      	ldr	r2, [sp, #44]	; 0x2c
20001334:	6809      	ldr	r1, [r1, #0]
20001336:	910f      	str	r1, [sp, #60]	; 0x3c
20001338:	1d11      	adds	r1, r2, #4
2000133a:	9b0f      	ldr	r3, [sp, #60]	; 0x3c
2000133c:	2b00      	cmp	r3, #0
2000133e:	f2c0 8780 	blt.w	20002242 <_vfprintf_r+0x15d2>
20001342:	782a      	ldrb	r2, [r5, #0]
20001344:	462b      	mov	r3, r5
20001346:	910b      	str	r1, [sp, #44]	; 0x2c
20001348:	e53d      	b.n	20000dc6 <_vfprintf_r+0x156>
2000134a:	990b      	ldr	r1, [sp, #44]	; 0x2c
2000134c:	462b      	mov	r3, r5
2000134e:	f88d 0577 	strb.w	r0, [sp, #1399]	; 0x577
20001352:	782a      	ldrb	r2, [r5, #0]
20001354:	910b      	str	r1, [sp, #44]	; 0x2c
20001356:	e536      	b.n	20000dc6 <_vfprintf_r+0x156>
20001358:	990b      	ldr	r1, [sp, #44]	; 0x2c
2000135a:	9b0a      	ldr	r3, [sp, #40]	; 0x28
2000135c:	f043 0304 	orr.w	r3, r3, #4
20001360:	930a      	str	r3, [sp, #40]	; 0x28
20001362:	462b      	mov	r3, r5
20001364:	782a      	ldrb	r2, [r5, #0]
20001366:	910b      	str	r1, [sp, #44]	; 0x2c
20001368:	e52d      	b.n	20000dc6 <_vfprintf_r+0x156>
2000136a:	462b      	mov	r3, r5
2000136c:	f813 2b01 	ldrb.w	r2, [r3], #1
20001370:	2a2a      	cmp	r2, #42	; 0x2a
20001372:	f001 80cd 	beq.w	20002510 <_vfprintf_r+0x18a0>
20001376:	f1a2 0130 	sub.w	r1, r2, #48	; 0x30
2000137a:	2909      	cmp	r1, #9
2000137c:	f201 8037 	bhi.w	200023ee <_vfprintf_r+0x177e>
20001380:	3502      	adds	r5, #2
20001382:	2700      	movs	r7, #0
20001384:	f815 2c01 	ldrb.w	r2, [r5, #-1]
20001388:	eb07 0787 	add.w	r7, r7, r7, lsl #2
2000138c:	462b      	mov	r3, r5
2000138e:	3501      	adds	r5, #1
20001390:	eb01 0747 	add.w	r7, r1, r7, lsl #1
20001394:	f1a2 0130 	sub.w	r1, r2, #48	; 0x30
20001398:	2909      	cmp	r1, #9
2000139a:	d9f3      	bls.n	20001384 <_vfprintf_r+0x714>
2000139c:	ea47 77e7 	orr.w	r7, r7, r7, asr #31
200013a0:	461d      	mov	r5, r3
200013a2:	e511      	b.n	20000dc8 <_vfprintf_r+0x158>
200013a4:	990b      	ldr	r1, [sp, #44]	; 0x2c
200013a6:	462b      	mov	r3, r5
200013a8:	9a0a      	ldr	r2, [sp, #40]	; 0x28
200013aa:	f042 0280 	orr.w	r2, r2, #128	; 0x80
200013ae:	920a      	str	r2, [sp, #40]	; 0x28
200013b0:	782a      	ldrb	r2, [r5, #0]
200013b2:	910b      	str	r1, [sp, #44]	; 0x2c
200013b4:	e507      	b.n	20000dc6 <_vfprintf_r+0x156>
200013b6:	f1a2 0130 	sub.w	r1, r2, #48	; 0x30
200013ba:	f04f 0800 	mov.w	r8, #0
200013be:	462b      	mov	r3, r5
200013c0:	eb08 0888 	add.w	r8, r8, r8, lsl #2
200013c4:	f813 2b01 	ldrb.w	r2, [r3], #1
200013c8:	eb01 0848 	add.w	r8, r1, r8, lsl #1
200013cc:	f1a2 0130 	sub.w	r1, r2, #48	; 0x30
200013d0:	461d      	mov	r5, r3
200013d2:	2909      	cmp	r1, #9
200013d4:	d9f3      	bls.n	200013be <_vfprintf_r+0x74e>
200013d6:	f8cd 803c 	str.w	r8, [sp, #60]	; 0x3c
200013da:	461d      	mov	r5, r3
200013dc:	e4f4      	b.n	20000dc8 <_vfprintf_r+0x158>
200013de:	9b0a      	ldr	r3, [sp, #40]	; 0x28
200013e0:	9216      	str	r2, [sp, #88]	; 0x58
200013e2:	f043 0310 	orr.w	r3, r3, #16
200013e6:	930a      	str	r3, [sp, #40]	; 0x28
200013e8:	f8dd c028 	ldr.w	ip, [sp, #40]	; 0x28
200013ec:	f01c 0f20 	tst.w	ip, #32
200013f0:	f000 815d 	beq.w	200016ae <_vfprintf_r+0xa3e>
200013f4:	980b      	ldr	r0, [sp, #44]	; 0x2c
200013f6:	1dc3      	adds	r3, r0, #7
200013f8:	f023 0307 	bic.w	r3, r3, #7
200013fc:	f103 0108 	add.w	r1, r3, #8
20001400:	910b      	str	r1, [sp, #44]	; 0x2c
20001402:	e9d3 ab00 	ldrd	sl, fp, [r3]
20001406:	f1ba 0f00 	cmp.w	sl, #0
2000140a:	f17b 0200 	sbcs.w	r2, fp, #0
2000140e:	f2c0 849b 	blt.w	20001d48 <_vfprintf_r+0x10d8>
20001412:	ea5a 030b 	orrs.w	r3, sl, fp
20001416:	f04f 0301 	mov.w	r3, #1
2000141a:	bf0c      	ite	eq
2000141c:	2200      	moveq	r2, #0
2000141e:	2201      	movne	r2, #1
20001420:	e5bc      	b.n	20000f9c <_vfprintf_r+0x32c>
20001422:	980a      	ldr	r0, [sp, #40]	; 0x28
20001424:	9216      	str	r2, [sp, #88]	; 0x58
20001426:	f010 0f08 	tst.w	r0, #8
2000142a:	f000 84ed 	beq.w	20001e08 <_vfprintf_r+0x1198>
2000142e:	990b      	ldr	r1, [sp, #44]	; 0x2c
20001430:	1dcb      	adds	r3, r1, #7
20001432:	f023 0307 	bic.w	r3, r3, #7
20001436:	f103 0208 	add.w	r2, r3, #8
2000143a:	920b      	str	r2, [sp, #44]	; 0x2c
2000143c:	f8d3 8004 	ldr.w	r8, [r3, #4]
20001440:	f8d3 a000 	ldr.w	sl, [r3]
20001444:	f8cd 806c 	str.w	r8, [sp, #108]	; 0x6c
20001448:	f8cd a048 	str.w	sl, [sp, #72]	; 0x48
2000144c:	4650      	mov	r0, sl
2000144e:	4641      	mov	r1, r8
20001450:	f004 f998 	bl	20005784 <__isinfd>
20001454:	4683      	mov	fp, r0
20001456:	2800      	cmp	r0, #0
20001458:	f000 8599 	beq.w	20001f8e <_vfprintf_r+0x131e>
2000145c:	4650      	mov	r0, sl
2000145e:	2200      	movs	r2, #0
20001460:	2300      	movs	r3, #0
20001462:	4641      	mov	r1, r8
20001464:	f005 f990 	bl	20006788 <__aeabi_dcmplt>
20001468:	2800      	cmp	r0, #0
2000146a:	f040 850b 	bne.w	20001e84 <_vfprintf_r+0x1214>
2000146e:	f89d 3577 	ldrb.w	r3, [sp, #1399]	; 0x577
20001472:	f646 7190 	movw	r1, #28560	; 0x6f90
20001476:	f646 728c 	movw	r2, #28556	; 0x6f8c
2000147a:	9816      	ldr	r0, [sp, #88]	; 0x58
2000147c:	f2c2 0100 	movt	r1, #8192	; 0x2000
20001480:	f2c2 0200 	movt	r2, #8192	; 0x2000
20001484:	f04f 0c03 	mov.w	ip, #3
20001488:	2847      	cmp	r0, #71	; 0x47
2000148a:	bfd8      	it	le
2000148c:	4611      	movle	r1, r2
2000148e:	9113      	str	r1, [sp, #76]	; 0x4c
20001490:	990a      	ldr	r1, [sp, #40]	; 0x28
20001492:	f8cd c030 	str.w	ip, [sp, #48]	; 0x30
20001496:	f021 0180 	bic.w	r1, r1, #128	; 0x80
2000149a:	f8cd c040 	str.w	ip, [sp, #64]	; 0x40
2000149e:	910a      	str	r1, [sp, #40]	; 0x28
200014a0:	f04f 0c00 	mov.w	ip, #0
200014a4:	f8cd c05c 	str.w	ip, [sp, #92]	; 0x5c
200014a8:	e5b1      	b.n	2000100e <_vfprintf_r+0x39e>
200014aa:	990b      	ldr	r1, [sp, #44]	; 0x2c
200014ac:	9b0a      	ldr	r3, [sp, #40]	; 0x28
200014ae:	f043 0308 	orr.w	r3, r3, #8
200014b2:	930a      	str	r3, [sp, #40]	; 0x28
200014b4:	462b      	mov	r3, r5
200014b6:	782a      	ldrb	r2, [r5, #0]
200014b8:	910b      	str	r1, [sp, #44]	; 0x2c
200014ba:	e484      	b.n	20000dc6 <_vfprintf_r+0x156>
200014bc:	990a      	ldr	r1, [sp, #40]	; 0x28
200014be:	f041 0140 	orr.w	r1, r1, #64	; 0x40
200014c2:	910a      	str	r1, [sp, #40]	; 0x28
200014c4:	990b      	ldr	r1, [sp, #44]	; 0x2c
200014c6:	e73c      	b.n	20001342 <_vfprintf_r+0x6d2>
200014c8:	782a      	ldrb	r2, [r5, #0]
200014ca:	2a6c      	cmp	r2, #108	; 0x6c
200014cc:	f000 8555 	beq.w	20001f7a <_vfprintf_r+0x130a>
200014d0:	990b      	ldr	r1, [sp, #44]	; 0x2c
200014d2:	9b0a      	ldr	r3, [sp, #40]	; 0x28
200014d4:	910b      	str	r1, [sp, #44]	; 0x2c
200014d6:	f043 0310 	orr.w	r3, r3, #16
200014da:	930a      	str	r3, [sp, #40]	; 0x28
200014dc:	462b      	mov	r3, r5
200014de:	e472      	b.n	20000dc6 <_vfprintf_r+0x156>
200014e0:	9a0a      	ldr	r2, [sp, #40]	; 0x28
200014e2:	f012 0f20 	tst.w	r2, #32
200014e6:	f000 8482 	beq.w	20001dee <_vfprintf_r+0x117e>
200014ea:	980b      	ldr	r0, [sp, #44]	; 0x2c
200014ec:	9a11      	ldr	r2, [sp, #68]	; 0x44
200014ee:	6803      	ldr	r3, [r0, #0]
200014f0:	4610      	mov	r0, r2
200014f2:	ea4f 71e0 	mov.w	r1, r0, asr #31
200014f6:	9a0b      	ldr	r2, [sp, #44]	; 0x2c
200014f8:	e9c3 0100 	strd	r0, r1, [r3]
200014fc:	f102 0a04 	add.w	sl, r2, #4
20001500:	e41e      	b.n	20000d40 <_vfprintf_r+0xd0>
20001502:	9216      	str	r2, [sp, #88]	; 0x58
20001504:	9a0a      	ldr	r2, [sp, #40]	; 0x28
20001506:	f012 0320 	ands.w	r3, r2, #32
2000150a:	f000 80ef 	beq.w	200016ec <_vfprintf_r+0xa7c>
2000150e:	9b0b      	ldr	r3, [sp, #44]	; 0x2c
20001510:	1dda      	adds	r2, r3, #7
20001512:	2300      	movs	r3, #0
20001514:	f022 0207 	bic.w	r2, r2, #7
20001518:	f102 0c08 	add.w	ip, r2, #8
2000151c:	f8cd c02c 	str.w	ip, [sp, #44]	; 0x2c
20001520:	e9d2 ab00 	ldrd	sl, fp, [r2]
20001524:	ea5a 000b 	orrs.w	r0, sl, fp
20001528:	bf0c      	ite	eq
2000152a:	2200      	moveq	r2, #0
2000152c:	2201      	movne	r2, #1
2000152e:	e531      	b.n	20000f94 <_vfprintf_r+0x324>
20001530:	980b      	ldr	r0, [sp, #44]	; 0x2c
20001532:	2178      	movs	r1, #120	; 0x78
20001534:	f8dd c028 	ldr.w	ip, [sp, #40]	; 0x28
20001538:	9116      	str	r1, [sp, #88]	; 0x58
2000153a:	6803      	ldr	r3, [r0, #0]
2000153c:	f646 709c 	movw	r0, #28572	; 0x6f9c
20001540:	f88d 1575 	strb.w	r1, [sp, #1397]	; 0x575
20001544:	2130      	movs	r1, #48	; 0x30
20001546:	f88d 1574 	strb.w	r1, [sp, #1396]	; 0x574
2000154a:	f04c 0c02 	orr.w	ip, ip, #2
2000154e:	990b      	ldr	r1, [sp, #44]	; 0x2c
20001550:	1e1a      	subs	r2, r3, #0
20001552:	bf18      	it	ne
20001554:	2201      	movne	r2, #1
20001556:	f2c2 0000 	movt	r0, #8192	; 0x2000
2000155a:	469a      	mov	sl, r3
2000155c:	f04f 0b00 	mov.w	fp, #0
20001560:	3104      	adds	r1, #4
20001562:	f8cd c028 	str.w	ip, [sp, #40]	; 0x28
20001566:	9019      	str	r0, [sp, #100]	; 0x64
20001568:	2302      	movs	r3, #2
2000156a:	910b      	str	r1, [sp, #44]	; 0x2c
2000156c:	e512      	b.n	20000f94 <_vfprintf_r+0x324>
2000156e:	9b0b      	ldr	r3, [sp, #44]	; 0x2c
20001570:	9216      	str	r2, [sp, #88]	; 0x58
20001572:	f04f 0200 	mov.w	r2, #0
20001576:	1d18      	adds	r0, r3, #4
20001578:	f88d 2577 	strb.w	r2, [sp, #1399]	; 0x577
2000157c:	681b      	ldr	r3, [r3, #0]
2000157e:	900b      	str	r0, [sp, #44]	; 0x2c
20001580:	9313      	str	r3, [sp, #76]	; 0x4c
20001582:	2b00      	cmp	r3, #0
20001584:	f000 86c6 	beq.w	20002314 <_vfprintf_r+0x16a4>
20001588:	2f00      	cmp	r7, #0
2000158a:	9813      	ldr	r0, [sp, #76]	; 0x4c
2000158c:	f2c0 868f 	blt.w	200022ae <_vfprintf_r+0x163e>
20001590:	2100      	movs	r1, #0
20001592:	463a      	mov	r2, r7
20001594:	f003 f8a4 	bl	200046e0 <memchr>
20001598:	4603      	mov	r3, r0
2000159a:	2800      	cmp	r0, #0
2000159c:	f000 86f5 	beq.w	2000238a <_vfprintf_r+0x171a>
200015a0:	9813      	ldr	r0, [sp, #76]	; 0x4c
200015a2:	1a1b      	subs	r3, r3, r0
200015a4:	9310      	str	r3, [sp, #64]	; 0x40
200015a6:	42bb      	cmp	r3, r7
200015a8:	f340 85be 	ble.w	20002128 <_vfprintf_r+0x14b8>
200015ac:	9710      	str	r7, [sp, #64]	; 0x40
200015ae:	2100      	movs	r1, #0
200015b0:	ea27 77e7 	bic.w	r7, r7, r7, asr #31
200015b4:	f89d 3577 	ldrb.w	r3, [sp, #1399]	; 0x577
200015b8:	970c      	str	r7, [sp, #48]	; 0x30
200015ba:	9117      	str	r1, [sp, #92]	; 0x5c
200015bc:	e527      	b.n	2000100e <_vfprintf_r+0x39e>
200015be:	f8dd c028 	ldr.w	ip, [sp, #40]	; 0x28
200015c2:	9216      	str	r2, [sp, #88]	; 0x58
200015c4:	f01c 0f20 	tst.w	ip, #32
200015c8:	d023      	beq.n	20001612 <_vfprintf_r+0x9a2>
200015ca:	980b      	ldr	r0, [sp, #44]	; 0x2c
200015cc:	2301      	movs	r3, #1
200015ce:	1dc2      	adds	r2, r0, #7
200015d0:	f022 0207 	bic.w	r2, r2, #7
200015d4:	f102 0108 	add.w	r1, r2, #8
200015d8:	910b      	str	r1, [sp, #44]	; 0x2c
200015da:	e9d2 ab00 	ldrd	sl, fp, [r2]
200015de:	ea5a 020b 	orrs.w	r2, sl, fp
200015e2:	bf0c      	ite	eq
200015e4:	2200      	moveq	r2, #0
200015e6:	2201      	movne	r2, #1
200015e8:	e4d4      	b.n	20000f94 <_vfprintf_r+0x324>
200015ea:	990a      	ldr	r1, [sp, #40]	; 0x28
200015ec:	462b      	mov	r3, r5
200015ee:	f041 0120 	orr.w	r1, r1, #32
200015f2:	910a      	str	r1, [sp, #40]	; 0x28
200015f4:	990b      	ldr	r1, [sp, #44]	; 0x2c
200015f6:	782a      	ldrb	r2, [r5, #0]
200015f8:	910b      	str	r1, [sp, #44]	; 0x2c
200015fa:	f7ff bbe4 	b.w	20000dc6 <_vfprintf_r+0x156>
200015fe:	9b0a      	ldr	r3, [sp, #40]	; 0x28
20001600:	9216      	str	r2, [sp, #88]	; 0x58
20001602:	f043 0310 	orr.w	r3, r3, #16
20001606:	930a      	str	r3, [sp, #40]	; 0x28
20001608:	f8dd c028 	ldr.w	ip, [sp, #40]	; 0x28
2000160c:	f01c 0f20 	tst.w	ip, #32
20001610:	d1db      	bne.n	200015ca <_vfprintf_r+0x95a>
20001612:	9b0a      	ldr	r3, [sp, #40]	; 0x28
20001614:	f013 0f10 	tst.w	r3, #16
20001618:	f000 83d5 	beq.w	20001dc6 <_vfprintf_r+0x1156>
2000161c:	980b      	ldr	r0, [sp, #44]	; 0x2c
2000161e:	2301      	movs	r3, #1
20001620:	1d02      	adds	r2, r0, #4
20001622:	920b      	str	r2, [sp, #44]	; 0x2c
20001624:	6801      	ldr	r1, [r0, #0]
20001626:	1e0a      	subs	r2, r1, #0
20001628:	bf18      	it	ne
2000162a:	2201      	movne	r2, #1
2000162c:	468a      	mov	sl, r1
2000162e:	f04f 0b00 	mov.w	fp, #0
20001632:	e4af      	b.n	20000f94 <_vfprintf_r+0x324>
20001634:	980a      	ldr	r0, [sp, #40]	; 0x28
20001636:	9216      	str	r2, [sp, #88]	; 0x58
20001638:	f646 7278 	movw	r2, #28536	; 0x6f78
2000163c:	f010 0f20 	tst.w	r0, #32
20001640:	f2c2 0200 	movt	r2, #8192	; 0x2000
20001644:	9219      	str	r2, [sp, #100]	; 0x64
20001646:	f47f ac92 	bne.w	20000f6e <_vfprintf_r+0x2fe>
2000164a:	9b0a      	ldr	r3, [sp, #40]	; 0x28
2000164c:	f013 0f10 	tst.w	r3, #16
20001650:	f040 831a 	bne.w	20001c88 <_vfprintf_r+0x1018>
20001654:	9a0a      	ldr	r2, [sp, #40]	; 0x28
20001656:	f012 0f40 	tst.w	r2, #64	; 0x40
2000165a:	f000 8315 	beq.w	20001c88 <_vfprintf_r+0x1018>
2000165e:	9b0b      	ldr	r3, [sp, #44]	; 0x2c
20001660:	f103 0c04 	add.w	ip, r3, #4
20001664:	f8cd c02c 	str.w	ip, [sp, #44]	; 0x2c
20001668:	f8b3 a000 	ldrh.w	sl, [r3]
2000166c:	46d2      	mov	sl, sl
2000166e:	f04f 0b00 	mov.w	fp, #0
20001672:	e485      	b.n	20000f80 <_vfprintf_r+0x310>
20001674:	9216      	str	r2, [sp, #88]	; 0x58
20001676:	f50d 61a4 	add.w	r1, sp, #1312	; 0x520
2000167a:	9a0b      	ldr	r2, [sp, #44]	; 0x2c
2000167c:	f04f 0c01 	mov.w	ip, #1
20001680:	f04f 0000 	mov.w	r0, #0
20001684:	3104      	adds	r1, #4
20001686:	f8cd c030 	str.w	ip, [sp, #48]	; 0x30
2000168a:	6813      	ldr	r3, [r2, #0]
2000168c:	3204      	adds	r2, #4
2000168e:	f88d 0577 	strb.w	r0, [sp, #1399]	; 0x577
20001692:	920b      	str	r2, [sp, #44]	; 0x2c
20001694:	9113      	str	r1, [sp, #76]	; 0x4c
20001696:	f8cd c040 	str.w	ip, [sp, #64]	; 0x40
2000169a:	f88d 3524 	strb.w	r3, [sp, #1316]	; 0x524
2000169e:	e62f      	b.n	20001300 <_vfprintf_r+0x690>
200016a0:	f8dd c028 	ldr.w	ip, [sp, #40]	; 0x28
200016a4:	9216      	str	r2, [sp, #88]	; 0x58
200016a6:	f01c 0f20 	tst.w	ip, #32
200016aa:	f47f aea3 	bne.w	200013f4 <_vfprintf_r+0x784>
200016ae:	9a0a      	ldr	r2, [sp, #40]	; 0x28
200016b0:	f012 0f10 	tst.w	r2, #16
200016b4:	f040 82f1 	bne.w	20001c9a <_vfprintf_r+0x102a>
200016b8:	9a0a      	ldr	r2, [sp, #40]	; 0x28
200016ba:	f012 0f40 	tst.w	r2, #64	; 0x40
200016be:	f000 82ec 	beq.w	20001c9a <_vfprintf_r+0x102a>
200016c2:	9b0b      	ldr	r3, [sp, #44]	; 0x2c
200016c4:	f103 0c04 	add.w	ip, r3, #4
200016c8:	f8cd c02c 	str.w	ip, [sp, #44]	; 0x2c
200016cc:	f9b3 a000 	ldrsh.w	sl, [r3]
200016d0:	46d2      	mov	sl, sl
200016d2:	ea4f 7bea 	mov.w	fp, sl, asr #31
200016d6:	e696      	b.n	20001406 <_vfprintf_r+0x796>
200016d8:	990a      	ldr	r1, [sp, #40]	; 0x28
200016da:	9216      	str	r2, [sp, #88]	; 0x58
200016dc:	f041 0110 	orr.w	r1, r1, #16
200016e0:	910a      	str	r1, [sp, #40]	; 0x28
200016e2:	9a0a      	ldr	r2, [sp, #40]	; 0x28
200016e4:	f012 0320 	ands.w	r3, r2, #32
200016e8:	f47f af11 	bne.w	2000150e <_vfprintf_r+0x89e>
200016ec:	990a      	ldr	r1, [sp, #40]	; 0x28
200016ee:	f011 0210 	ands.w	r2, r1, #16
200016f2:	f000 8354 	beq.w	20001d9e <_vfprintf_r+0x112e>
200016f6:	9a0b      	ldr	r2, [sp, #44]	; 0x2c
200016f8:	f102 0c04 	add.w	ip, r2, #4
200016fc:	f8cd c02c 	str.w	ip, [sp, #44]	; 0x2c
20001700:	6811      	ldr	r1, [r2, #0]
20001702:	1e0a      	subs	r2, r1, #0
20001704:	bf18      	it	ne
20001706:	2201      	movne	r2, #1
20001708:	468a      	mov	sl, r1
2000170a:	f04f 0b00 	mov.w	fp, #0
2000170e:	e441      	b.n	20000f94 <_vfprintf_r+0x324>
20001710:	9a16      	ldr	r2, [sp, #88]	; 0x58
20001712:	2a65      	cmp	r2, #101	; 0x65
20001714:	f340 8128 	ble.w	20001968 <_vfprintf_r+0xcf8>
20001718:	9812      	ldr	r0, [sp, #72]	; 0x48
2000171a:	2200      	movs	r2, #0
2000171c:	2300      	movs	r3, #0
2000171e:	991b      	ldr	r1, [sp, #108]	; 0x6c
20001720:	f005 f828 	bl	20006774 <__aeabi_dcmpeq>
20001724:	2800      	cmp	r0, #0
20001726:	f000 81be 	beq.w	20001aa6 <_vfprintf_r+0xe36>
2000172a:	2301      	movs	r3, #1
2000172c:	6063      	str	r3, [r4, #4]
2000172e:	f8dd 2550 	ldr.w	r2, [sp, #1360]	; 0x550
20001732:	f646 73b8 	movw	r3, #28600	; 0x6fb8
20001736:	f2c2 0300 	movt	r3, #8192	; 0x2000
2000173a:	6023      	str	r3, [r4, #0]
2000173c:	f8dd 3554 	ldr.w	r3, [sp, #1364]	; 0x554
20001740:	3201      	adds	r2, #1
20001742:	f8cd 2550 	str.w	r2, [sp, #1360]	; 0x550
20001746:	3301      	adds	r3, #1
20001748:	2a07      	cmp	r2, #7
2000174a:	f8cd 3554 	str.w	r3, [sp, #1364]	; 0x554
2000174e:	bfd8      	it	le
20001750:	f104 0308 	addle.w	r3, r4, #8
20001754:	f300 839b 	bgt.w	20001e8e <_vfprintf_r+0x121e>
20001758:	f8dd 2570 	ldr.w	r2, [sp, #1392]	; 0x570
2000175c:	981a      	ldr	r0, [sp, #104]	; 0x68
2000175e:	4282      	cmp	r2, r0
20001760:	db04      	blt.n	2000176c <_vfprintf_r+0xafc>
20001762:	990a      	ldr	r1, [sp, #40]	; 0x28
20001764:	f011 0f01 	tst.w	r1, #1
20001768:	f43f ad49 	beq.w	200011fe <_vfprintf_r+0x58e>
2000176c:	2201      	movs	r2, #1
2000176e:	605a      	str	r2, [r3, #4]
20001770:	f8dd 2550 	ldr.w	r2, [sp, #1360]	; 0x550
20001774:	f8dd 1554 	ldr.w	r1, [sp, #1364]	; 0x554
20001778:	3201      	adds	r2, #1
2000177a:	981d      	ldr	r0, [sp, #116]	; 0x74
2000177c:	3101      	adds	r1, #1
2000177e:	2a07      	cmp	r2, #7
20001780:	f8cd 1554 	str.w	r1, [sp, #1364]	; 0x554
20001784:	6018      	str	r0, [r3, #0]
20001786:	f8cd 2550 	str.w	r2, [sp, #1360]	; 0x550
2000178a:	f300 855f 	bgt.w	2000224c <_vfprintf_r+0x15dc>
2000178e:	3308      	adds	r3, #8
20001790:	991a      	ldr	r1, [sp, #104]	; 0x68
20001792:	1e4f      	subs	r7, r1, #1
20001794:	2f00      	cmp	r7, #0
20001796:	f77f ad32 	ble.w	200011fe <_vfprintf_r+0x58e>
2000179a:	2f10      	cmp	r7, #16
2000179c:	f8df 8534 	ldr.w	r8, [pc, #1332]	; 20001cd4 <_vfprintf_r+0x1064>
200017a0:	f340 82ea 	ble.w	20001d78 <_vfprintf_r+0x1108>
200017a4:	4642      	mov	r2, r8
200017a6:	f50d 6aa8 	add.w	sl, sp, #1344	; 0x540
200017aa:	46a8      	mov	r8, r5
200017ac:	2410      	movs	r4, #16
200017ae:	f10a 0a0c 	add.w	sl, sl, #12
200017b2:	4615      	mov	r5, r2
200017b4:	e003      	b.n	200017be <_vfprintf_r+0xb4e>
200017b6:	3f10      	subs	r7, #16
200017b8:	2f10      	cmp	r7, #16
200017ba:	f340 82da 	ble.w	20001d72 <_vfprintf_r+0x1102>
200017be:	605c      	str	r4, [r3, #4]
200017c0:	f8dd 2550 	ldr.w	r2, [sp, #1360]	; 0x550
200017c4:	f8dd 1554 	ldr.w	r1, [sp, #1364]	; 0x554
200017c8:	3201      	adds	r2, #1
200017ca:	601d      	str	r5, [r3, #0]
200017cc:	3110      	adds	r1, #16
200017ce:	2a07      	cmp	r2, #7
200017d0:	f8cd 1554 	str.w	r1, [sp, #1364]	; 0x554
200017d4:	f103 0308 	add.w	r3, r3, #8
200017d8:	f8cd 2550 	str.w	r2, [sp, #1360]	; 0x550
200017dc:	ddeb      	ble.n	200017b6 <_vfprintf_r+0xb46>
200017de:	4648      	mov	r0, r9
200017e0:	4631      	mov	r1, r6
200017e2:	4652      	mov	r2, sl
200017e4:	f7ff fa36 	bl	20000c54 <__sprint_r>
200017e8:	f50d 639c 	add.w	r3, sp, #1248	; 0x4e0
200017ec:	3304      	adds	r3, #4
200017ee:	2800      	cmp	r0, #0
200017f0:	d0e1      	beq.n	200017b6 <_vfprintf_r+0xb46>
200017f2:	f7ff bb5d 	b.w	20000eb0 <_vfprintf_r+0x240>
200017f6:	b97b      	cbnz	r3, 20001818 <_vfprintf_r+0xba8>
200017f8:	990a      	ldr	r1, [sp, #40]	; 0x28
200017fa:	f011 0f01 	tst.w	r1, #1
200017fe:	d00b      	beq.n	20001818 <_vfprintf_r+0xba8>
20001800:	f50d 62a4 	add.w	r2, sp, #1312	; 0x520
20001804:	2330      	movs	r3, #48	; 0x30
20001806:	3204      	adds	r2, #4
20001808:	f88d 354b 	strb.w	r3, [sp, #1355]	; 0x54b
2000180c:	3227      	adds	r2, #39	; 0x27
2000180e:	2301      	movs	r3, #1
20001810:	9213      	str	r2, [sp, #76]	; 0x4c
20001812:	9310      	str	r3, [sp, #64]	; 0x40
20001814:	f7ff bbf3 	b.w	20000ffe <_vfprintf_r+0x38e>
20001818:	9818      	ldr	r0, [sp, #96]	; 0x60
2000181a:	2100      	movs	r1, #0
2000181c:	9110      	str	r1, [sp, #64]	; 0x40
2000181e:	9013      	str	r0, [sp, #76]	; 0x4c
20001820:	f7ff bbed 	b.w	20000ffe <_vfprintf_r+0x38e>
20001824:	980f      	ldr	r0, [sp, #60]	; 0x3c
20001826:	990c      	ldr	r1, [sp, #48]	; 0x30
20001828:	1a47      	subs	r7, r0, r1
2000182a:	2f00      	cmp	r7, #0
2000182c:	f77f ac84 	ble.w	20001138 <_vfprintf_r+0x4c8>
20001830:	2f10      	cmp	r7, #16
20001832:	f8df 84a0 	ldr.w	r8, [pc, #1184]	; 20001cd4 <_vfprintf_r+0x1064>
20001836:	dd2e      	ble.n	20001896 <_vfprintf_r+0xc26>
20001838:	4643      	mov	r3, r8
2000183a:	f50d 6ba8 	add.w	fp, sp, #1344	; 0x540
2000183e:	46a8      	mov	r8, r5
20001840:	f04f 0a10 	mov.w	sl, #16
20001844:	f10b 0b0c 	add.w	fp, fp, #12
20001848:	461d      	mov	r5, r3
2000184a:	e002      	b.n	20001852 <_vfprintf_r+0xbe2>
2000184c:	3f10      	subs	r7, #16
2000184e:	2f10      	cmp	r7, #16
20001850:	dd1e      	ble.n	20001890 <_vfprintf_r+0xc20>
20001852:	f8c4 a004 	str.w	sl, [r4, #4]
20001856:	f8dd 3550 	ldr.w	r3, [sp, #1360]	; 0x550
2000185a:	f8dd 2554 	ldr.w	r2, [sp, #1364]	; 0x554
2000185e:	3301      	adds	r3, #1
20001860:	6025      	str	r5, [r4, #0]
20001862:	3210      	adds	r2, #16
20001864:	2b07      	cmp	r3, #7
20001866:	f8cd 2554 	str.w	r2, [sp, #1364]	; 0x554
2000186a:	f104 0408 	add.w	r4, r4, #8
2000186e:	f8cd 3550 	str.w	r3, [sp, #1360]	; 0x550
20001872:	ddeb      	ble.n	2000184c <_vfprintf_r+0xbdc>
20001874:	f50d 649c 	add.w	r4, sp, #1248	; 0x4e0
20001878:	4648      	mov	r0, r9
2000187a:	4631      	mov	r1, r6
2000187c:	465a      	mov	r2, fp
2000187e:	3404      	adds	r4, #4
20001880:	f7ff f9e8 	bl	20000c54 <__sprint_r>
20001884:	2800      	cmp	r0, #0
20001886:	f47f ab13 	bne.w	20000eb0 <_vfprintf_r+0x240>
2000188a:	3f10      	subs	r7, #16
2000188c:	2f10      	cmp	r7, #16
2000188e:	dce0      	bgt.n	20001852 <_vfprintf_r+0xbe2>
20001890:	462b      	mov	r3, r5
20001892:	4645      	mov	r5, r8
20001894:	4698      	mov	r8, r3
20001896:	6067      	str	r7, [r4, #4]
20001898:	f8dd 3550 	ldr.w	r3, [sp, #1360]	; 0x550
2000189c:	f8c4 8000 	str.w	r8, [r4]
200018a0:	1c5a      	adds	r2, r3, #1
200018a2:	f8dd 3554 	ldr.w	r3, [sp, #1364]	; 0x554
200018a6:	f8cd 2550 	str.w	r2, [sp, #1360]	; 0x550
200018aa:	19db      	adds	r3, r3, r7
200018ac:	2a07      	cmp	r2, #7
200018ae:	f8cd 3554 	str.w	r3, [sp, #1364]	; 0x554
200018b2:	f300 823a 	bgt.w	20001d2a <_vfprintf_r+0x10ba>
200018b6:	3408      	adds	r4, #8
200018b8:	e43e      	b.n	20001138 <_vfprintf_r+0x4c8>
200018ba:	9913      	ldr	r1, [sp, #76]	; 0x4c
200018bc:	6063      	str	r3, [r4, #4]
200018be:	f8dd 2550 	ldr.w	r2, [sp, #1360]	; 0x550
200018c2:	6021      	str	r1, [r4, #0]
200018c4:	f8dd 1554 	ldr.w	r1, [sp, #1364]	; 0x554
200018c8:	3201      	adds	r2, #1
200018ca:	f8cd 2550 	str.w	r2, [sp, #1360]	; 0x550
200018ce:	18cb      	adds	r3, r1, r3
200018d0:	2a07      	cmp	r2, #7
200018d2:	f8cd 3554 	str.w	r3, [sp, #1364]	; 0x554
200018d6:	f300 8549 	bgt.w	2000236c <_vfprintf_r+0x16fc>
200018da:	3408      	adds	r4, #8
200018dc:	9a1d      	ldr	r2, [sp, #116]	; 0x74
200018de:	2301      	movs	r3, #1
200018e0:	f8dd 7570 	ldr.w	r7, [sp, #1392]	; 0x570
200018e4:	6063      	str	r3, [r4, #4]
200018e6:	f8dd 3550 	ldr.w	r3, [sp, #1360]	; 0x550
200018ea:	6022      	str	r2, [r4, #0]
200018ec:	f8dd 2554 	ldr.w	r2, [sp, #1364]	; 0x554
200018f0:	3301      	adds	r3, #1
200018f2:	f8cd 3550 	str.w	r3, [sp, #1360]	; 0x550
200018f6:	3201      	adds	r2, #1
200018f8:	2b07      	cmp	r3, #7
200018fa:	f8cd 2554 	str.w	r2, [sp, #1364]	; 0x554
200018fe:	bfd8      	it	le
20001900:	f104 0308 	addle.w	r3, r4, #8
20001904:	f300 8523 	bgt.w	2000234e <_vfprintf_r+0x16de>
20001908:	9813      	ldr	r0, [sp, #76]	; 0x4c
2000190a:	f8dd 2570 	ldr.w	r2, [sp, #1392]	; 0x570
2000190e:	19c7      	adds	r7, r0, r7
20001910:	981a      	ldr	r0, [sp, #104]	; 0x68
20001912:	601f      	str	r7, [r3, #0]
20001914:	1a81      	subs	r1, r0, r2
20001916:	6059      	str	r1, [r3, #4]
20001918:	f8dd 1554 	ldr.w	r1, [sp, #1364]	; 0x554
2000191c:	1a8a      	subs	r2, r1, r2
2000191e:	f8dd 1550 	ldr.w	r1, [sp, #1360]	; 0x550
20001922:	1812      	adds	r2, r2, r0
20001924:	f8cd 2554 	str.w	r2, [sp, #1364]	; 0x554
20001928:	3101      	adds	r1, #1
2000192a:	f8cd 1550 	str.w	r1, [sp, #1360]	; 0x550
2000192e:	2907      	cmp	r1, #7
20001930:	f340 8232 	ble.w	20001d98 <_vfprintf_r+0x1128>
20001934:	f50d 62a8 	add.w	r2, sp, #1344	; 0x540
20001938:	4648      	mov	r0, r9
2000193a:	4631      	mov	r1, r6
2000193c:	320c      	adds	r2, #12
2000193e:	f7ff f989 	bl	20000c54 <__sprint_r>
20001942:	2800      	cmp	r0, #0
20001944:	f47f aab4 	bne.w	20000eb0 <_vfprintf_r+0x240>
20001948:	f50d 639c 	add.w	r3, sp, #1248	; 0x4e0
2000194c:	3304      	adds	r3, #4
2000194e:	e456      	b.n	200011fe <_vfprintf_r+0x58e>
20001950:	f50d 62a8 	add.w	r2, sp, #1344	; 0x540
20001954:	4648      	mov	r0, r9
20001956:	4631      	mov	r1, r6
20001958:	320c      	adds	r2, #12
2000195a:	f7ff f97b 	bl	20000c54 <__sprint_r>
2000195e:	2800      	cmp	r0, #0
20001960:	f43f acb4 	beq.w	200012cc <_vfprintf_r+0x65c>
20001964:	f7ff baa4 	b.w	20000eb0 <_vfprintf_r+0x240>
20001968:	991a      	ldr	r1, [sp, #104]	; 0x68
2000196a:	2901      	cmp	r1, #1
2000196c:	dd4c      	ble.n	20001a08 <_vfprintf_r+0xd98>
2000196e:	2301      	movs	r3, #1
20001970:	6063      	str	r3, [r4, #4]
20001972:	f8dd 3550 	ldr.w	r3, [sp, #1360]	; 0x550
20001976:	f8dd 2554 	ldr.w	r2, [sp, #1364]	; 0x554
2000197a:	3301      	adds	r3, #1
2000197c:	9813      	ldr	r0, [sp, #76]	; 0x4c
2000197e:	3201      	adds	r2, #1
20001980:	2b07      	cmp	r3, #7
20001982:	f8cd 2554 	str.w	r2, [sp, #1364]	; 0x554
20001986:	6020      	str	r0, [r4, #0]
20001988:	f8cd 3550 	str.w	r3, [sp, #1360]	; 0x550
2000198c:	f300 81b2 	bgt.w	20001cf4 <_vfprintf_r+0x1084>
20001990:	3408      	adds	r4, #8
20001992:	2301      	movs	r3, #1
20001994:	6063      	str	r3, [r4, #4]
20001996:	f8dd 3550 	ldr.w	r3, [sp, #1360]	; 0x550
2000199a:	f8dd 2554 	ldr.w	r2, [sp, #1364]	; 0x554
2000199e:	3301      	adds	r3, #1
200019a0:	991d      	ldr	r1, [sp, #116]	; 0x74
200019a2:	3201      	adds	r2, #1
200019a4:	2b07      	cmp	r3, #7
200019a6:	f8cd 2554 	str.w	r2, [sp, #1364]	; 0x554
200019aa:	6021      	str	r1, [r4, #0]
200019ac:	f8cd 3550 	str.w	r3, [sp, #1360]	; 0x550
200019b0:	f300 8192 	bgt.w	20001cd8 <_vfprintf_r+0x1068>
200019b4:	3408      	adds	r4, #8
200019b6:	9812      	ldr	r0, [sp, #72]	; 0x48
200019b8:	2200      	movs	r2, #0
200019ba:	2300      	movs	r3, #0
200019bc:	991b      	ldr	r1, [sp, #108]	; 0x6c
200019be:	f004 fed9 	bl	20006774 <__aeabi_dcmpeq>
200019c2:	2800      	cmp	r0, #0
200019c4:	f040 811d 	bne.w	20001c02 <_vfprintf_r+0xf92>
200019c8:	9b1a      	ldr	r3, [sp, #104]	; 0x68
200019ca:	9813      	ldr	r0, [sp, #76]	; 0x4c
200019cc:	1e5a      	subs	r2, r3, #1
200019ce:	6062      	str	r2, [r4, #4]
200019d0:	f8dd 3550 	ldr.w	r3, [sp, #1360]	; 0x550
200019d4:	1c41      	adds	r1, r0, #1
200019d6:	6021      	str	r1, [r4, #0]
200019d8:	f8dd 1554 	ldr.w	r1, [sp, #1364]	; 0x554
200019dc:	3301      	adds	r3, #1
200019de:	f8cd 3550 	str.w	r3, [sp, #1360]	; 0x550
200019e2:	188a      	adds	r2, r1, r2
200019e4:	2b07      	cmp	r3, #7
200019e6:	f8cd 2554 	str.w	r2, [sp, #1364]	; 0x554
200019ea:	dc21      	bgt.n	20001a30 <_vfprintf_r+0xdc0>
200019ec:	3408      	adds	r4, #8
200019ee:	9b1c      	ldr	r3, [sp, #112]	; 0x70
200019f0:	f50d 62ac 	add.w	r2, sp, #1376	; 0x560
200019f4:	981c      	ldr	r0, [sp, #112]	; 0x70
200019f6:	6022      	str	r2, [r4, #0]
200019f8:	6063      	str	r3, [r4, #4]
200019fa:	f8dd 3550 	ldr.w	r3, [sp, #1360]	; 0x550
200019fe:	f8dd 2554 	ldr.w	r2, [sp, #1364]	; 0x554
20001a02:	3301      	adds	r3, #1
20001a04:	f7ff bbf0 	b.w	200011e8 <_vfprintf_r+0x578>
20001a08:	9a0a      	ldr	r2, [sp, #40]	; 0x28
20001a0a:	f012 0f01 	tst.w	r2, #1
20001a0e:	d1ae      	bne.n	2000196e <_vfprintf_r+0xcfe>
20001a10:	9a13      	ldr	r2, [sp, #76]	; 0x4c
20001a12:	2301      	movs	r3, #1
20001a14:	6063      	str	r3, [r4, #4]
20001a16:	f8dd 3550 	ldr.w	r3, [sp, #1360]	; 0x550
20001a1a:	6022      	str	r2, [r4, #0]
20001a1c:	f8dd 2554 	ldr.w	r2, [sp, #1364]	; 0x554
20001a20:	3301      	adds	r3, #1
20001a22:	f8cd 3550 	str.w	r3, [sp, #1360]	; 0x550
20001a26:	3201      	adds	r2, #1
20001a28:	2b07      	cmp	r3, #7
20001a2a:	f8cd 2554 	str.w	r2, [sp, #1364]	; 0x554
20001a2e:	dddd      	ble.n	200019ec <_vfprintf_r+0xd7c>
20001a30:	f50d 62a8 	add.w	r2, sp, #1344	; 0x540
20001a34:	4648      	mov	r0, r9
20001a36:	4631      	mov	r1, r6
20001a38:	320c      	adds	r2, #12
20001a3a:	f7ff f90b 	bl	20000c54 <__sprint_r>
20001a3e:	2800      	cmp	r0, #0
20001a40:	f47f aa36 	bne.w	20000eb0 <_vfprintf_r+0x240>
20001a44:	f50d 649c 	add.w	r4, sp, #1248	; 0x4e0
20001a48:	3404      	adds	r4, #4
20001a4a:	e7d0      	b.n	200019ee <_vfprintf_r+0xd7e>
20001a4c:	f50d 62a8 	add.w	r2, sp, #1344	; 0x540
20001a50:	4648      	mov	r0, r9
20001a52:	4631      	mov	r1, r6
20001a54:	320c      	adds	r2, #12
20001a56:	f7ff f8fd 	bl	20000c54 <__sprint_r>
20001a5a:	2800      	cmp	r0, #0
20001a5c:	f47f aa28 	bne.w	20000eb0 <_vfprintf_r+0x240>
20001a60:	f50d 649c 	add.w	r4, sp, #1248	; 0x4e0
20001a64:	3404      	adds	r4, #4
20001a66:	f7ff bbb0 	b.w	200011ca <_vfprintf_r+0x55a>
20001a6a:	f50d 62a8 	add.w	r2, sp, #1344	; 0x540
20001a6e:	4648      	mov	r0, r9
20001a70:	4631      	mov	r1, r6
20001a72:	320c      	adds	r2, #12
20001a74:	f7ff f8ee 	bl	20000c54 <__sprint_r>
20001a78:	2800      	cmp	r0, #0
20001a7a:	f47f aa19 	bne.w	20000eb0 <_vfprintf_r+0x240>
20001a7e:	f50d 649c 	add.w	r4, sp, #1248	; 0x4e0
20001a82:	3404      	adds	r4, #4
20001a84:	f7ff bb3c 	b.w	20001100 <_vfprintf_r+0x490>
20001a88:	f50d 62a8 	add.w	r2, sp, #1344	; 0x540
20001a8c:	4648      	mov	r0, r9
20001a8e:	4631      	mov	r1, r6
20001a90:	320c      	adds	r2, #12
20001a92:	f7ff f8df 	bl	20000c54 <__sprint_r>
20001a96:	2800      	cmp	r0, #0
20001a98:	f47f aa0a 	bne.w	20000eb0 <_vfprintf_r+0x240>
20001a9c:	f50d 649c 	add.w	r4, sp, #1248	; 0x4e0
20001aa0:	3404      	adds	r4, #4
20001aa2:	f7ff bb43 	b.w	2000112c <_vfprintf_r+0x4bc>
20001aa6:	f8dd 3570 	ldr.w	r3, [sp, #1392]	; 0x570
20001aaa:	2b00      	cmp	r3, #0
20001aac:	f340 81fd 	ble.w	20001eaa <_vfprintf_r+0x123a>
20001ab0:	991a      	ldr	r1, [sp, #104]	; 0x68
20001ab2:	428b      	cmp	r3, r1
20001ab4:	f6ff af01 	blt.w	200018ba <_vfprintf_r+0xc4a>
20001ab8:	9a13      	ldr	r2, [sp, #76]	; 0x4c
20001aba:	6061      	str	r1, [r4, #4]
20001abc:	f8dd 3550 	ldr.w	r3, [sp, #1360]	; 0x550
20001ac0:	6022      	str	r2, [r4, #0]
20001ac2:	f8dd 2554 	ldr.w	r2, [sp, #1364]	; 0x554
20001ac6:	3301      	adds	r3, #1
20001ac8:	f8cd 3550 	str.w	r3, [sp, #1360]	; 0x550
20001acc:	1852      	adds	r2, r2, r1
20001ace:	2b07      	cmp	r3, #7
20001ad0:	f8cd 2554 	str.w	r2, [sp, #1364]	; 0x554
20001ad4:	bfd8      	it	le
20001ad6:	f104 0308 	addle.w	r3, r4, #8
20001ada:	f300 8429 	bgt.w	20002330 <_vfprintf_r+0x16c0>
20001ade:	f8dd 4570 	ldr.w	r4, [sp, #1392]	; 0x570
20001ae2:	981a      	ldr	r0, [sp, #104]	; 0x68
20001ae4:	1a24      	subs	r4, r4, r0
20001ae6:	2c00      	cmp	r4, #0
20001ae8:	f340 81b3 	ble.w	20001e52 <_vfprintf_r+0x11e2>
20001aec:	2c10      	cmp	r4, #16
20001aee:	f8df 81e4 	ldr.w	r8, [pc, #484]	; 20001cd4 <_vfprintf_r+0x1064>
20001af2:	f340 819d 	ble.w	20001e30 <_vfprintf_r+0x11c0>
20001af6:	4642      	mov	r2, r8
20001af8:	f50d 6aa8 	add.w	sl, sp, #1344	; 0x540
20001afc:	46a8      	mov	r8, r5
20001afe:	2710      	movs	r7, #16
20001b00:	f10a 0a0c 	add.w	sl, sl, #12
20001b04:	4615      	mov	r5, r2
20001b06:	e003      	b.n	20001b10 <_vfprintf_r+0xea0>
20001b08:	3c10      	subs	r4, #16
20001b0a:	2c10      	cmp	r4, #16
20001b0c:	f340 818d 	ble.w	20001e2a <_vfprintf_r+0x11ba>
20001b10:	605f      	str	r7, [r3, #4]
20001b12:	f8dd 2550 	ldr.w	r2, [sp, #1360]	; 0x550
20001b16:	f8dd 1554 	ldr.w	r1, [sp, #1364]	; 0x554
20001b1a:	3201      	adds	r2, #1
20001b1c:	601d      	str	r5, [r3, #0]
20001b1e:	3110      	adds	r1, #16
20001b20:	2a07      	cmp	r2, #7
20001b22:	f8cd 1554 	str.w	r1, [sp, #1364]	; 0x554
20001b26:	f103 0308 	add.w	r3, r3, #8
20001b2a:	f8cd 2550 	str.w	r2, [sp, #1360]	; 0x550
20001b2e:	ddeb      	ble.n	20001b08 <_vfprintf_r+0xe98>
20001b30:	4648      	mov	r0, r9
20001b32:	4631      	mov	r1, r6
20001b34:	4652      	mov	r2, sl
20001b36:	f7ff f88d 	bl	20000c54 <__sprint_r>
20001b3a:	f50d 639c 	add.w	r3, sp, #1248	; 0x4e0
20001b3e:	3304      	adds	r3, #4
20001b40:	2800      	cmp	r0, #0
20001b42:	d0e1      	beq.n	20001b08 <_vfprintf_r+0xe98>
20001b44:	f7ff b9b4 	b.w	20000eb0 <_vfprintf_r+0x240>
20001b48:	9a18      	ldr	r2, [sp, #96]	; 0x60
20001b4a:	9819      	ldr	r0, [sp, #100]	; 0x64
20001b4c:	4613      	mov	r3, r2
20001b4e:	9213      	str	r2, [sp, #76]	; 0x4c
20001b50:	f00a 020f 	and.w	r2, sl, #15
20001b54:	ea4f 111a 	mov.w	r1, sl, lsr #4
20001b58:	ea41 710b 	orr.w	r1, r1, fp, lsl #28
20001b5c:	ea4f 1c1b 	mov.w	ip, fp, lsr #4
20001b60:	5c82      	ldrb	r2, [r0, r2]
20001b62:	468a      	mov	sl, r1
20001b64:	46e3      	mov	fp, ip
20001b66:	ea5a 0c0b 	orrs.w	ip, sl, fp
20001b6a:	f803 2d01 	strb.w	r2, [r3, #-1]!
20001b6e:	d1ef      	bne.n	20001b50 <_vfprintf_r+0xee0>
20001b70:	9818      	ldr	r0, [sp, #96]	; 0x60
20001b72:	9313      	str	r3, [sp, #76]	; 0x4c
20001b74:	1ac0      	subs	r0, r0, r3
20001b76:	9010      	str	r0, [sp, #64]	; 0x40
20001b78:	f7ff ba41 	b.w	20000ffe <_vfprintf_r+0x38e>
20001b7c:	2209      	movs	r2, #9
20001b7e:	2300      	movs	r3, #0
20001b80:	4552      	cmp	r2, sl
20001b82:	eb73 000b 	sbcs.w	r0, r3, fp
20001b86:	f8dd 8060 	ldr.w	r8, [sp, #96]	; 0x60
20001b8a:	d21f      	bcs.n	20001bcc <_vfprintf_r+0xf5c>
20001b8c:	4623      	mov	r3, r4
20001b8e:	4644      	mov	r4, r8
20001b90:	46b8      	mov	r8, r7
20001b92:	461f      	mov	r7, r3
20001b94:	4650      	mov	r0, sl
20001b96:	4659      	mov	r1, fp
20001b98:	220a      	movs	r2, #10
20001b9a:	2300      	movs	r3, #0
20001b9c:	f004 fe44 	bl	20006828 <__aeabi_uldivmod>
20001ba0:	2300      	movs	r3, #0
20001ba2:	4650      	mov	r0, sl
20001ba4:	4659      	mov	r1, fp
20001ba6:	f102 0c30 	add.w	ip, r2, #48	; 0x30
20001baa:	220a      	movs	r2, #10
20001bac:	f804 cd01 	strb.w	ip, [r4, #-1]!
20001bb0:	f004 fe3a 	bl	20006828 <__aeabi_uldivmod>
20001bb4:	2209      	movs	r2, #9
20001bb6:	2300      	movs	r3, #0
20001bb8:	4682      	mov	sl, r0
20001bba:	468b      	mov	fp, r1
20001bbc:	4552      	cmp	r2, sl
20001bbe:	eb73 030b 	sbcs.w	r3, r3, fp
20001bc2:	d3e7      	bcc.n	20001b94 <_vfprintf_r+0xf24>
20001bc4:	463b      	mov	r3, r7
20001bc6:	4647      	mov	r7, r8
20001bc8:	46a0      	mov	r8, r4
20001bca:	461c      	mov	r4, r3
20001bcc:	f108 30ff 	add.w	r0, r8, #4294967295
20001bd0:	f10a 0a30 	add.w	sl, sl, #48	; 0x30
20001bd4:	9013      	str	r0, [sp, #76]	; 0x4c
20001bd6:	f808 ac01 	strb.w	sl, [r8, #-1]
20001bda:	9918      	ldr	r1, [sp, #96]	; 0x60
20001bdc:	1a09      	subs	r1, r1, r0
20001bde:	9110      	str	r1, [sp, #64]	; 0x40
20001be0:	f7ff ba0d 	b.w	20000ffe <_vfprintf_r+0x38e>
20001be4:	f50d 62a8 	add.w	r2, sp, #1344	; 0x540
20001be8:	4648      	mov	r0, r9
20001bea:	4631      	mov	r1, r6
20001bec:	320c      	adds	r2, #12
20001bee:	f7ff f831 	bl	20000c54 <__sprint_r>
20001bf2:	2800      	cmp	r0, #0
20001bf4:	f47f a95c 	bne.w	20000eb0 <_vfprintf_r+0x240>
20001bf8:	f50d 649c 	add.w	r4, sp, #1248	; 0x4e0
20001bfc:	3404      	adds	r4, #4
20001bfe:	f7ff ba68 	b.w	200010d2 <_vfprintf_r+0x462>
20001c02:	991a      	ldr	r1, [sp, #104]	; 0x68
20001c04:	1e4f      	subs	r7, r1, #1
20001c06:	2f00      	cmp	r7, #0
20001c08:	f77f aef1 	ble.w	200019ee <_vfprintf_r+0xd7e>
20001c0c:	2f10      	cmp	r7, #16
20001c0e:	f8df 80c4 	ldr.w	r8, [pc, #196]	; 20001cd4 <_vfprintf_r+0x1064>
20001c12:	dd4e      	ble.n	20001cb2 <_vfprintf_r+0x1042>
20001c14:	4643      	mov	r3, r8
20001c16:	f50d 6ba8 	add.w	fp, sp, #1344	; 0x540
20001c1a:	46a8      	mov	r8, r5
20001c1c:	f04f 0a10 	mov.w	sl, #16
20001c20:	f10b 0b0c 	add.w	fp, fp, #12
20001c24:	461d      	mov	r5, r3
20001c26:	e002      	b.n	20001c2e <_vfprintf_r+0xfbe>
20001c28:	3f10      	subs	r7, #16
20001c2a:	2f10      	cmp	r7, #16
20001c2c:	dd3e      	ble.n	20001cac <_vfprintf_r+0x103c>
20001c2e:	f8c4 a004 	str.w	sl, [r4, #4]
20001c32:	f8dd 3550 	ldr.w	r3, [sp, #1360]	; 0x550
20001c36:	f8dd 2554 	ldr.w	r2, [sp, #1364]	; 0x554
20001c3a:	3301      	adds	r3, #1
20001c3c:	6025      	str	r5, [r4, #0]
20001c3e:	3210      	adds	r2, #16
20001c40:	2b07      	cmp	r3, #7
20001c42:	f8cd 2554 	str.w	r2, [sp, #1364]	; 0x554
20001c46:	f104 0408 	add.w	r4, r4, #8
20001c4a:	f8cd 3550 	str.w	r3, [sp, #1360]	; 0x550
20001c4e:	ddeb      	ble.n	20001c28 <_vfprintf_r+0xfb8>
20001c50:	f50d 649c 	add.w	r4, sp, #1248	; 0x4e0
20001c54:	4648      	mov	r0, r9
20001c56:	4631      	mov	r1, r6
20001c58:	465a      	mov	r2, fp
20001c5a:	3404      	adds	r4, #4
20001c5c:	f7fe fffa 	bl	20000c54 <__sprint_r>
20001c60:	2800      	cmp	r0, #0
20001c62:	d0e1      	beq.n	20001c28 <_vfprintf_r+0xfb8>
20001c64:	f7ff b924 	b.w	20000eb0 <_vfprintf_r+0x240>
20001c68:	9816      	ldr	r0, [sp, #88]	; 0x58
20001c6a:	2130      	movs	r1, #48	; 0x30
20001c6c:	f8dd c028 	ldr.w	ip, [sp, #40]	; 0x28
20001c70:	2201      	movs	r2, #1
20001c72:	2302      	movs	r3, #2
20001c74:	f88d 1574 	strb.w	r1, [sp, #1396]	; 0x574
20001c78:	f04c 0c02 	orr.w	ip, ip, #2
20001c7c:	f88d 0575 	strb.w	r0, [sp, #1397]	; 0x575
20001c80:	f8cd c028 	str.w	ip, [sp, #40]	; 0x28
20001c84:	f7ff b986 	b.w	20000f94 <_vfprintf_r+0x324>
20001c88:	980b      	ldr	r0, [sp, #44]	; 0x2c
20001c8a:	1d01      	adds	r1, r0, #4
20001c8c:	6803      	ldr	r3, [r0, #0]
20001c8e:	910b      	str	r1, [sp, #44]	; 0x2c
20001c90:	469a      	mov	sl, r3
20001c92:	f04f 0b00 	mov.w	fp, #0
20001c96:	f7ff b973 	b.w	20000f80 <_vfprintf_r+0x310>
20001c9a:	980b      	ldr	r0, [sp, #44]	; 0x2c
20001c9c:	1d01      	adds	r1, r0, #4
20001c9e:	6803      	ldr	r3, [r0, #0]
20001ca0:	910b      	str	r1, [sp, #44]	; 0x2c
20001ca2:	469a      	mov	sl, r3
20001ca4:	ea4f 7bea 	mov.w	fp, sl, asr #31
20001ca8:	f7ff bbad 	b.w	20001406 <_vfprintf_r+0x796>
20001cac:	462b      	mov	r3, r5
20001cae:	4645      	mov	r5, r8
20001cb0:	4698      	mov	r8, r3
20001cb2:	6067      	str	r7, [r4, #4]
20001cb4:	f8dd 3550 	ldr.w	r3, [sp, #1360]	; 0x550
20001cb8:	f8dd 2554 	ldr.w	r2, [sp, #1364]	; 0x554
20001cbc:	3301      	adds	r3, #1
20001cbe:	f8c4 8000 	str.w	r8, [r4]
20001cc2:	19d2      	adds	r2, r2, r7
20001cc4:	2b07      	cmp	r3, #7
20001cc6:	f8cd 2554 	str.w	r2, [sp, #1364]	; 0x554
20001cca:	f8cd 3550 	str.w	r3, [sp, #1360]	; 0x550
20001cce:	f77f ae8d 	ble.w	200019ec <_vfprintf_r+0xd7c>
20001cd2:	e6ad      	b.n	20001a30 <_vfprintf_r+0xdc0>
20001cd4:	20006f68 	.word	0x20006f68
20001cd8:	f50d 62a8 	add.w	r2, sp, #1344	; 0x540
20001cdc:	4648      	mov	r0, r9
20001cde:	4631      	mov	r1, r6
20001ce0:	320c      	adds	r2, #12
20001ce2:	f7fe ffb7 	bl	20000c54 <__sprint_r>
20001ce6:	2800      	cmp	r0, #0
20001ce8:	f47f a8e2 	bne.w	20000eb0 <_vfprintf_r+0x240>
20001cec:	f50d 649c 	add.w	r4, sp, #1248	; 0x4e0
20001cf0:	3404      	adds	r4, #4
20001cf2:	e660      	b.n	200019b6 <_vfprintf_r+0xd46>
20001cf4:	f50d 62a8 	add.w	r2, sp, #1344	; 0x540
20001cf8:	4648      	mov	r0, r9
20001cfa:	4631      	mov	r1, r6
20001cfc:	320c      	adds	r2, #12
20001cfe:	f7fe ffa9 	bl	20000c54 <__sprint_r>
20001d02:	2800      	cmp	r0, #0
20001d04:	f47f a8d4 	bne.w	20000eb0 <_vfprintf_r+0x240>
20001d08:	f50d 649c 	add.w	r4, sp, #1248	; 0x4e0
20001d0c:	3404      	adds	r4, #4
20001d0e:	e640      	b.n	20001992 <_vfprintf_r+0xd22>
20001d10:	2830      	cmp	r0, #48	; 0x30
20001d12:	f000 82ec 	beq.w	200022ee <_vfprintf_r+0x167e>
20001d16:	9813      	ldr	r0, [sp, #76]	; 0x4c
20001d18:	2330      	movs	r3, #48	; 0x30
20001d1a:	f800 3d01 	strb.w	r3, [r0, #-1]!
20001d1e:	9918      	ldr	r1, [sp, #96]	; 0x60
20001d20:	9013      	str	r0, [sp, #76]	; 0x4c
20001d22:	1a09      	subs	r1, r1, r0
20001d24:	9110      	str	r1, [sp, #64]	; 0x40
20001d26:	f7ff b96a 	b.w	20000ffe <_vfprintf_r+0x38e>
20001d2a:	f50d 62a8 	add.w	r2, sp, #1344	; 0x540
20001d2e:	4648      	mov	r0, r9
20001d30:	4631      	mov	r1, r6
20001d32:	320c      	adds	r2, #12
20001d34:	f7fe ff8e 	bl	20000c54 <__sprint_r>
20001d38:	2800      	cmp	r0, #0
20001d3a:	f47f a8b9 	bne.w	20000eb0 <_vfprintf_r+0x240>
20001d3e:	f50d 649c 	add.w	r4, sp, #1248	; 0x4e0
20001d42:	3404      	adds	r4, #4
20001d44:	f7ff b9f8 	b.w	20001138 <_vfprintf_r+0x4c8>
20001d48:	f1da 0a00 	rsbs	sl, sl, #0
20001d4c:	eb6b 0b4b 	sbc.w	fp, fp, fp, lsl #1
20001d50:	232d      	movs	r3, #45	; 0x2d
20001d52:	ea5a 0c0b 	orrs.w	ip, sl, fp
20001d56:	f88d 3577 	strb.w	r3, [sp, #1399]	; 0x577
20001d5a:	bf0c      	ite	eq
20001d5c:	2200      	moveq	r2, #0
20001d5e:	2201      	movne	r2, #1
20001d60:	2301      	movs	r3, #1
20001d62:	f7ff b91b 	b.w	20000f9c <_vfprintf_r+0x32c>
20001d66:	990b      	ldr	r1, [sp, #44]	; 0x2c
20001d68:	462b      	mov	r3, r5
20001d6a:	782a      	ldrb	r2, [r5, #0]
20001d6c:	910b      	str	r1, [sp, #44]	; 0x2c
20001d6e:	f7ff b82a 	b.w	20000dc6 <_vfprintf_r+0x156>
20001d72:	462a      	mov	r2, r5
20001d74:	4645      	mov	r5, r8
20001d76:	4690      	mov	r8, r2
20001d78:	605f      	str	r7, [r3, #4]
20001d7a:	f8dd 2550 	ldr.w	r2, [sp, #1360]	; 0x550
20001d7e:	f8dd 1554 	ldr.w	r1, [sp, #1364]	; 0x554
20001d82:	3201      	adds	r2, #1
20001d84:	f8c3 8000 	str.w	r8, [r3]
20001d88:	19c9      	adds	r1, r1, r7
20001d8a:	2a07      	cmp	r2, #7
20001d8c:	f8cd 1554 	str.w	r1, [sp, #1364]	; 0x554
20001d90:	f8cd 2550 	str.w	r2, [sp, #1360]	; 0x550
20001d94:	f73f adce 	bgt.w	20001934 <_vfprintf_r+0xcc4>
20001d98:	3308      	adds	r3, #8
20001d9a:	f7ff ba30 	b.w	200011fe <_vfprintf_r+0x58e>
20001d9e:	980a      	ldr	r0, [sp, #40]	; 0x28
20001da0:	f010 0340 	ands.w	r3, r0, #64	; 0x40
20001da4:	f000 81ed 	beq.w	20002182 <_vfprintf_r+0x1512>
20001da8:	990b      	ldr	r1, [sp, #44]	; 0x2c
20001daa:	4613      	mov	r3, r2
20001dac:	1d0a      	adds	r2, r1, #4
20001dae:	920b      	str	r2, [sp, #44]	; 0x2c
20001db0:	f8b1 a000 	ldrh.w	sl, [r1]
20001db4:	f1ba 0200 	subs.w	r2, sl, #0
20001db8:	bf18      	it	ne
20001dba:	2201      	movne	r2, #1
20001dbc:	46d2      	mov	sl, sl
20001dbe:	f04f 0b00 	mov.w	fp, #0
20001dc2:	f7ff b8e7 	b.w	20000f94 <_vfprintf_r+0x324>
20001dc6:	9b0a      	ldr	r3, [sp, #40]	; 0x28
20001dc8:	f013 0f40 	tst.w	r3, #64	; 0x40
20001dcc:	f000 81cc 	beq.w	20002168 <_vfprintf_r+0x14f8>
20001dd0:	980b      	ldr	r0, [sp, #44]	; 0x2c
20001dd2:	2301      	movs	r3, #1
20001dd4:	1d01      	adds	r1, r0, #4
20001dd6:	910b      	str	r1, [sp, #44]	; 0x2c
20001dd8:	f8b0 a000 	ldrh.w	sl, [r0]
20001ddc:	f1ba 0200 	subs.w	r2, sl, #0
20001de0:	bf18      	it	ne
20001de2:	2201      	movne	r2, #1
20001de4:	46d2      	mov	sl, sl
20001de6:	f04f 0b00 	mov.w	fp, #0
20001dea:	f7ff b8d3 	b.w	20000f94 <_vfprintf_r+0x324>
20001dee:	9b0a      	ldr	r3, [sp, #40]	; 0x28
20001df0:	f013 0f10 	tst.w	r3, #16
20001df4:	f000 81a4 	beq.w	20002140 <_vfprintf_r+0x14d0>
20001df8:	980b      	ldr	r0, [sp, #44]	; 0x2c
20001dfa:	9911      	ldr	r1, [sp, #68]	; 0x44
20001dfc:	f100 0a04 	add.w	sl, r0, #4
20001e00:	6803      	ldr	r3, [r0, #0]
20001e02:	6019      	str	r1, [r3, #0]
20001e04:	f7fe bf9c 	b.w	20000d40 <_vfprintf_r+0xd0>
20001e08:	980b      	ldr	r0, [sp, #44]	; 0x2c
20001e0a:	1dc3      	adds	r3, r0, #7
20001e0c:	f023 0307 	bic.w	r3, r3, #7
20001e10:	f103 0108 	add.w	r1, r3, #8
20001e14:	910b      	str	r1, [sp, #44]	; 0x2c
20001e16:	f8d3 8004 	ldr.w	r8, [r3, #4]
20001e1a:	f8d3 a000 	ldr.w	sl, [r3]
20001e1e:	f8cd 806c 	str.w	r8, [sp, #108]	; 0x6c
20001e22:	f8cd a048 	str.w	sl, [sp, #72]	; 0x48
20001e26:	f7ff bb11 	b.w	2000144c <_vfprintf_r+0x7dc>
20001e2a:	462a      	mov	r2, r5
20001e2c:	4645      	mov	r5, r8
20001e2e:	4690      	mov	r8, r2
20001e30:	605c      	str	r4, [r3, #4]
20001e32:	f8dd 2550 	ldr.w	r2, [sp, #1360]	; 0x550
20001e36:	f8dd 1554 	ldr.w	r1, [sp, #1364]	; 0x554
20001e3a:	3201      	adds	r2, #1
20001e3c:	f8c3 8000 	str.w	r8, [r3]
20001e40:	1909      	adds	r1, r1, r4
20001e42:	2a07      	cmp	r2, #7
20001e44:	f8cd 1554 	str.w	r1, [sp, #1364]	; 0x554
20001e48:	f8cd 2550 	str.w	r2, [sp, #1360]	; 0x550
20001e4c:	f300 82ea 	bgt.w	20002424 <_vfprintf_r+0x17b4>
20001e50:	3308      	adds	r3, #8
20001e52:	990a      	ldr	r1, [sp, #40]	; 0x28
20001e54:	f011 0f01 	tst.w	r1, #1
20001e58:	f43f a9d1 	beq.w	200011fe <_vfprintf_r+0x58e>
20001e5c:	2201      	movs	r2, #1
20001e5e:	605a      	str	r2, [r3, #4]
20001e60:	f8dd 2550 	ldr.w	r2, [sp, #1360]	; 0x550
20001e64:	f8dd 1554 	ldr.w	r1, [sp, #1364]	; 0x554
20001e68:	3201      	adds	r2, #1
20001e6a:	981d      	ldr	r0, [sp, #116]	; 0x74
20001e6c:	3101      	adds	r1, #1
20001e6e:	2a07      	cmp	r2, #7
20001e70:	f8cd 1554 	str.w	r1, [sp, #1364]	; 0x554
20001e74:	6018      	str	r0, [r3, #0]
20001e76:	f8cd 2550 	str.w	r2, [sp, #1360]	; 0x550
20001e7a:	f73f ad5b 	bgt.w	20001934 <_vfprintf_r+0xcc4>
20001e7e:	3308      	adds	r3, #8
20001e80:	f7ff b9bd 	b.w	200011fe <_vfprintf_r+0x58e>
20001e84:	232d      	movs	r3, #45	; 0x2d
20001e86:	f88d 3577 	strb.w	r3, [sp, #1399]	; 0x577
20001e8a:	f7ff baf2 	b.w	20001472 <_vfprintf_r+0x802>
20001e8e:	f50d 62a8 	add.w	r2, sp, #1344	; 0x540
20001e92:	4648      	mov	r0, r9
20001e94:	4631      	mov	r1, r6
20001e96:	320c      	adds	r2, #12
20001e98:	f7fe fedc 	bl	20000c54 <__sprint_r>
20001e9c:	2800      	cmp	r0, #0
20001e9e:	f47f a807 	bne.w	20000eb0 <_vfprintf_r+0x240>
20001ea2:	f50d 639c 	add.w	r3, sp, #1248	; 0x4e0
20001ea6:	3304      	adds	r3, #4
20001ea8:	e456      	b.n	20001758 <_vfprintf_r+0xae8>
20001eaa:	2301      	movs	r3, #1
20001eac:	6063      	str	r3, [r4, #4]
20001eae:	f8dd 2550 	ldr.w	r2, [sp, #1360]	; 0x550
20001eb2:	f646 73b8 	movw	r3, #28600	; 0x6fb8
20001eb6:	f2c2 0300 	movt	r3, #8192	; 0x2000
20001eba:	6023      	str	r3, [r4, #0]
20001ebc:	f8dd 3554 	ldr.w	r3, [sp, #1364]	; 0x554
20001ec0:	3201      	adds	r2, #1
20001ec2:	f8cd 2550 	str.w	r2, [sp, #1360]	; 0x550
20001ec6:	3301      	adds	r3, #1
20001ec8:	2a07      	cmp	r2, #7
20001eca:	f8cd 3554 	str.w	r3, [sp, #1364]	; 0x554
20001ece:	bfd8      	it	le
20001ed0:	f104 0308 	addle.w	r3, r4, #8
20001ed4:	f300 8187 	bgt.w	200021e6 <_vfprintf_r+0x1576>
20001ed8:	f8dd 2570 	ldr.w	r2, [sp, #1392]	; 0x570
20001edc:	b93a      	cbnz	r2, 20001eee <_vfprintf_r+0x127e>
20001ede:	9a1a      	ldr	r2, [sp, #104]	; 0x68
20001ee0:	b92a      	cbnz	r2, 20001eee <_vfprintf_r+0x127e>
20001ee2:	f8dd c028 	ldr.w	ip, [sp, #40]	; 0x28
20001ee6:	f01c 0f01 	tst.w	ip, #1
20001eea:	f43f a988 	beq.w	200011fe <_vfprintf_r+0x58e>
20001eee:	2201      	movs	r2, #1
20001ef0:	605a      	str	r2, [r3, #4]
20001ef2:	f8dd 2550 	ldr.w	r2, [sp, #1360]	; 0x550
20001ef6:	f8dd 1554 	ldr.w	r1, [sp, #1364]	; 0x554
20001efa:	3201      	adds	r2, #1
20001efc:	981d      	ldr	r0, [sp, #116]	; 0x74
20001efe:	3101      	adds	r1, #1
20001f00:	2a07      	cmp	r2, #7
20001f02:	f8cd 1554 	str.w	r1, [sp, #1364]	; 0x554
20001f06:	6018      	str	r0, [r3, #0]
20001f08:	f8cd 2550 	str.w	r2, [sp, #1360]	; 0x550
20001f0c:	f300 8179 	bgt.w	20002202 <_vfprintf_r+0x1592>
20001f10:	3308      	adds	r3, #8
20001f12:	f8dd 7570 	ldr.w	r7, [sp, #1392]	; 0x570
20001f16:	427f      	negs	r7, r7
20001f18:	2f00      	cmp	r7, #0
20001f1a:	f340 81b3 	ble.w	20002284 <_vfprintf_r+0x1614>
20001f1e:	2f10      	cmp	r7, #16
20001f20:	f8df 8650 	ldr.w	r8, [pc, #1616]	; 20002574 <_vfprintf_r+0x1904>
20001f24:	f340 81d2 	ble.w	200022cc <_vfprintf_r+0x165c>
20001f28:	4642      	mov	r2, r8
20001f2a:	f50d 6aa8 	add.w	sl, sp, #1344	; 0x540
20001f2e:	46a8      	mov	r8, r5
20001f30:	2410      	movs	r4, #16
20001f32:	f10a 0a0c 	add.w	sl, sl, #12
20001f36:	4615      	mov	r5, r2
20001f38:	e003      	b.n	20001f42 <_vfprintf_r+0x12d2>
20001f3a:	3f10      	subs	r7, #16
20001f3c:	2f10      	cmp	r7, #16
20001f3e:	f340 81c2 	ble.w	200022c6 <_vfprintf_r+0x1656>
20001f42:	605c      	str	r4, [r3, #4]
20001f44:	f8dd 2550 	ldr.w	r2, [sp, #1360]	; 0x550
20001f48:	f8dd 1554 	ldr.w	r1, [sp, #1364]	; 0x554
20001f4c:	3201      	adds	r2, #1
20001f4e:	601d      	str	r5, [r3, #0]
20001f50:	3110      	adds	r1, #16
20001f52:	2a07      	cmp	r2, #7
20001f54:	f8cd 1554 	str.w	r1, [sp, #1364]	; 0x554
20001f58:	f103 0308 	add.w	r3, r3, #8
20001f5c:	f8cd 2550 	str.w	r2, [sp, #1360]	; 0x550
20001f60:	ddeb      	ble.n	20001f3a <_vfprintf_r+0x12ca>
20001f62:	4648      	mov	r0, r9
20001f64:	4631      	mov	r1, r6
20001f66:	4652      	mov	r2, sl
20001f68:	f7fe fe74 	bl	20000c54 <__sprint_r>
20001f6c:	f50d 639c 	add.w	r3, sp, #1248	; 0x4e0
20001f70:	3304      	adds	r3, #4
20001f72:	2800      	cmp	r0, #0
20001f74:	d0e1      	beq.n	20001f3a <_vfprintf_r+0x12ca>
20001f76:	f7fe bf9b 	b.w	20000eb0 <_vfprintf_r+0x240>
20001f7a:	990b      	ldr	r1, [sp, #44]	; 0x2c
20001f7c:	1c6b      	adds	r3, r5, #1
20001f7e:	9a0a      	ldr	r2, [sp, #40]	; 0x28
20001f80:	f042 0220 	orr.w	r2, r2, #32
20001f84:	920a      	str	r2, [sp, #40]	; 0x28
20001f86:	786a      	ldrb	r2, [r5, #1]
20001f88:	910b      	str	r1, [sp, #44]	; 0x2c
20001f8a:	f7fe bf1c 	b.w	20000dc6 <_vfprintf_r+0x156>
20001f8e:	4650      	mov	r0, sl
20001f90:	4641      	mov	r1, r8
20001f92:	f003 fc09 	bl	200057a8 <__isnand>
20001f96:	2800      	cmp	r0, #0
20001f98:	f040 80ff 	bne.w	2000219a <_vfprintf_r+0x152a>
20001f9c:	f1b7 3fff 	cmp.w	r7, #4294967295
20001fa0:	f000 8251 	beq.w	20002446 <_vfprintf_r+0x17d6>
20001fa4:	9816      	ldr	r0, [sp, #88]	; 0x58
20001fa6:	2867      	cmp	r0, #103	; 0x67
20001fa8:	bf14      	ite	ne
20001faa:	2300      	movne	r3, #0
20001fac:	2301      	moveq	r3, #1
20001fae:	2847      	cmp	r0, #71	; 0x47
20001fb0:	bf08      	it	eq
20001fb2:	f043 0301 	orreq.w	r3, r3, #1
20001fb6:	b113      	cbz	r3, 20001fbe <_vfprintf_r+0x134e>
20001fb8:	2f00      	cmp	r7, #0
20001fba:	bf08      	it	eq
20001fbc:	2701      	moveq	r7, #1
20001fbe:	f50d 60ab 	add.w	r0, sp, #1368	; 0x558
20001fc2:	4643      	mov	r3, r8
20001fc4:	4652      	mov	r2, sl
20001fc6:	990a      	ldr	r1, [sp, #40]	; 0x28
20001fc8:	e9c0 2300 	strd	r2, r3, [r0]
20001fcc:	f8dd 355c 	ldr.w	r3, [sp, #1372]	; 0x55c
20001fd0:	f441 7180 	orr.w	r1, r1, #256	; 0x100
20001fd4:	910a      	str	r1, [sp, #40]	; 0x28
20001fd6:	2b00      	cmp	r3, #0
20001fd8:	f2c0 8264 	blt.w	200024a4 <_vfprintf_r+0x1834>
20001fdc:	2100      	movs	r1, #0
20001fde:	9117      	str	r1, [sp, #92]	; 0x5c
20001fe0:	9816      	ldr	r0, [sp, #88]	; 0x58
20001fe2:	2866      	cmp	r0, #102	; 0x66
20001fe4:	bf14      	ite	ne
20001fe6:	2300      	movne	r3, #0
20001fe8:	2301      	moveq	r3, #1
20001fea:	2846      	cmp	r0, #70	; 0x46
20001fec:	bf08      	it	eq
20001fee:	f043 0301 	orreq.w	r3, r3, #1
20001ff2:	9310      	str	r3, [sp, #64]	; 0x40
20001ff4:	2b00      	cmp	r3, #0
20001ff6:	f000 81d1 	beq.w	2000239c <_vfprintf_r+0x172c>
20001ffa:	46bc      	mov	ip, r7
20001ffc:	2303      	movs	r3, #3
20001ffe:	f8cd a030 	str.w	sl, [sp, #48]	; 0x30
20002002:	f50d 61ae 	add.w	r1, sp, #1392	; 0x570
20002006:	f8cd 8034 	str.w	r8, [sp, #52]	; 0x34
2000200a:	4648      	mov	r0, r9
2000200c:	9300      	str	r3, [sp, #0]
2000200e:	9102      	str	r1, [sp, #8]
20002010:	f50d 61ac 	add.w	r1, sp, #1376	; 0x560
20002014:	e9dd 230c 	ldrd	r2, r3, [sp, #48]	; 0x30
20002018:	310c      	adds	r1, #12
2000201a:	f8cd c004 	str.w	ip, [sp, #4]
2000201e:	9103      	str	r1, [sp, #12]
20002020:	f50d 61ad 	add.w	r1, sp, #1384	; 0x568
20002024:	f8cd c024 	str.w	ip, [sp, #36]	; 0x24
20002028:	9104      	str	r1, [sp, #16]
2000202a:	f000 fbc5 	bl	200027b8 <_dtoa_r>
2000202e:	9a16      	ldr	r2, [sp, #88]	; 0x58
20002030:	f8dd c024 	ldr.w	ip, [sp, #36]	; 0x24
20002034:	f1b2 0367 	subs.w	r3, r2, #103	; 0x67
20002038:	bf18      	it	ne
2000203a:	2301      	movne	r3, #1
2000203c:	2a47      	cmp	r2, #71	; 0x47
2000203e:	bf0c      	ite	eq
20002040:	2300      	moveq	r3, #0
20002042:	f003 0301 	andne.w	r3, r3, #1
20002046:	9013      	str	r0, [sp, #76]	; 0x4c
20002048:	b933      	cbnz	r3, 20002058 <_vfprintf_r+0x13e8>
2000204a:	9b0a      	ldr	r3, [sp, #40]	; 0x28
2000204c:	f013 0f01 	tst.w	r3, #1
20002050:	bf08      	it	eq
20002052:	f8dd b568 	ldreq.w	fp, [sp, #1384]	; 0x568
20002056:	d016      	beq.n	20002086 <_vfprintf_r+0x1416>
20002058:	9813      	ldr	r0, [sp, #76]	; 0x4c
2000205a:	9910      	ldr	r1, [sp, #64]	; 0x40
2000205c:	eb00 0b0c 	add.w	fp, r0, ip
20002060:	b131      	cbz	r1, 20002070 <_vfprintf_r+0x1400>
20002062:	7803      	ldrb	r3, [r0, #0]
20002064:	2b30      	cmp	r3, #48	; 0x30
20002066:	f000 80da 	beq.w	2000221e <_vfprintf_r+0x15ae>
2000206a:	f8dd 3570 	ldr.w	r3, [sp, #1392]	; 0x570
2000206e:	449b      	add	fp, r3
20002070:	4650      	mov	r0, sl
20002072:	2200      	movs	r2, #0
20002074:	2300      	movs	r3, #0
20002076:	4641      	mov	r1, r8
20002078:	f004 fb7c 	bl	20006774 <__aeabi_dcmpeq>
2000207c:	2800      	cmp	r0, #0
2000207e:	f000 81c2 	beq.w	20002406 <_vfprintf_r+0x1796>
20002082:	f8cd b568 	str.w	fp, [sp, #1384]	; 0x568
20002086:	9a16      	ldr	r2, [sp, #88]	; 0x58
20002088:	9813      	ldr	r0, [sp, #76]	; 0x4c
2000208a:	2a67      	cmp	r2, #103	; 0x67
2000208c:	bf14      	ite	ne
2000208e:	2300      	movne	r3, #0
20002090:	2301      	moveq	r3, #1
20002092:	2a47      	cmp	r2, #71	; 0x47
20002094:	bf08      	it	eq
20002096:	f043 0301 	orreq.w	r3, r3, #1
2000209a:	ebc0 000b 	rsb	r0, r0, fp
2000209e:	901a      	str	r0, [sp, #104]	; 0x68
200020a0:	2b00      	cmp	r3, #0
200020a2:	f000 818a 	beq.w	200023ba <_vfprintf_r+0x174a>
200020a6:	f8dd 1570 	ldr.w	r1, [sp, #1392]	; 0x570
200020aa:	f111 0f03 	cmn.w	r1, #3
200020ae:	9110      	str	r1, [sp, #64]	; 0x40
200020b0:	db02      	blt.n	200020b8 <_vfprintf_r+0x1448>
200020b2:	428f      	cmp	r7, r1
200020b4:	f280 818c 	bge.w	200023d0 <_vfprintf_r+0x1760>
200020b8:	9a16      	ldr	r2, [sp, #88]	; 0x58
200020ba:	3a02      	subs	r2, #2
200020bc:	9216      	str	r2, [sp, #88]	; 0x58
200020be:	9910      	ldr	r1, [sp, #64]	; 0x40
200020c0:	9a16      	ldr	r2, [sp, #88]	; 0x58
200020c2:	1e4b      	subs	r3, r1, #1
200020c4:	f8cd 3570 	str.w	r3, [sp, #1392]	; 0x570
200020c8:	2b00      	cmp	r3, #0
200020ca:	f88d 2560 	strb.w	r2, [sp, #1376]	; 0x560
200020ce:	f2c0 8234 	blt.w	2000253a <_vfprintf_r+0x18ca>
200020d2:	222b      	movs	r2, #43	; 0x2b
200020d4:	f88d 2561 	strb.w	r2, [sp, #1377]	; 0x561
200020d8:	2b09      	cmp	r3, #9
200020da:	f300 81b6 	bgt.w	2000244a <_vfprintf_r+0x17da>
200020de:	f50d 62ac 	add.w	r2, sp, #1376	; 0x560
200020e2:	3330      	adds	r3, #48	; 0x30
200020e4:	3204      	adds	r2, #4
200020e6:	f88d 3563 	strb.w	r3, [sp, #1379]	; 0x563
200020ea:	2330      	movs	r3, #48	; 0x30
200020ec:	f88d 3562 	strb.w	r3, [sp, #1378]	; 0x562
200020f0:	f50d 63ac 	add.w	r3, sp, #1376	; 0x560
200020f4:	981a      	ldr	r0, [sp, #104]	; 0x68
200020f6:	991a      	ldr	r1, [sp, #104]	; 0x68
200020f8:	1ad3      	subs	r3, r2, r3
200020fa:	1818      	adds	r0, r3, r0
200020fc:	931c      	str	r3, [sp, #112]	; 0x70
200020fe:	2901      	cmp	r1, #1
20002100:	9010      	str	r0, [sp, #64]	; 0x40
20002102:	f340 8210 	ble.w	20002526 <_vfprintf_r+0x18b6>
20002106:	9810      	ldr	r0, [sp, #64]	; 0x40
20002108:	3001      	adds	r0, #1
2000210a:	9010      	str	r0, [sp, #64]	; 0x40
2000210c:	ea20 71e0 	bic.w	r1, r0, r0, asr #31
20002110:	910c      	str	r1, [sp, #48]	; 0x30
20002112:	9817      	ldr	r0, [sp, #92]	; 0x5c
20002114:	2800      	cmp	r0, #0
20002116:	f000 816e 	beq.w	200023f6 <_vfprintf_r+0x1786>
2000211a:	232d      	movs	r3, #45	; 0x2d
2000211c:	2100      	movs	r1, #0
2000211e:	f88d 3577 	strb.w	r3, [sp, #1399]	; 0x577
20002122:	9117      	str	r1, [sp, #92]	; 0x5c
20002124:	f7fe bf74 	b.w	20001010 <_vfprintf_r+0x3a0>
20002128:	9a10      	ldr	r2, [sp, #64]	; 0x40
2000212a:	f04f 0c00 	mov.w	ip, #0
2000212e:	f89d 3577 	ldrb.w	r3, [sp, #1399]	; 0x577
20002132:	ea22 72e2 	bic.w	r2, r2, r2, asr #31
20002136:	f8cd c05c 	str.w	ip, [sp, #92]	; 0x5c
2000213a:	920c      	str	r2, [sp, #48]	; 0x30
2000213c:	f7fe bf67 	b.w	2000100e <_vfprintf_r+0x39e>
20002140:	9a0a      	ldr	r2, [sp, #40]	; 0x28
20002142:	f012 0f40 	tst.w	r2, #64	; 0x40
20002146:	bf17      	itett	ne
20002148:	980b      	ldrne	r0, [sp, #44]	; 0x2c
2000214a:	9a0b      	ldreq	r2, [sp, #44]	; 0x2c
2000214c:	9911      	ldrne	r1, [sp, #68]	; 0x44
2000214e:	f100 0a04 	addne.w	sl, r0, #4
20002152:	bf11      	iteee	ne
20002154:	6803      	ldrne	r3, [r0, #0]
20002156:	f102 0a04 	addeq.w	sl, r2, #4
2000215a:	6813      	ldreq	r3, [r2, #0]
2000215c:	9811      	ldreq	r0, [sp, #68]	; 0x44
2000215e:	bf14      	ite	ne
20002160:	8019      	strhne	r1, [r3, #0]
20002162:	6018      	streq	r0, [r3, #0]
20002164:	f7fe bdec 	b.w	20000d40 <_vfprintf_r+0xd0>
20002168:	9a0b      	ldr	r2, [sp, #44]	; 0x2c
2000216a:	1d13      	adds	r3, r2, #4
2000216c:	930b      	str	r3, [sp, #44]	; 0x2c
2000216e:	6811      	ldr	r1, [r2, #0]
20002170:	2301      	movs	r3, #1
20002172:	1e0a      	subs	r2, r1, #0
20002174:	bf18      	it	ne
20002176:	2201      	movne	r2, #1
20002178:	468a      	mov	sl, r1
2000217a:	f04f 0b00 	mov.w	fp, #0
2000217e:	f7fe bf09 	b.w	20000f94 <_vfprintf_r+0x324>
20002182:	980b      	ldr	r0, [sp, #44]	; 0x2c
20002184:	1d02      	adds	r2, r0, #4
20002186:	920b      	str	r2, [sp, #44]	; 0x2c
20002188:	6801      	ldr	r1, [r0, #0]
2000218a:	1e0a      	subs	r2, r1, #0
2000218c:	bf18      	it	ne
2000218e:	2201      	movne	r2, #1
20002190:	468a      	mov	sl, r1
20002192:	f04f 0b00 	mov.w	fp, #0
20002196:	f7fe befd 	b.w	20000f94 <_vfprintf_r+0x324>
2000219a:	f646 7298 	movw	r2, #28568	; 0x6f98
2000219e:	f646 7394 	movw	r3, #28564	; 0x6f94
200021a2:	9916      	ldr	r1, [sp, #88]	; 0x58
200021a4:	f2c2 0300 	movt	r3, #8192	; 0x2000
200021a8:	f2c2 0200 	movt	r2, #8192	; 0x2000
200021ac:	2003      	movs	r0, #3
200021ae:	2947      	cmp	r1, #71	; 0x47
200021b0:	bfd8      	it	le
200021b2:	461a      	movle	r2, r3
200021b4:	9213      	str	r2, [sp, #76]	; 0x4c
200021b6:	9a0a      	ldr	r2, [sp, #40]	; 0x28
200021b8:	900c      	str	r0, [sp, #48]	; 0x30
200021ba:	f022 0280 	bic.w	r2, r2, #128	; 0x80
200021be:	f8cd b05c 	str.w	fp, [sp, #92]	; 0x5c
200021c2:	920a      	str	r2, [sp, #40]	; 0x28
200021c4:	f89d 3577 	ldrb.w	r3, [sp, #1399]	; 0x577
200021c8:	9010      	str	r0, [sp, #64]	; 0x40
200021ca:	f7fe bf20 	b.w	2000100e <_vfprintf_r+0x39e>
200021ce:	f50d 62a8 	add.w	r2, sp, #1344	; 0x540
200021d2:	4648      	mov	r0, r9
200021d4:	4631      	mov	r1, r6
200021d6:	320c      	adds	r2, #12
200021d8:	f7fe fd3c 	bl	20000c54 <__sprint_r>
200021dc:	2800      	cmp	r0, #0
200021de:	f47e ae67 	bne.w	20000eb0 <_vfprintf_r+0x240>
200021e2:	f7fe be62 	b.w	20000eaa <_vfprintf_r+0x23a>
200021e6:	f50d 62a8 	add.w	r2, sp, #1344	; 0x540
200021ea:	4648      	mov	r0, r9
200021ec:	4631      	mov	r1, r6
200021ee:	320c      	adds	r2, #12
200021f0:	f7fe fd30 	bl	20000c54 <__sprint_r>
200021f4:	2800      	cmp	r0, #0
200021f6:	f47e ae5b 	bne.w	20000eb0 <_vfprintf_r+0x240>
200021fa:	f50d 639c 	add.w	r3, sp, #1248	; 0x4e0
200021fe:	3304      	adds	r3, #4
20002200:	e66a      	b.n	20001ed8 <_vfprintf_r+0x1268>
20002202:	f50d 62a8 	add.w	r2, sp, #1344	; 0x540
20002206:	4648      	mov	r0, r9
20002208:	4631      	mov	r1, r6
2000220a:	320c      	adds	r2, #12
2000220c:	f7fe fd22 	bl	20000c54 <__sprint_r>
20002210:	2800      	cmp	r0, #0
20002212:	f47e ae4d 	bne.w	20000eb0 <_vfprintf_r+0x240>
20002216:	f50d 639c 	add.w	r3, sp, #1248	; 0x4e0
2000221a:	3304      	adds	r3, #4
2000221c:	e679      	b.n	20001f12 <_vfprintf_r+0x12a2>
2000221e:	4650      	mov	r0, sl
20002220:	2200      	movs	r2, #0
20002222:	2300      	movs	r3, #0
20002224:	4641      	mov	r1, r8
20002226:	f8cd c024 	str.w	ip, [sp, #36]	; 0x24
2000222a:	f004 faa3 	bl	20006774 <__aeabi_dcmpeq>
2000222e:	f8dd c024 	ldr.w	ip, [sp, #36]	; 0x24
20002232:	2800      	cmp	r0, #0
20002234:	f47f af19 	bne.w	2000206a <_vfprintf_r+0x13fa>
20002238:	f1cc 0301 	rsb	r3, ip, #1
2000223c:	f8cd 3570 	str.w	r3, [sp, #1392]	; 0x570
20002240:	e715      	b.n	2000206e <_vfprintf_r+0x13fe>
20002242:	9a0f      	ldr	r2, [sp, #60]	; 0x3c
20002244:	4252      	negs	r2, r2
20002246:	920f      	str	r2, [sp, #60]	; 0x3c
20002248:	f7ff b887 	b.w	2000135a <_vfprintf_r+0x6ea>
2000224c:	f50d 62a8 	add.w	r2, sp, #1344	; 0x540
20002250:	4648      	mov	r0, r9
20002252:	4631      	mov	r1, r6
20002254:	320c      	adds	r2, #12
20002256:	f7fe fcfd 	bl	20000c54 <__sprint_r>
2000225a:	2800      	cmp	r0, #0
2000225c:	f47e ae28 	bne.w	20000eb0 <_vfprintf_r+0x240>
20002260:	f50d 639c 	add.w	r3, sp, #1248	; 0x4e0
20002264:	3304      	adds	r3, #4
20002266:	f7ff ba93 	b.w	20001790 <_vfprintf_r+0xb20>
2000226a:	f50d 62a8 	add.w	r2, sp, #1344	; 0x540
2000226e:	4648      	mov	r0, r9
20002270:	4631      	mov	r1, r6
20002272:	320c      	adds	r2, #12
20002274:	f7fe fcee 	bl	20000c54 <__sprint_r>
20002278:	2800      	cmp	r0, #0
2000227a:	f47e ae19 	bne.w	20000eb0 <_vfprintf_r+0x240>
2000227e:	f50d 639c 	add.w	r3, sp, #1248	; 0x4e0
20002282:	3304      	adds	r3, #4
20002284:	991a      	ldr	r1, [sp, #104]	; 0x68
20002286:	9813      	ldr	r0, [sp, #76]	; 0x4c
20002288:	6059      	str	r1, [r3, #4]
2000228a:	f8dd 2550 	ldr.w	r2, [sp, #1360]	; 0x550
2000228e:	f8dd 1554 	ldr.w	r1, [sp, #1364]	; 0x554
20002292:	6018      	str	r0, [r3, #0]
20002294:	3201      	adds	r2, #1
20002296:	981a      	ldr	r0, [sp, #104]	; 0x68
20002298:	f8cd 2550 	str.w	r2, [sp, #1360]	; 0x550
2000229c:	1809      	adds	r1, r1, r0
2000229e:	2a07      	cmp	r2, #7
200022a0:	f8cd 1554 	str.w	r1, [sp, #1364]	; 0x554
200022a4:	f73f ab46 	bgt.w	20001934 <_vfprintf_r+0xcc4>
200022a8:	3308      	adds	r3, #8
200022aa:	f7fe bfa8 	b.w	200011fe <_vfprintf_r+0x58e>
200022ae:	2100      	movs	r1, #0
200022b0:	9117      	str	r1, [sp, #92]	; 0x5c
200022b2:	f003 fbd1 	bl	20005a58 <strlen>
200022b6:	f89d 3577 	ldrb.w	r3, [sp, #1399]	; 0x577
200022ba:	ea20 72e0 	bic.w	r2, r0, r0, asr #31
200022be:	9010      	str	r0, [sp, #64]	; 0x40
200022c0:	920c      	str	r2, [sp, #48]	; 0x30
200022c2:	f7fe bea4 	b.w	2000100e <_vfprintf_r+0x39e>
200022c6:	462a      	mov	r2, r5
200022c8:	4645      	mov	r5, r8
200022ca:	4690      	mov	r8, r2
200022cc:	605f      	str	r7, [r3, #4]
200022ce:	f8dd 2550 	ldr.w	r2, [sp, #1360]	; 0x550
200022d2:	f8dd 1554 	ldr.w	r1, [sp, #1364]	; 0x554
200022d6:	3201      	adds	r2, #1
200022d8:	f8c3 8000 	str.w	r8, [r3]
200022dc:	19c9      	adds	r1, r1, r7
200022de:	2a07      	cmp	r2, #7
200022e0:	f8cd 1554 	str.w	r1, [sp, #1364]	; 0x554
200022e4:	f8cd 2550 	str.w	r2, [sp, #1360]	; 0x550
200022e8:	dcbf      	bgt.n	2000226a <_vfprintf_r+0x15fa>
200022ea:	3308      	adds	r3, #8
200022ec:	e7ca      	b.n	20002284 <_vfprintf_r+0x1614>
200022ee:	9a18      	ldr	r2, [sp, #96]	; 0x60
200022f0:	9913      	ldr	r1, [sp, #76]	; 0x4c
200022f2:	1a51      	subs	r1, r2, r1
200022f4:	9110      	str	r1, [sp, #64]	; 0x40
200022f6:	f7fe be82 	b.w	20000ffe <_vfprintf_r+0x38e>
200022fa:	4648      	mov	r0, r9
200022fc:	4631      	mov	r1, r6
200022fe:	f000 f949 	bl	20002594 <__swsetup_r>
20002302:	2800      	cmp	r0, #0
20002304:	f47e add8 	bne.w	20000eb8 <_vfprintf_r+0x248>
20002308:	f8b6 c00c 	ldrh.w	ip, [r6, #12]
2000230c:	fa1f f38c 	uxth.w	r3, ip
20002310:	f7fe bcf6 	b.w	20000d00 <_vfprintf_r+0x90>
20002314:	2f06      	cmp	r7, #6
20002316:	bf28      	it	cs
20002318:	2706      	movcs	r7, #6
2000231a:	f646 71b0 	movw	r1, #28592	; 0x6fb0
2000231e:	f2c2 0100 	movt	r1, #8192	; 0x2000
20002322:	ea27 72e7 	bic.w	r2, r7, r7, asr #31
20002326:	9710      	str	r7, [sp, #64]	; 0x40
20002328:	9113      	str	r1, [sp, #76]	; 0x4c
2000232a:	920c      	str	r2, [sp, #48]	; 0x30
2000232c:	f7fe bfe8 	b.w	20001300 <_vfprintf_r+0x690>
20002330:	f50d 62a8 	add.w	r2, sp, #1344	; 0x540
20002334:	4648      	mov	r0, r9
20002336:	4631      	mov	r1, r6
20002338:	320c      	adds	r2, #12
2000233a:	f7fe fc8b 	bl	20000c54 <__sprint_r>
2000233e:	2800      	cmp	r0, #0
20002340:	f47e adb6 	bne.w	20000eb0 <_vfprintf_r+0x240>
20002344:	f50d 639c 	add.w	r3, sp, #1248	; 0x4e0
20002348:	3304      	adds	r3, #4
2000234a:	f7ff bbc8 	b.w	20001ade <_vfprintf_r+0xe6e>
2000234e:	f50d 62a8 	add.w	r2, sp, #1344	; 0x540
20002352:	4648      	mov	r0, r9
20002354:	4631      	mov	r1, r6
20002356:	320c      	adds	r2, #12
20002358:	f7fe fc7c 	bl	20000c54 <__sprint_r>
2000235c:	2800      	cmp	r0, #0
2000235e:	f47e ada7 	bne.w	20000eb0 <_vfprintf_r+0x240>
20002362:	f50d 639c 	add.w	r3, sp, #1248	; 0x4e0
20002366:	3304      	adds	r3, #4
20002368:	f7ff bace 	b.w	20001908 <_vfprintf_r+0xc98>
2000236c:	f50d 62a8 	add.w	r2, sp, #1344	; 0x540
20002370:	4648      	mov	r0, r9
20002372:	4631      	mov	r1, r6
20002374:	320c      	adds	r2, #12
20002376:	f7fe fc6d 	bl	20000c54 <__sprint_r>
2000237a:	2800      	cmp	r0, #0
2000237c:	f47e ad98 	bne.w	20000eb0 <_vfprintf_r+0x240>
20002380:	f50d 649c 	add.w	r4, sp, #1248	; 0x4e0
20002384:	3404      	adds	r4, #4
20002386:	f7ff baa9 	b.w	200018dc <_vfprintf_r+0xc6c>
2000238a:	9710      	str	r7, [sp, #64]	; 0x40
2000238c:	ea27 77e7 	bic.w	r7, r7, r7, asr #31
20002390:	9017      	str	r0, [sp, #92]	; 0x5c
20002392:	970c      	str	r7, [sp, #48]	; 0x30
20002394:	f89d 3577 	ldrb.w	r3, [sp, #1399]	; 0x577
20002398:	f7fe be39 	b.w	2000100e <_vfprintf_r+0x39e>
2000239c:	9916      	ldr	r1, [sp, #88]	; 0x58
2000239e:	2965      	cmp	r1, #101	; 0x65
200023a0:	bf14      	ite	ne
200023a2:	2300      	movne	r3, #0
200023a4:	2301      	moveq	r3, #1
200023a6:	2945      	cmp	r1, #69	; 0x45
200023a8:	bf08      	it	eq
200023aa:	f043 0301 	orreq.w	r3, r3, #1
200023ae:	2b00      	cmp	r3, #0
200023b0:	d046      	beq.n	20002440 <_vfprintf_r+0x17d0>
200023b2:	f107 0c01 	add.w	ip, r7, #1
200023b6:	2302      	movs	r3, #2
200023b8:	e621      	b.n	20001ffe <_vfprintf_r+0x138e>
200023ba:	9b16      	ldr	r3, [sp, #88]	; 0x58
200023bc:	2b65      	cmp	r3, #101	; 0x65
200023be:	dd76      	ble.n	200024ae <_vfprintf_r+0x183e>
200023c0:	9a16      	ldr	r2, [sp, #88]	; 0x58
200023c2:	2a66      	cmp	r2, #102	; 0x66
200023c4:	bf1c      	itt	ne
200023c6:	f8dd 3570 	ldrne.w	r3, [sp, #1392]	; 0x570
200023ca:	9310      	strne	r3, [sp, #64]	; 0x40
200023cc:	f000 8083 	beq.w	200024d6 <_vfprintf_r+0x1866>
200023d0:	9b1a      	ldr	r3, [sp, #104]	; 0x68
200023d2:	9810      	ldr	r0, [sp, #64]	; 0x40
200023d4:	4283      	cmp	r3, r0
200023d6:	dc6e      	bgt.n	200024b6 <_vfprintf_r+0x1846>
200023d8:	990a      	ldr	r1, [sp, #40]	; 0x28
200023da:	f011 0f01 	tst.w	r1, #1
200023de:	f040 808e 	bne.w	200024fe <_vfprintf_r+0x188e>
200023e2:	ea20 72e0 	bic.w	r2, r0, r0, asr #31
200023e6:	2367      	movs	r3, #103	; 0x67
200023e8:	920c      	str	r2, [sp, #48]	; 0x30
200023ea:	9316      	str	r3, [sp, #88]	; 0x58
200023ec:	e691      	b.n	20002112 <_vfprintf_r+0x14a2>
200023ee:	2700      	movs	r7, #0
200023f0:	461d      	mov	r5, r3
200023f2:	f7fe bce9 	b.w	20000dc8 <_vfprintf_r+0x158>
200023f6:	9910      	ldr	r1, [sp, #64]	; 0x40
200023f8:	f89d 3577 	ldrb.w	r3, [sp, #1399]	; 0x577
200023fc:	ea21 71e1 	bic.w	r1, r1, r1, asr #31
20002400:	910c      	str	r1, [sp, #48]	; 0x30
20002402:	f7fe be04 	b.w	2000100e <_vfprintf_r+0x39e>
20002406:	f8dd 3568 	ldr.w	r3, [sp, #1384]	; 0x568
2000240a:	459b      	cmp	fp, r3
2000240c:	bf98      	it	ls
2000240e:	469b      	movls	fp, r3
20002410:	f67f ae39 	bls.w	20002086 <_vfprintf_r+0x1416>
20002414:	2230      	movs	r2, #48	; 0x30
20002416:	f803 2b01 	strb.w	r2, [r3], #1
2000241a:	459b      	cmp	fp, r3
2000241c:	f8cd 3568 	str.w	r3, [sp, #1384]	; 0x568
20002420:	d8f9      	bhi.n	20002416 <_vfprintf_r+0x17a6>
20002422:	e630      	b.n	20002086 <_vfprintf_r+0x1416>
20002424:	f50d 62a8 	add.w	r2, sp, #1344	; 0x540
20002428:	4648      	mov	r0, r9
2000242a:	4631      	mov	r1, r6
2000242c:	320c      	adds	r2, #12
2000242e:	f7fe fc11 	bl	20000c54 <__sprint_r>
20002432:	2800      	cmp	r0, #0
20002434:	f47e ad3c 	bne.w	20000eb0 <_vfprintf_r+0x240>
20002438:	f50d 639c 	add.w	r3, sp, #1248	; 0x4e0
2000243c:	3304      	adds	r3, #4
2000243e:	e508      	b.n	20001e52 <_vfprintf_r+0x11e2>
20002440:	46bc      	mov	ip, r7
20002442:	3302      	adds	r3, #2
20002444:	e5db      	b.n	20001ffe <_vfprintf_r+0x138e>
20002446:	3707      	adds	r7, #7
20002448:	e5b9      	b.n	20001fbe <_vfprintf_r+0x134e>
2000244a:	f246 6c67 	movw	ip, #26215	; 0x6667
2000244e:	f50d 6190 	add.w	r1, sp, #1152	; 0x480
20002452:	3103      	adds	r1, #3
20002454:	f2c6 6c66 	movt	ip, #26214	; 0x6666
20002458:	fb8c 2003 	smull	r2, r0, ip, r3
2000245c:	17da      	asrs	r2, r3, #31
2000245e:	ebc2 02a0 	rsb	r2, r2, r0, asr #2
20002462:	eb02 0082 	add.w	r0, r2, r2, lsl #2
20002466:	eba3 0040 	sub.w	r0, r3, r0, lsl #1
2000246a:	4613      	mov	r3, r2
2000246c:	3030      	adds	r0, #48	; 0x30
2000246e:	2a09      	cmp	r2, #9
20002470:	f801 0d01 	strb.w	r0, [r1, #-1]!
20002474:	dcf0      	bgt.n	20002458 <_vfprintf_r+0x17e8>
20002476:	3330      	adds	r3, #48	; 0x30
20002478:	1e48      	subs	r0, r1, #1
2000247a:	b2da      	uxtb	r2, r3
2000247c:	f801 2c01 	strb.w	r2, [r1, #-1]
20002480:	9b07      	ldr	r3, [sp, #28]
20002482:	4283      	cmp	r3, r0
20002484:	d96a      	bls.n	2000255c <_vfprintf_r+0x18ec>
20002486:	f50d 63ac 	add.w	r3, sp, #1376	; 0x560
2000248a:	3303      	adds	r3, #3
2000248c:	e001      	b.n	20002492 <_vfprintf_r+0x1822>
2000248e:	f811 2b01 	ldrb.w	r2, [r1], #1
20002492:	f803 2c01 	strb.w	r2, [r3, #-1]
20002496:	461a      	mov	r2, r3
20002498:	f8dd c01c 	ldr.w	ip, [sp, #28]
2000249c:	3301      	adds	r3, #1
2000249e:	458c      	cmp	ip, r1
200024a0:	d8f5      	bhi.n	2000248e <_vfprintf_r+0x181e>
200024a2:	e625      	b.n	200020f0 <_vfprintf_r+0x1480>
200024a4:	222d      	movs	r2, #45	; 0x2d
200024a6:	f108 4800 	add.w	r8, r8, #2147483648	; 0x80000000
200024aa:	9217      	str	r2, [sp, #92]	; 0x5c
200024ac:	e598      	b.n	20001fe0 <_vfprintf_r+0x1370>
200024ae:	f8dd 0570 	ldr.w	r0, [sp, #1392]	; 0x570
200024b2:	9010      	str	r0, [sp, #64]	; 0x40
200024b4:	e603      	b.n	200020be <_vfprintf_r+0x144e>
200024b6:	9b10      	ldr	r3, [sp, #64]	; 0x40
200024b8:	991a      	ldr	r1, [sp, #104]	; 0x68
200024ba:	2b00      	cmp	r3, #0
200024bc:	bfda      	itte	le
200024be:	9810      	ldrle	r0, [sp, #64]	; 0x40
200024c0:	f1c0 0302 	rsble	r3, r0, #2
200024c4:	2301      	movgt	r3, #1
200024c6:	185b      	adds	r3, r3, r1
200024c8:	2267      	movs	r2, #103	; 0x67
200024ca:	9310      	str	r3, [sp, #64]	; 0x40
200024cc:	ea23 73e3 	bic.w	r3, r3, r3, asr #31
200024d0:	9216      	str	r2, [sp, #88]	; 0x58
200024d2:	930c      	str	r3, [sp, #48]	; 0x30
200024d4:	e61d      	b.n	20002112 <_vfprintf_r+0x14a2>
200024d6:	f8dd 0570 	ldr.w	r0, [sp, #1392]	; 0x570
200024da:	2800      	cmp	r0, #0
200024dc:	9010      	str	r0, [sp, #64]	; 0x40
200024de:	dd31      	ble.n	20002544 <_vfprintf_r+0x18d4>
200024e0:	b91f      	cbnz	r7, 200024ea <_vfprintf_r+0x187a>
200024e2:	990a      	ldr	r1, [sp, #40]	; 0x28
200024e4:	f011 0f01 	tst.w	r1, #1
200024e8:	d00e      	beq.n	20002508 <_vfprintf_r+0x1898>
200024ea:	9810      	ldr	r0, [sp, #64]	; 0x40
200024ec:	2166      	movs	r1, #102	; 0x66
200024ee:	9116      	str	r1, [sp, #88]	; 0x58
200024f0:	1c43      	adds	r3, r0, #1
200024f2:	19db      	adds	r3, r3, r7
200024f4:	9310      	str	r3, [sp, #64]	; 0x40
200024f6:	ea23 72e3 	bic.w	r2, r3, r3, asr #31
200024fa:	920c      	str	r2, [sp, #48]	; 0x30
200024fc:	e609      	b.n	20002112 <_vfprintf_r+0x14a2>
200024fe:	9810      	ldr	r0, [sp, #64]	; 0x40
20002500:	2167      	movs	r1, #103	; 0x67
20002502:	9116      	str	r1, [sp, #88]	; 0x58
20002504:	3001      	adds	r0, #1
20002506:	9010      	str	r0, [sp, #64]	; 0x40
20002508:	ea20 72e0 	bic.w	r2, r0, r0, asr #31
2000250c:	920c      	str	r2, [sp, #48]	; 0x30
2000250e:	e600      	b.n	20002112 <_vfprintf_r+0x14a2>
20002510:	990b      	ldr	r1, [sp, #44]	; 0x2c
20002512:	781a      	ldrb	r2, [r3, #0]
20002514:	680f      	ldr	r7, [r1, #0]
20002516:	3104      	adds	r1, #4
20002518:	910b      	str	r1, [sp, #44]	; 0x2c
2000251a:	2f00      	cmp	r7, #0
2000251c:	bfb8      	it	lt
2000251e:	f04f 37ff 	movlt.w	r7, #4294967295
20002522:	f7fe bc50 	b.w	20000dc6 <_vfprintf_r+0x156>
20002526:	9a0a      	ldr	r2, [sp, #40]	; 0x28
20002528:	f012 0f01 	tst.w	r2, #1
2000252c:	bf04      	itt	eq
2000252e:	ea20 73e0 	biceq.w	r3, r0, r0, asr #31
20002532:	930c      	streq	r3, [sp, #48]	; 0x30
20002534:	f43f aded 	beq.w	20002112 <_vfprintf_r+0x14a2>
20002538:	e5e5      	b.n	20002106 <_vfprintf_r+0x1496>
2000253a:	222d      	movs	r2, #45	; 0x2d
2000253c:	425b      	negs	r3, r3
2000253e:	f88d 2561 	strb.w	r2, [sp, #1377]	; 0x561
20002542:	e5c9      	b.n	200020d8 <_vfprintf_r+0x1468>
20002544:	b977      	cbnz	r7, 20002564 <_vfprintf_r+0x18f4>
20002546:	9b0a      	ldr	r3, [sp, #40]	; 0x28
20002548:	f013 0f01 	tst.w	r3, #1
2000254c:	d10a      	bne.n	20002564 <_vfprintf_r+0x18f4>
2000254e:	f04f 0c01 	mov.w	ip, #1
20002552:	f8cd c030 	str.w	ip, [sp, #48]	; 0x30
20002556:	f8cd c040 	str.w	ip, [sp, #64]	; 0x40
2000255a:	e5da      	b.n	20002112 <_vfprintf_r+0x14a2>
2000255c:	f50d 62ac 	add.w	r2, sp, #1376	; 0x560
20002560:	3202      	adds	r2, #2
20002562:	e5c5      	b.n	200020f0 <_vfprintf_r+0x1480>
20002564:	3702      	adds	r7, #2
20002566:	2166      	movs	r1, #102	; 0x66
20002568:	ea27 72e7 	bic.w	r2, r7, r7, asr #31
2000256c:	9710      	str	r7, [sp, #64]	; 0x40
2000256e:	9116      	str	r1, [sp, #88]	; 0x58
20002570:	920c      	str	r2, [sp, #48]	; 0x30
20002572:	e5ce      	b.n	20002112 <_vfprintf_r+0x14a2>
20002574:	20006f68 	.word	0x20006f68

20002578 <vfprintf>:
20002578:	b410      	push	{r4}
2000257a:	f247 14dc 	movw	r4, #29148	; 0x71dc
2000257e:	f2c2 0400 	movt	r4, #8192	; 0x2000
20002582:	468c      	mov	ip, r1
20002584:	4613      	mov	r3, r2
20002586:	4601      	mov	r1, r0
20002588:	4662      	mov	r2, ip
2000258a:	6820      	ldr	r0, [r4, #0]
2000258c:	bc10      	pop	{r4}
2000258e:	f7fe bb6f 	b.w	20000c70 <_vfprintf_r>
20002592:	bf00      	nop

20002594 <__swsetup_r>:
20002594:	b570      	push	{r4, r5, r6, lr}
20002596:	f247 15dc 	movw	r5, #29148	; 0x71dc
2000259a:	f2c2 0500 	movt	r5, #8192	; 0x2000
2000259e:	4606      	mov	r6, r0
200025a0:	460c      	mov	r4, r1
200025a2:	6828      	ldr	r0, [r5, #0]
200025a4:	b110      	cbz	r0, 200025ac <__swsetup_r+0x18>
200025a6:	6983      	ldr	r3, [r0, #24]
200025a8:	2b00      	cmp	r3, #0
200025aa:	d036      	beq.n	2000261a <__swsetup_r+0x86>
200025ac:	f646 73cc 	movw	r3, #28620	; 0x6fcc
200025b0:	f2c2 0300 	movt	r3, #8192	; 0x2000
200025b4:	429c      	cmp	r4, r3
200025b6:	d038      	beq.n	2000262a <__swsetup_r+0x96>
200025b8:	f646 73ec 	movw	r3, #28652	; 0x6fec
200025bc:	f2c2 0300 	movt	r3, #8192	; 0x2000
200025c0:	429c      	cmp	r4, r3
200025c2:	d041      	beq.n	20002648 <__swsetup_r+0xb4>
200025c4:	f247 030c 	movw	r3, #28684	; 0x700c
200025c8:	f2c2 0300 	movt	r3, #8192	; 0x2000
200025cc:	429c      	cmp	r4, r3
200025ce:	bf04      	itt	eq
200025d0:	682b      	ldreq	r3, [r5, #0]
200025d2:	68dc      	ldreq	r4, [r3, #12]
200025d4:	89a2      	ldrh	r2, [r4, #12]
200025d6:	4611      	mov	r1, r2
200025d8:	b293      	uxth	r3, r2
200025da:	f013 0f08 	tst.w	r3, #8
200025de:	4618      	mov	r0, r3
200025e0:	bf18      	it	ne
200025e2:	6922      	ldrne	r2, [r4, #16]
200025e4:	d033      	beq.n	2000264e <__swsetup_r+0xba>
200025e6:	b31a      	cbz	r2, 20002630 <__swsetup_r+0x9c>
200025e8:	f013 0101 	ands.w	r1, r3, #1
200025ec:	d007      	beq.n	200025fe <__swsetup_r+0x6a>
200025ee:	6963      	ldr	r3, [r4, #20]
200025f0:	2100      	movs	r1, #0
200025f2:	60a1      	str	r1, [r4, #8]
200025f4:	425b      	negs	r3, r3
200025f6:	61a3      	str	r3, [r4, #24]
200025f8:	b142      	cbz	r2, 2000260c <__swsetup_r+0x78>
200025fa:	2000      	movs	r0, #0
200025fc:	bd70      	pop	{r4, r5, r6, pc}
200025fe:	f013 0f02 	tst.w	r3, #2
20002602:	bf08      	it	eq
20002604:	6961      	ldreq	r1, [r4, #20]
20002606:	60a1      	str	r1, [r4, #8]
20002608:	2a00      	cmp	r2, #0
2000260a:	d1f6      	bne.n	200025fa <__swsetup_r+0x66>
2000260c:	89a3      	ldrh	r3, [r4, #12]
2000260e:	f013 0f80 	tst.w	r3, #128	; 0x80
20002612:	d0f2      	beq.n	200025fa <__swsetup_r+0x66>
20002614:	f04f 30ff 	mov.w	r0, #4294967295
20002618:	bd70      	pop	{r4, r5, r6, pc}
2000261a:	f001 f989 	bl	20003930 <__sinit>
2000261e:	f646 73cc 	movw	r3, #28620	; 0x6fcc
20002622:	f2c2 0300 	movt	r3, #8192	; 0x2000
20002626:	429c      	cmp	r4, r3
20002628:	d1c6      	bne.n	200025b8 <__swsetup_r+0x24>
2000262a:	682b      	ldr	r3, [r5, #0]
2000262c:	685c      	ldr	r4, [r3, #4]
2000262e:	e7d1      	b.n	200025d4 <__swsetup_r+0x40>
20002630:	f403 7120 	and.w	r1, r3, #640	; 0x280
20002634:	f5b1 7f00 	cmp.w	r1, #512	; 0x200
20002638:	d0d6      	beq.n	200025e8 <__swsetup_r+0x54>
2000263a:	4630      	mov	r0, r6
2000263c:	4621      	mov	r1, r4
2000263e:	f001 fcff 	bl	20004040 <__smakebuf_r>
20002642:	89a3      	ldrh	r3, [r4, #12]
20002644:	6922      	ldr	r2, [r4, #16]
20002646:	e7cf      	b.n	200025e8 <__swsetup_r+0x54>
20002648:	682b      	ldr	r3, [r5, #0]
2000264a:	689c      	ldr	r4, [r3, #8]
2000264c:	e7c2      	b.n	200025d4 <__swsetup_r+0x40>
2000264e:	f013 0f10 	tst.w	r3, #16
20002652:	d0df      	beq.n	20002614 <__swsetup_r+0x80>
20002654:	f013 0f04 	tst.w	r3, #4
20002658:	bf08      	it	eq
2000265a:	6922      	ldreq	r2, [r4, #16]
2000265c:	d017      	beq.n	2000268e <__swsetup_r+0xfa>
2000265e:	6b61      	ldr	r1, [r4, #52]	; 0x34
20002660:	b151      	cbz	r1, 20002678 <__swsetup_r+0xe4>
20002662:	f104 0344 	add.w	r3, r4, #68	; 0x44
20002666:	4299      	cmp	r1, r3
20002668:	d003      	beq.n	20002672 <__swsetup_r+0xde>
2000266a:	4630      	mov	r0, r6
2000266c:	f001 f9e4 	bl	20003a38 <_free_r>
20002670:	89a2      	ldrh	r2, [r4, #12]
20002672:	b290      	uxth	r0, r2
20002674:	2300      	movs	r3, #0
20002676:	6363      	str	r3, [r4, #52]	; 0x34
20002678:	6922      	ldr	r2, [r4, #16]
2000267a:	f64f 71db 	movw	r1, #65499	; 0xffdb
2000267e:	f2c0 0100 	movt	r1, #0
20002682:	2300      	movs	r3, #0
20002684:	ea00 0101 	and.w	r1, r0, r1
20002688:	6063      	str	r3, [r4, #4]
2000268a:	81a1      	strh	r1, [r4, #12]
2000268c:	6022      	str	r2, [r4, #0]
2000268e:	f041 0308 	orr.w	r3, r1, #8
20002692:	81a3      	strh	r3, [r4, #12]
20002694:	b29b      	uxth	r3, r3
20002696:	e7a6      	b.n	200025e6 <__swsetup_r+0x52>

20002698 <quorem>:
20002698:	e92d 4ff8 	stmdb	sp!, {r3, r4, r5, r6, r7, r8, r9, sl, fp, lr}
2000269c:	6903      	ldr	r3, [r0, #16]
2000269e:	690e      	ldr	r6, [r1, #16]
200026a0:	4682      	mov	sl, r0
200026a2:	4689      	mov	r9, r1
200026a4:	429e      	cmp	r6, r3
200026a6:	f300 8083 	bgt.w	200027b0 <quorem+0x118>
200026aa:	1cf2      	adds	r2, r6, #3
200026ac:	f101 0514 	add.w	r5, r1, #20
200026b0:	f100 0414 	add.w	r4, r0, #20
200026b4:	3e01      	subs	r6, #1
200026b6:	0092      	lsls	r2, r2, #2
200026b8:	188b      	adds	r3, r1, r2
200026ba:	1812      	adds	r2, r2, r0
200026bc:	f103 0804 	add.w	r8, r3, #4
200026c0:	6859      	ldr	r1, [r3, #4]
200026c2:	6850      	ldr	r0, [r2, #4]
200026c4:	3101      	adds	r1, #1
200026c6:	f003 faf7 	bl	20005cb8 <__aeabi_uidiv>
200026ca:	4607      	mov	r7, r0
200026cc:	2800      	cmp	r0, #0
200026ce:	d039      	beq.n	20002744 <quorem+0xac>
200026d0:	2300      	movs	r3, #0
200026d2:	469c      	mov	ip, r3
200026d4:	461a      	mov	r2, r3
200026d6:	58e9      	ldr	r1, [r5, r3]
200026d8:	58e0      	ldr	r0, [r4, r3]
200026da:	fa1f fe81 	uxth.w	lr, r1
200026de:	ea4f 4b11 	mov.w	fp, r1, lsr #16
200026e2:	b281      	uxth	r1, r0
200026e4:	fb0e ce07 	mla	lr, lr, r7, ip
200026e8:	1851      	adds	r1, r2, r1
200026ea:	fb0b fc07 	mul.w	ip, fp, r7
200026ee:	eb0c 4c1e 	add.w	ip, ip, lr, lsr #16
200026f2:	fa1f fe8e 	uxth.w	lr, lr
200026f6:	ebce 0101 	rsb	r1, lr, r1
200026fa:	fa1f f28c 	uxth.w	r2, ip
200026fe:	ea4f 4c1c 	mov.w	ip, ip, lsr #16
20002702:	ebc2 4210 	rsb	r2, r2, r0, lsr #16
20002706:	fa1f fe81 	uxth.w	lr, r1
2000270a:	eb02 4221 	add.w	r2, r2, r1, asr #16
2000270e:	ea4e 4102 	orr.w	r1, lr, r2, lsl #16
20002712:	50e1      	str	r1, [r4, r3]
20002714:	3304      	adds	r3, #4
20002716:	1412      	asrs	r2, r2, #16
20002718:	1959      	adds	r1, r3, r5
2000271a:	4588      	cmp	r8, r1
2000271c:	d2db      	bcs.n	200026d6 <quorem+0x3e>
2000271e:	1d32      	adds	r2, r6, #4
20002720:	eb0a 0382 	add.w	r3, sl, r2, lsl #2
20002724:	6859      	ldr	r1, [r3, #4]
20002726:	b969      	cbnz	r1, 20002744 <quorem+0xac>
20002728:	429c      	cmp	r4, r3
2000272a:	d209      	bcs.n	20002740 <quorem+0xa8>
2000272c:	f85a 2022 	ldr.w	r2, [sl, r2, lsl #2]
20002730:	b112      	cbz	r2, 20002738 <quorem+0xa0>
20002732:	e005      	b.n	20002740 <quorem+0xa8>
20002734:	681a      	ldr	r2, [r3, #0]
20002736:	b91a      	cbnz	r2, 20002740 <quorem+0xa8>
20002738:	3b04      	subs	r3, #4
2000273a:	3e01      	subs	r6, #1
2000273c:	429c      	cmp	r4, r3
2000273e:	d3f9      	bcc.n	20002734 <quorem+0x9c>
20002740:	f8ca 6010 	str.w	r6, [sl, #16]
20002744:	4649      	mov	r1, r9
20002746:	4650      	mov	r0, sl
20002748:	f002 f9e8 	bl	20004b1c <__mcmp>
2000274c:	2800      	cmp	r0, #0
2000274e:	db2c      	blt.n	200027aa <quorem+0x112>
20002750:	2300      	movs	r3, #0
20002752:	3701      	adds	r7, #1
20002754:	469c      	mov	ip, r3
20002756:	58ea      	ldr	r2, [r5, r3]
20002758:	58e0      	ldr	r0, [r4, r3]
2000275a:	b291      	uxth	r1, r2
2000275c:	0c12      	lsrs	r2, r2, #16
2000275e:	fa1f f980 	uxth.w	r9, r0
20002762:	ebc2 4210 	rsb	r2, r2, r0, lsr #16
20002766:	ebc1 0109 	rsb	r1, r1, r9
2000276a:	4461      	add	r1, ip
2000276c:	eb02 4221 	add.w	r2, r2, r1, asr #16
20002770:	b289      	uxth	r1, r1
20002772:	ea41 4102 	orr.w	r1, r1, r2, lsl #16
20002776:	50e1      	str	r1, [r4, r3]
20002778:	3304      	adds	r3, #4
2000277a:	ea4f 4c22 	mov.w	ip, r2, asr #16
2000277e:	195a      	adds	r2, r3, r5
20002780:	4590      	cmp	r8, r2
20002782:	d2e8      	bcs.n	20002756 <quorem+0xbe>
20002784:	1d32      	adds	r2, r6, #4
20002786:	eb0a 0382 	add.w	r3, sl, r2, lsl #2
2000278a:	6859      	ldr	r1, [r3, #4]
2000278c:	b969      	cbnz	r1, 200027aa <quorem+0x112>
2000278e:	429c      	cmp	r4, r3
20002790:	d209      	bcs.n	200027a6 <quorem+0x10e>
20002792:	f85a 2022 	ldr.w	r2, [sl, r2, lsl #2]
20002796:	b112      	cbz	r2, 2000279e <quorem+0x106>
20002798:	e005      	b.n	200027a6 <quorem+0x10e>
2000279a:	681a      	ldr	r2, [r3, #0]
2000279c:	b91a      	cbnz	r2, 200027a6 <quorem+0x10e>
2000279e:	3b04      	subs	r3, #4
200027a0:	3e01      	subs	r6, #1
200027a2:	429c      	cmp	r4, r3
200027a4:	d3f9      	bcc.n	2000279a <quorem+0x102>
200027a6:	f8ca 6010 	str.w	r6, [sl, #16]
200027aa:	4638      	mov	r0, r7
200027ac:	e8bd 8ff8 	ldmia.w	sp!, {r3, r4, r5, r6, r7, r8, r9, sl, fp, pc}
200027b0:	2000      	movs	r0, #0
200027b2:	e8bd 8ff8 	ldmia.w	sp!, {r3, r4, r5, r6, r7, r8, r9, sl, fp, pc}
200027b6:	bf00      	nop

200027b8 <_dtoa_r>:
200027b8:	e92d 4ff0 	stmdb	sp!, {r4, r5, r6, r7, r8, r9, sl, fp, lr}
200027bc:	6a46      	ldr	r6, [r0, #36]	; 0x24
200027be:	b0a1      	sub	sp, #132	; 0x84
200027c0:	4604      	mov	r4, r0
200027c2:	4690      	mov	r8, r2
200027c4:	4699      	mov	r9, r3
200027c6:	9d2d      	ldr	r5, [sp, #180]	; 0xb4
200027c8:	2e00      	cmp	r6, #0
200027ca:	f000 8423 	beq.w	20003014 <_dtoa_r+0x85c>
200027ce:	6832      	ldr	r2, [r6, #0]
200027d0:	b182      	cbz	r2, 200027f4 <_dtoa_r+0x3c>
200027d2:	6a61      	ldr	r1, [r4, #36]	; 0x24
200027d4:	f04f 0c01 	mov.w	ip, #1
200027d8:	6876      	ldr	r6, [r6, #4]
200027da:	4620      	mov	r0, r4
200027dc:	680b      	ldr	r3, [r1, #0]
200027de:	6056      	str	r6, [r2, #4]
200027e0:	684a      	ldr	r2, [r1, #4]
200027e2:	4619      	mov	r1, r3
200027e4:	fa0c f202 	lsl.w	r2, ip, r2
200027e8:	609a      	str	r2, [r3, #8]
200027ea:	f002 fad1 	bl	20004d90 <_Bfree>
200027ee:	6a63      	ldr	r3, [r4, #36]	; 0x24
200027f0:	2200      	movs	r2, #0
200027f2:	601a      	str	r2, [r3, #0]
200027f4:	f1b9 0600 	subs.w	r6, r9, #0
200027f8:	db38      	blt.n	2000286c <_dtoa_r+0xb4>
200027fa:	2300      	movs	r3, #0
200027fc:	602b      	str	r3, [r5, #0]
200027fe:	f240 0300 	movw	r3, #0
20002802:	f6c7 73f0 	movt	r3, #32752	; 0x7ff0
20002806:	461a      	mov	r2, r3
20002808:	ea06 0303 	and.w	r3, r6, r3
2000280c:	4293      	cmp	r3, r2
2000280e:	d017      	beq.n	20002840 <_dtoa_r+0x88>
20002810:	2200      	movs	r2, #0
20002812:	2300      	movs	r3, #0
20002814:	4640      	mov	r0, r8
20002816:	4649      	mov	r1, r9
20002818:	e9cd 8906 	strd	r8, r9, [sp, #24]
2000281c:	f003 ffaa 	bl	20006774 <__aeabi_dcmpeq>
20002820:	2800      	cmp	r0, #0
20002822:	d029      	beq.n	20002878 <_dtoa_r+0xc0>
20002824:	982c      	ldr	r0, [sp, #176]	; 0xb0
20002826:	2301      	movs	r3, #1
20002828:	992e      	ldr	r1, [sp, #184]	; 0xb8
2000282a:	6003      	str	r3, [r0, #0]
2000282c:	2900      	cmp	r1, #0
2000282e:	f000 80d0 	beq.w	200029d2 <_dtoa_r+0x21a>
20002832:	4b79      	ldr	r3, [pc, #484]	; (20002a18 <_dtoa_r+0x260>)
20002834:	1e58      	subs	r0, r3, #1
20002836:	9a2e      	ldr	r2, [sp, #184]	; 0xb8
20002838:	6013      	str	r3, [r2, #0]
2000283a:	b021      	add	sp, #132	; 0x84
2000283c:	e8bd 8ff0 	ldmia.w	sp!, {r4, r5, r6, r7, r8, r9, sl, fp, pc}
20002840:	982c      	ldr	r0, [sp, #176]	; 0xb0
20002842:	f242 730f 	movw	r3, #9999	; 0x270f
20002846:	6003      	str	r3, [r0, #0]
20002848:	f1b8 0f00 	cmp.w	r8, #0
2000284c:	f000 8095 	beq.w	2000297a <_dtoa_r+0x1c2>
20002850:	f646 70c8 	movw	r0, #28616	; 0x6fc8
20002854:	f2c2 0000 	movt	r0, #8192	; 0x2000
20002858:	992e      	ldr	r1, [sp, #184]	; 0xb8
2000285a:	2900      	cmp	r1, #0
2000285c:	d0ed      	beq.n	2000283a <_dtoa_r+0x82>
2000285e:	78c2      	ldrb	r2, [r0, #3]
20002860:	1cc3      	adds	r3, r0, #3
20002862:	2a00      	cmp	r2, #0
20002864:	d0e7      	beq.n	20002836 <_dtoa_r+0x7e>
20002866:	f100 0308 	add.w	r3, r0, #8
2000286a:	e7e4      	b.n	20002836 <_dtoa_r+0x7e>
2000286c:	f026 4600 	bic.w	r6, r6, #2147483648	; 0x80000000
20002870:	2301      	movs	r3, #1
20002872:	46b1      	mov	r9, r6
20002874:	602b      	str	r3, [r5, #0]
20002876:	e7c2      	b.n	200027fe <_dtoa_r+0x46>
20002878:	4620      	mov	r0, r4
2000287a:	e9dd 2306 	ldrd	r2, r3, [sp, #24]
2000287e:	a91e      	add	r1, sp, #120	; 0x78
20002880:	9100      	str	r1, [sp, #0]
20002882:	a91f      	add	r1, sp, #124	; 0x7c
20002884:	9101      	str	r1, [sp, #4]
20002886:	f002 fad5 	bl	20004e34 <__d2b>
2000288a:	f3c6 550a 	ubfx	r5, r6, #20, #11
2000288e:	4683      	mov	fp, r0
20002890:	2d00      	cmp	r5, #0
20002892:	d07e      	beq.n	20002992 <_dtoa_r+0x1da>
20002894:	e9dd 0106 	ldrd	r0, r1, [sp, #24]
20002898:	f5a5 757e 	sub.w	r5, r5, #1016	; 0x3f8
2000289c:	9f1f      	ldr	r7, [sp, #124]	; 0x7c
2000289e:	3d07      	subs	r5, #7
200028a0:	f021 437f 	bic.w	r3, r1, #4278190080	; 0xff000000
200028a4:	f423 0370 	bic.w	r3, r3, #15728640	; 0xf00000
200028a8:	f043 517e 	orr.w	r1, r3, #1065353216	; 0x3f800000
200028ac:	2300      	movs	r3, #0
200028ae:	f441 01e0 	orr.w	r1, r1, #7340032	; 0x700000
200028b2:	9319      	str	r3, [sp, #100]	; 0x64
200028b4:	f240 0300 	movw	r3, #0
200028b8:	2200      	movs	r2, #0
200028ba:	f6c3 73f8 	movt	r3, #16376	; 0x3ff8
200028be:	f003 fb3d 	bl	20005f3c <__aeabi_dsub>
200028c2:	a34f      	add	r3, pc, #316	; (adr r3, 20002a00 <_dtoa_r+0x248>)
200028c4:	e9d3 2300 	ldrd	r2, r3, [r3]
200028c8:	f003 fcec 	bl	200062a4 <__aeabi_dmul>
200028cc:	a34e      	add	r3, pc, #312	; (adr r3, 20002a08 <_dtoa_r+0x250>)
200028ce:	e9d3 2300 	ldrd	r2, r3, [r3]
200028d2:	f003 fb35 	bl	20005f40 <__adddf3>
200028d6:	e9cd 0108 	strd	r0, r1, [sp, #32]
200028da:	4628      	mov	r0, r5
200028dc:	f003 fc7c 	bl	200061d8 <__aeabi_i2d>
200028e0:	a34b      	add	r3, pc, #300	; (adr r3, 20002a10 <_dtoa_r+0x258>)
200028e2:	e9d3 2300 	ldrd	r2, r3, [r3]
200028e6:	f003 fcdd 	bl	200062a4 <__aeabi_dmul>
200028ea:	4602      	mov	r2, r0
200028ec:	460b      	mov	r3, r1
200028ee:	e9dd 0108 	ldrd	r0, r1, [sp, #32]
200028f2:	f003 fb25 	bl	20005f40 <__adddf3>
200028f6:	e9cd 0108 	strd	r0, r1, [sp, #32]
200028fa:	f003 ff6d 	bl	200067d8 <__aeabi_d2iz>
200028fe:	2200      	movs	r2, #0
20002900:	2300      	movs	r3, #0
20002902:	4606      	mov	r6, r0
20002904:	e9dd 0108 	ldrd	r0, r1, [sp, #32]
20002908:	f003 ff3e 	bl	20006788 <__aeabi_dcmplt>
2000290c:	b140      	cbz	r0, 20002920 <_dtoa_r+0x168>
2000290e:	4630      	mov	r0, r6
20002910:	f003 fc62 	bl	200061d8 <__aeabi_i2d>
20002914:	e9dd 2308 	ldrd	r2, r3, [sp, #32]
20002918:	f003 ff2c 	bl	20006774 <__aeabi_dcmpeq>
2000291c:	b900      	cbnz	r0, 20002920 <_dtoa_r+0x168>
2000291e:	3e01      	subs	r6, #1
20002920:	2e16      	cmp	r6, #22
20002922:	d95b      	bls.n	200029dc <_dtoa_r+0x224>
20002924:	2301      	movs	r3, #1
20002926:	9318      	str	r3, [sp, #96]	; 0x60
20002928:	3f01      	subs	r7, #1
2000292a:	ebb7 0a05 	subs.w	sl, r7, r5
2000292e:	bf42      	ittt	mi
20002930:	f1ca 0a00 	rsbmi	sl, sl, #0
20002934:	f8cd a03c 	strmi.w	sl, [sp, #60]	; 0x3c
20002938:	f04f 0a00 	movmi.w	sl, #0
2000293c:	d401      	bmi.n	20002942 <_dtoa_r+0x18a>
2000293e:	2200      	movs	r2, #0
20002940:	920f      	str	r2, [sp, #60]	; 0x3c
20002942:	2e00      	cmp	r6, #0
20002944:	f2c0 8371 	blt.w	2000302a <_dtoa_r+0x872>
20002948:	44b2      	add	sl, r6
2000294a:	2300      	movs	r3, #0
2000294c:	9617      	str	r6, [sp, #92]	; 0x5c
2000294e:	9315      	str	r3, [sp, #84]	; 0x54
20002950:	9b2a      	ldr	r3, [sp, #168]	; 0xa8
20002952:	2b09      	cmp	r3, #9
20002954:	d862      	bhi.n	20002a1c <_dtoa_r+0x264>
20002956:	2b05      	cmp	r3, #5
20002958:	f340 8677 	ble.w	2000364a <_dtoa_r+0xe92>
2000295c:	982a      	ldr	r0, [sp, #168]	; 0xa8
2000295e:	2700      	movs	r7, #0
20002960:	3804      	subs	r0, #4
20002962:	902a      	str	r0, [sp, #168]	; 0xa8
20002964:	992a      	ldr	r1, [sp, #168]	; 0xa8
20002966:	1e8b      	subs	r3, r1, #2
20002968:	2b03      	cmp	r3, #3
2000296a:	f200 83dd 	bhi.w	20003128 <_dtoa_r+0x970>
2000296e:	e8df f013 	tbh	[pc, r3, lsl #1]
20002972:	03a5      	.short	0x03a5
20002974:	03d503d8 	.word	0x03d503d8
20002978:	03c4      	.short	0x03c4
2000297a:	f026 467f 	bic.w	r6, r6, #4278190080	; 0xff000000
2000297e:	f426 0670 	bic.w	r6, r6, #15728640	; 0xf00000
20002982:	2e00      	cmp	r6, #0
20002984:	f47f af64 	bne.w	20002850 <_dtoa_r+0x98>
20002988:	f646 70bc 	movw	r0, #28604	; 0x6fbc
2000298c:	f2c2 0000 	movt	r0, #8192	; 0x2000
20002990:	e762      	b.n	20002858 <_dtoa_r+0xa0>
20002992:	9f1f      	ldr	r7, [sp, #124]	; 0x7c
20002994:	9b1e      	ldr	r3, [sp, #120]	; 0x78
20002996:	18fb      	adds	r3, r7, r3
20002998:	f503 6386 	add.w	r3, r3, #1072	; 0x430
2000299c:	1c9d      	adds	r5, r3, #2
2000299e:	2d20      	cmp	r5, #32
200029a0:	bfdc      	itt	le
200029a2:	f1c5 0020 	rsble	r0, r5, #32
200029a6:	fa08 f000 	lslle.w	r0, r8, r0
200029aa:	dd08      	ble.n	200029be <_dtoa_r+0x206>
200029ac:	3b1e      	subs	r3, #30
200029ae:	f1c5 0240 	rsb	r2, r5, #64	; 0x40
200029b2:	fa16 f202 	lsls.w	r2, r6, r2
200029b6:	fa28 f303 	lsr.w	r3, r8, r3
200029ba:	ea42 0003 	orr.w	r0, r2, r3
200029be:	f003 fbfb 	bl	200061b8 <__aeabi_ui2d>
200029c2:	f5a5 6586 	sub.w	r5, r5, #1072	; 0x430
200029c6:	2201      	movs	r2, #1
200029c8:	3d03      	subs	r5, #3
200029ca:	9219      	str	r2, [sp, #100]	; 0x64
200029cc:	f1a1 71f8 	sub.w	r1, r1, #32505856	; 0x1f00000
200029d0:	e770      	b.n	200028b4 <_dtoa_r+0xfc>
200029d2:	f646 70b8 	movw	r0, #28600	; 0x6fb8
200029d6:	f2c2 0000 	movt	r0, #8192	; 0x2000
200029da:	e72e      	b.n	2000283a <_dtoa_r+0x82>
200029dc:	f247 0370 	movw	r3, #28784	; 0x7070
200029e0:	e9dd 0106 	ldrd	r0, r1, [sp, #24]
200029e4:	f2c2 0300 	movt	r3, #8192	; 0x2000
200029e8:	eb03 03c6 	add.w	r3, r3, r6, lsl #3
200029ec:	e9d3 2300 	ldrd	r2, r3, [r3]
200029f0:	f003 feca 	bl	20006788 <__aeabi_dcmplt>
200029f4:	2800      	cmp	r0, #0
200029f6:	f040 8320 	bne.w	2000303a <_dtoa_r+0x882>
200029fa:	9018      	str	r0, [sp, #96]	; 0x60
200029fc:	e794      	b.n	20002928 <_dtoa_r+0x170>
200029fe:	bf00      	nop
20002a00:	636f4361 	.word	0x636f4361
20002a04:	3fd287a7 	.word	0x3fd287a7
20002a08:	8b60c8b3 	.word	0x8b60c8b3
20002a0c:	3fc68a28 	.word	0x3fc68a28
20002a10:	509f79fb 	.word	0x509f79fb
20002a14:	3fd34413 	.word	0x3fd34413
20002a18:	20006fb9 	.word	0x20006fb9
20002a1c:	2300      	movs	r3, #0
20002a1e:	f04f 30ff 	mov.w	r0, #4294967295
20002a22:	461f      	mov	r7, r3
20002a24:	2101      	movs	r1, #1
20002a26:	932a      	str	r3, [sp, #168]	; 0xa8
20002a28:	9011      	str	r0, [sp, #68]	; 0x44
20002a2a:	9116      	str	r1, [sp, #88]	; 0x58
20002a2c:	9008      	str	r0, [sp, #32]
20002a2e:	932b      	str	r3, [sp, #172]	; 0xac
20002a30:	6a65      	ldr	r5, [r4, #36]	; 0x24
20002a32:	2300      	movs	r3, #0
20002a34:	606b      	str	r3, [r5, #4]
20002a36:	4620      	mov	r0, r4
20002a38:	6869      	ldr	r1, [r5, #4]
20002a3a:	f002 f9c5 	bl	20004dc8 <_Balloc>
20002a3e:	6a63      	ldr	r3, [r4, #36]	; 0x24
20002a40:	6028      	str	r0, [r5, #0]
20002a42:	681b      	ldr	r3, [r3, #0]
20002a44:	9310      	str	r3, [sp, #64]	; 0x40
20002a46:	2f00      	cmp	r7, #0
20002a48:	f000 815b 	beq.w	20002d02 <_dtoa_r+0x54a>
20002a4c:	2e00      	cmp	r6, #0
20002a4e:	f340 842a 	ble.w	200032a6 <_dtoa_r+0xaee>
20002a52:	f247 0370 	movw	r3, #28784	; 0x7070
20002a56:	f006 020f 	and.w	r2, r6, #15
20002a5a:	f2c2 0300 	movt	r3, #8192	; 0x2000
20002a5e:	1135      	asrs	r5, r6, #4
20002a60:	eb03 03c2 	add.w	r3, r3, r2, lsl #3
20002a64:	f015 0f10 	tst.w	r5, #16
20002a68:	e9d3 0100 	ldrd	r0, r1, [r3]
20002a6c:	e9cd 010c 	strd	r0, r1, [sp, #48]	; 0x30
20002a70:	f000 82e7 	beq.w	20003042 <_dtoa_r+0x88a>
20002a74:	f247 1348 	movw	r3, #29000	; 0x7148
20002a78:	e9dd 0106 	ldrd	r0, r1, [sp, #24]
20002a7c:	f2c2 0300 	movt	r3, #8192	; 0x2000
20002a80:	f005 050f 	and.w	r5, r5, #15
20002a84:	f04f 0803 	mov.w	r8, #3
20002a88:	e9d3 2308 	ldrd	r2, r3, [r3, #32]
20002a8c:	f003 fd34 	bl	200064f8 <__aeabi_ddiv>
20002a90:	e9cd 0112 	strd	r0, r1, [sp, #72]	; 0x48
20002a94:	b1bd      	cbz	r5, 20002ac6 <_dtoa_r+0x30e>
20002a96:	f247 1748 	movw	r7, #29000	; 0x7148
20002a9a:	e9dd 230c 	ldrd	r2, r3, [sp, #48]	; 0x30
20002a9e:	f2c2 0700 	movt	r7, #8192	; 0x2000
20002aa2:	f015 0f01 	tst.w	r5, #1
20002aa6:	4610      	mov	r0, r2
20002aa8:	4619      	mov	r1, r3
20002aaa:	d007      	beq.n	20002abc <_dtoa_r+0x304>
20002aac:	e9d7 2300 	ldrd	r2, r3, [r7]
20002ab0:	f108 0801 	add.w	r8, r8, #1
20002ab4:	f003 fbf6 	bl	200062a4 <__aeabi_dmul>
20002ab8:	4602      	mov	r2, r0
20002aba:	460b      	mov	r3, r1
20002abc:	3708      	adds	r7, #8
20002abe:	106d      	asrs	r5, r5, #1
20002ac0:	d1ef      	bne.n	20002aa2 <_dtoa_r+0x2ea>
20002ac2:	e9cd 230c 	strd	r2, r3, [sp, #48]	; 0x30
20002ac6:	e9dd 230c 	ldrd	r2, r3, [sp, #48]	; 0x30
20002aca:	e9dd 0112 	ldrd	r0, r1, [sp, #72]	; 0x48
20002ace:	f003 fd13 	bl	200064f8 <__aeabi_ddiv>
20002ad2:	e9cd 010c 	strd	r0, r1, [sp, #48]	; 0x30
20002ad6:	9918      	ldr	r1, [sp, #96]	; 0x60
20002ad8:	2900      	cmp	r1, #0
20002ada:	f000 80de 	beq.w	20002c9a <_dtoa_r+0x4e2>
20002ade:	f240 0300 	movw	r3, #0
20002ae2:	e9dd 010c 	ldrd	r0, r1, [sp, #48]	; 0x30
20002ae6:	2200      	movs	r2, #0
20002ae8:	f6c3 73f0 	movt	r3, #16368	; 0x3ff0
20002aec:	f04f 0500 	mov.w	r5, #0
20002af0:	f003 fe4a 	bl	20006788 <__aeabi_dcmplt>
20002af4:	b108      	cbz	r0, 20002afa <_dtoa_r+0x342>
20002af6:	f04f 0501 	mov.w	r5, #1
20002afa:	9a08      	ldr	r2, [sp, #32]
20002afc:	2a00      	cmp	r2, #0
20002afe:	bfd4      	ite	le
20002b00:	2500      	movle	r5, #0
20002b02:	f005 0501 	andgt.w	r5, r5, #1
20002b06:	2d00      	cmp	r5, #0
20002b08:	f000 80c7 	beq.w	20002c9a <_dtoa_r+0x4e2>
20002b0c:	9b11      	ldr	r3, [sp, #68]	; 0x44
20002b0e:	2b00      	cmp	r3, #0
20002b10:	f340 80f5 	ble.w	20002cfe <_dtoa_r+0x546>
20002b14:	f240 0300 	movw	r3, #0
20002b18:	2200      	movs	r2, #0
20002b1a:	f2c4 0324 	movt	r3, #16420	; 0x4024
20002b1e:	e9dd 010c 	ldrd	r0, r1, [sp, #48]	; 0x30
20002b22:	f003 fbbf 	bl	200062a4 <__aeabi_dmul>
20002b26:	e9cd 010c 	strd	r0, r1, [sp, #48]	; 0x30
20002b2a:	f108 0001 	add.w	r0, r8, #1
20002b2e:	1e71      	subs	r1, r6, #1
20002b30:	9112      	str	r1, [sp, #72]	; 0x48
20002b32:	f003 fb51 	bl	200061d8 <__aeabi_i2d>
20002b36:	4602      	mov	r2, r0
20002b38:	460b      	mov	r3, r1
20002b3a:	e9dd 010c 	ldrd	r0, r1, [sp, #48]	; 0x30
20002b3e:	f003 fbb1 	bl	200062a4 <__aeabi_dmul>
20002b42:	f240 0300 	movw	r3, #0
20002b46:	2200      	movs	r2, #0
20002b48:	f2c4 031c 	movt	r3, #16412	; 0x401c
20002b4c:	f003 f9f8 	bl	20005f40 <__adddf3>
20002b50:	f8dd c044 	ldr.w	ip, [sp, #68]	; 0x44
20002b54:	4680      	mov	r8, r0
20002b56:	f1a1 7950 	sub.w	r9, r1, #54525952	; 0x3400000
20002b5a:	9b16      	ldr	r3, [sp, #88]	; 0x58
20002b5c:	2b00      	cmp	r3, #0
20002b5e:	f000 83ad 	beq.w	200032bc <_dtoa_r+0xb04>
20002b62:	f247 0370 	movw	r3, #28784	; 0x7070
20002b66:	f240 0100 	movw	r1, #0
20002b6a:	f2c2 0300 	movt	r3, #8192	; 0x2000
20002b6e:	2000      	movs	r0, #0
20002b70:	eb03 03cc 	add.w	r3, r3, ip, lsl #3
20002b74:	f6c3 71e0 	movt	r1, #16352	; 0x3fe0
20002b78:	f8cd c00c 	str.w	ip, [sp, #12]
20002b7c:	e953 2302 	ldrd	r2, r3, [r3, #-8]
20002b80:	f003 fcba 	bl	200064f8 <__aeabi_ddiv>
20002b84:	4642      	mov	r2, r8
20002b86:	464b      	mov	r3, r9
20002b88:	9d10      	ldr	r5, [sp, #64]	; 0x40
20002b8a:	f003 f9d7 	bl	20005f3c <__aeabi_dsub>
20002b8e:	4680      	mov	r8, r0
20002b90:	4689      	mov	r9, r1
20002b92:	e9dd 010c 	ldrd	r0, r1, [sp, #48]	; 0x30
20002b96:	f003 fe1f 	bl	200067d8 <__aeabi_d2iz>
20002b9a:	4607      	mov	r7, r0
20002b9c:	f003 fb1c 	bl	200061d8 <__aeabi_i2d>
20002ba0:	4602      	mov	r2, r0
20002ba2:	460b      	mov	r3, r1
20002ba4:	e9dd 010c 	ldrd	r0, r1, [sp, #48]	; 0x30
20002ba8:	f003 f9c8 	bl	20005f3c <__aeabi_dsub>
20002bac:	f107 0330 	add.w	r3, r7, #48	; 0x30
20002bb0:	e9cd 010c 	strd	r0, r1, [sp, #48]	; 0x30
20002bb4:	4640      	mov	r0, r8
20002bb6:	f805 3b01 	strb.w	r3, [r5], #1
20002bba:	4649      	mov	r1, r9
20002bbc:	e9dd 230c 	ldrd	r2, r3, [sp, #48]	; 0x30
20002bc0:	f003 fe00 	bl	200067c4 <__aeabi_dcmpgt>
20002bc4:	2800      	cmp	r0, #0
20002bc6:	f040 8213 	bne.w	20002ff0 <_dtoa_r+0x838>
20002bca:	f240 0100 	movw	r1, #0
20002bce:	e9dd 230c 	ldrd	r2, r3, [sp, #48]	; 0x30
20002bd2:	2000      	movs	r0, #0
20002bd4:	f6c3 71f0 	movt	r1, #16368	; 0x3ff0
20002bd8:	f003 f9b0 	bl	20005f3c <__aeabi_dsub>
20002bdc:	4602      	mov	r2, r0
20002bde:	460b      	mov	r3, r1
20002be0:	4640      	mov	r0, r8
20002be2:	4649      	mov	r1, r9
20002be4:	f003 fdee 	bl	200067c4 <__aeabi_dcmpgt>
20002be8:	f8dd c00c 	ldr.w	ip, [sp, #12]
20002bec:	2800      	cmp	r0, #0
20002bee:	f040 83e7 	bne.w	200033c0 <_dtoa_r+0xc08>
20002bf2:	f1bc 0f01 	cmp.w	ip, #1
20002bf6:	f340 8082 	ble.w	20002cfe <_dtoa_r+0x546>
20002bfa:	f8cd b068 	str.w	fp, [sp, #104]	; 0x68
20002bfe:	2701      	movs	r7, #1
20002c00:	f8cd a070 	str.w	sl, [sp, #112]	; 0x70
20002c04:	961d      	str	r6, [sp, #116]	; 0x74
20002c06:	4666      	mov	r6, ip
20002c08:	e9dd ab0c 	ldrd	sl, fp, [sp, #48]	; 0x30
20002c0c:	940c      	str	r4, [sp, #48]	; 0x30
20002c0e:	e010      	b.n	20002c32 <_dtoa_r+0x47a>
20002c10:	f240 0100 	movw	r1, #0
20002c14:	2000      	movs	r0, #0
20002c16:	f6c3 71f0 	movt	r1, #16368	; 0x3ff0
20002c1a:	f003 f98f 	bl	20005f3c <__aeabi_dsub>
20002c1e:	4642      	mov	r2, r8
20002c20:	464b      	mov	r3, r9
20002c22:	f003 fdb1 	bl	20006788 <__aeabi_dcmplt>
20002c26:	2800      	cmp	r0, #0
20002c28:	f040 83c7 	bne.w	200033ba <_dtoa_r+0xc02>
20002c2c:	42b7      	cmp	r7, r6
20002c2e:	f280 848b 	bge.w	20003548 <_dtoa_r+0xd90>
20002c32:	f240 0300 	movw	r3, #0
20002c36:	4640      	mov	r0, r8
20002c38:	4649      	mov	r1, r9
20002c3a:	2200      	movs	r2, #0
20002c3c:	f2c4 0324 	movt	r3, #16420	; 0x4024
20002c40:	3501      	adds	r5, #1
20002c42:	f003 fb2f 	bl	200062a4 <__aeabi_dmul>
20002c46:	f240 0300 	movw	r3, #0
20002c4a:	2200      	movs	r2, #0
20002c4c:	f2c4 0324 	movt	r3, #16420	; 0x4024
20002c50:	4680      	mov	r8, r0
20002c52:	4689      	mov	r9, r1
20002c54:	4650      	mov	r0, sl
20002c56:	4659      	mov	r1, fp
20002c58:	f003 fb24 	bl	200062a4 <__aeabi_dmul>
20002c5c:	468b      	mov	fp, r1
20002c5e:	4682      	mov	sl, r0
20002c60:	f003 fdba 	bl	200067d8 <__aeabi_d2iz>
20002c64:	4604      	mov	r4, r0
20002c66:	f003 fab7 	bl	200061d8 <__aeabi_i2d>
20002c6a:	3430      	adds	r4, #48	; 0x30
20002c6c:	4602      	mov	r2, r0
20002c6e:	460b      	mov	r3, r1
20002c70:	4650      	mov	r0, sl
20002c72:	4659      	mov	r1, fp
20002c74:	f003 f962 	bl	20005f3c <__aeabi_dsub>
20002c78:	9a10      	ldr	r2, [sp, #64]	; 0x40
20002c7a:	464b      	mov	r3, r9
20002c7c:	55d4      	strb	r4, [r2, r7]
20002c7e:	4642      	mov	r2, r8
20002c80:	3701      	adds	r7, #1
20002c82:	4682      	mov	sl, r0
20002c84:	468b      	mov	fp, r1
20002c86:	f003 fd7f 	bl	20006788 <__aeabi_dcmplt>
20002c8a:	4652      	mov	r2, sl
20002c8c:	465b      	mov	r3, fp
20002c8e:	2800      	cmp	r0, #0
20002c90:	d0be      	beq.n	20002c10 <_dtoa_r+0x458>
20002c92:	f8dd b068 	ldr.w	fp, [sp, #104]	; 0x68
20002c96:	9c0c      	ldr	r4, [sp, #48]	; 0x30
20002c98:	e1aa      	b.n	20002ff0 <_dtoa_r+0x838>
20002c9a:	4640      	mov	r0, r8
20002c9c:	f003 fa9c 	bl	200061d8 <__aeabi_i2d>
20002ca0:	e9dd 230c 	ldrd	r2, r3, [sp, #48]	; 0x30
20002ca4:	f003 fafe 	bl	200062a4 <__aeabi_dmul>
20002ca8:	f240 0300 	movw	r3, #0
20002cac:	2200      	movs	r2, #0
20002cae:	f2c4 031c 	movt	r3, #16412	; 0x401c
20002cb2:	f003 f945 	bl	20005f40 <__adddf3>
20002cb6:	9a08      	ldr	r2, [sp, #32]
20002cb8:	f1a1 7550 	sub.w	r5, r1, #54525952	; 0x3400000
20002cbc:	4680      	mov	r8, r0
20002cbe:	46a9      	mov	r9, r5
20002cc0:	2a00      	cmp	r2, #0
20002cc2:	f040 82ec 	bne.w	2000329e <_dtoa_r+0xae6>
20002cc6:	f240 0300 	movw	r3, #0
20002cca:	e9dd 010c 	ldrd	r0, r1, [sp, #48]	; 0x30
20002cce:	2200      	movs	r2, #0
20002cd0:	f2c4 0314 	movt	r3, #16404	; 0x4014
20002cd4:	f003 f932 	bl	20005f3c <__aeabi_dsub>
20002cd8:	4642      	mov	r2, r8
20002cda:	462b      	mov	r3, r5
20002cdc:	e9cd 010c 	strd	r0, r1, [sp, #48]	; 0x30
20002ce0:	f003 fd70 	bl	200067c4 <__aeabi_dcmpgt>
20002ce4:	2800      	cmp	r0, #0
20002ce6:	f040 824a 	bne.w	2000317e <_dtoa_r+0x9c6>
20002cea:	4642      	mov	r2, r8
20002cec:	e9dd 010c 	ldrd	r0, r1, [sp, #48]	; 0x30
20002cf0:	f105 4300 	add.w	r3, r5, #2147483648	; 0x80000000
20002cf4:	f003 fd48 	bl	20006788 <__aeabi_dcmplt>
20002cf8:	2800      	cmp	r0, #0
20002cfa:	f040 81d5 	bne.w	200030a8 <_dtoa_r+0x8f0>
20002cfe:	e9dd 8906 	ldrd	r8, r9, [sp, #24]
20002d02:	9b1e      	ldr	r3, [sp, #120]	; 0x78
20002d04:	ea6f 0703 	mvn.w	r7, r3
20002d08:	ea4f 77d7 	mov.w	r7, r7, lsr #31
20002d0c:	2e0e      	cmp	r6, #14
20002d0e:	bfcc      	ite	gt
20002d10:	2700      	movgt	r7, #0
20002d12:	f007 0701 	andle.w	r7, r7, #1
20002d16:	2f00      	cmp	r7, #0
20002d18:	f000 80b7 	beq.w	20002e8a <_dtoa_r+0x6d2>
20002d1c:	982b      	ldr	r0, [sp, #172]	; 0xac
20002d1e:	f247 0370 	movw	r3, #28784	; 0x7070
20002d22:	f2c2 0300 	movt	r3, #8192	; 0x2000
20002d26:	9908      	ldr	r1, [sp, #32]
20002d28:	eb03 03c6 	add.w	r3, r3, r6, lsl #3
20002d2c:	0fc2      	lsrs	r2, r0, #31
20002d2e:	2900      	cmp	r1, #0
20002d30:	bfcc      	ite	gt
20002d32:	2200      	movgt	r2, #0
20002d34:	f002 0201 	andle.w	r2, r2, #1
20002d38:	e9d3 0100 	ldrd	r0, r1, [r3]
20002d3c:	e9cd 0104 	strd	r0, r1, [sp, #16]
20002d40:	2a00      	cmp	r2, #0
20002d42:	f040 81a0 	bne.w	20003086 <_dtoa_r+0x8ce>
20002d46:	4602      	mov	r2, r0
20002d48:	460b      	mov	r3, r1
20002d4a:	4640      	mov	r0, r8
20002d4c:	4649      	mov	r1, r9
20002d4e:	f003 fbd3 	bl	200064f8 <__aeabi_ddiv>
20002d52:	9d10      	ldr	r5, [sp, #64]	; 0x40
20002d54:	f003 fd40 	bl	200067d8 <__aeabi_d2iz>
20002d58:	4682      	mov	sl, r0
20002d5a:	f003 fa3d 	bl	200061d8 <__aeabi_i2d>
20002d5e:	e9dd 2304 	ldrd	r2, r3, [sp, #16]
20002d62:	f003 fa9f 	bl	200062a4 <__aeabi_dmul>
20002d66:	4602      	mov	r2, r0
20002d68:	460b      	mov	r3, r1
20002d6a:	4640      	mov	r0, r8
20002d6c:	4649      	mov	r1, r9
20002d6e:	f003 f8e5 	bl	20005f3c <__aeabi_dsub>
20002d72:	f10a 0330 	add.w	r3, sl, #48	; 0x30
20002d76:	f805 3b01 	strb.w	r3, [r5], #1
20002d7a:	9a08      	ldr	r2, [sp, #32]
20002d7c:	2a01      	cmp	r2, #1
20002d7e:	4680      	mov	r8, r0
20002d80:	4689      	mov	r9, r1
20002d82:	d052      	beq.n	20002e2a <_dtoa_r+0x672>
20002d84:	f240 0300 	movw	r3, #0
20002d88:	2200      	movs	r2, #0
20002d8a:	f2c4 0324 	movt	r3, #16420	; 0x4024
20002d8e:	f003 fa89 	bl	200062a4 <__aeabi_dmul>
20002d92:	2200      	movs	r2, #0
20002d94:	2300      	movs	r3, #0
20002d96:	e9cd 0106 	strd	r0, r1, [sp, #24]
20002d9a:	f003 fceb 	bl	20006774 <__aeabi_dcmpeq>
20002d9e:	2800      	cmp	r0, #0
20002da0:	f040 81eb 	bne.w	2000317a <_dtoa_r+0x9c2>
20002da4:	9810      	ldr	r0, [sp, #64]	; 0x40
20002da6:	f04f 0801 	mov.w	r8, #1
20002daa:	f8cd b02c 	str.w	fp, [sp, #44]	; 0x2c
20002dae:	46a3      	mov	fp, r4
20002db0:	1c87      	adds	r7, r0, #2
20002db2:	960f      	str	r6, [sp, #60]	; 0x3c
20002db4:	f8dd 9020 	ldr.w	r9, [sp, #32]
20002db8:	e9dd 4506 	ldrd	r4, r5, [sp, #24]
20002dbc:	e00a      	b.n	20002dd4 <_dtoa_r+0x61c>
20002dbe:	f003 fa71 	bl	200062a4 <__aeabi_dmul>
20002dc2:	2200      	movs	r2, #0
20002dc4:	2300      	movs	r3, #0
20002dc6:	4604      	mov	r4, r0
20002dc8:	460d      	mov	r5, r1
20002dca:	f003 fcd3 	bl	20006774 <__aeabi_dcmpeq>
20002dce:	2800      	cmp	r0, #0
20002dd0:	f040 81ce 	bne.w	20003170 <_dtoa_r+0x9b8>
20002dd4:	e9dd 2304 	ldrd	r2, r3, [sp, #16]
20002dd8:	4620      	mov	r0, r4
20002dda:	4629      	mov	r1, r5
20002ddc:	f108 0801 	add.w	r8, r8, #1
20002de0:	f003 fb8a 	bl	200064f8 <__aeabi_ddiv>
20002de4:	463e      	mov	r6, r7
20002de6:	f003 fcf7 	bl	200067d8 <__aeabi_d2iz>
20002dea:	4682      	mov	sl, r0
20002dec:	f003 f9f4 	bl	200061d8 <__aeabi_i2d>
20002df0:	e9dd 2304 	ldrd	r2, r3, [sp, #16]
20002df4:	f003 fa56 	bl	200062a4 <__aeabi_dmul>
20002df8:	4602      	mov	r2, r0
20002dfa:	460b      	mov	r3, r1
20002dfc:	4620      	mov	r0, r4
20002dfe:	4629      	mov	r1, r5
20002e00:	f003 f89c 	bl	20005f3c <__aeabi_dsub>
20002e04:	2200      	movs	r2, #0
20002e06:	f10a 0c30 	add.w	ip, sl, #48	; 0x30
20002e0a:	f807 cc01 	strb.w	ip, [r7, #-1]
20002e0e:	3701      	adds	r7, #1
20002e10:	45c1      	cmp	r9, r8
20002e12:	f240 0300 	movw	r3, #0
20002e16:	f2c4 0324 	movt	r3, #16420	; 0x4024
20002e1a:	d1d0      	bne.n	20002dbe <_dtoa_r+0x606>
20002e1c:	4635      	mov	r5, r6
20002e1e:	465c      	mov	r4, fp
20002e20:	9e0f      	ldr	r6, [sp, #60]	; 0x3c
20002e22:	4680      	mov	r8, r0
20002e24:	f8dd b02c 	ldr.w	fp, [sp, #44]	; 0x2c
20002e28:	4689      	mov	r9, r1
20002e2a:	4642      	mov	r2, r8
20002e2c:	464b      	mov	r3, r9
20002e2e:	4640      	mov	r0, r8
20002e30:	4649      	mov	r1, r9
20002e32:	f003 f885 	bl	20005f40 <__adddf3>
20002e36:	4680      	mov	r8, r0
20002e38:	4689      	mov	r9, r1
20002e3a:	4642      	mov	r2, r8
20002e3c:	e9dd 0104 	ldrd	r0, r1, [sp, #16]
20002e40:	464b      	mov	r3, r9
20002e42:	f003 fca1 	bl	20006788 <__aeabi_dcmplt>
20002e46:	b960      	cbnz	r0, 20002e62 <_dtoa_r+0x6aa>
20002e48:	e9dd 0104 	ldrd	r0, r1, [sp, #16]
20002e4c:	4642      	mov	r2, r8
20002e4e:	464b      	mov	r3, r9
20002e50:	f003 fc90 	bl	20006774 <__aeabi_dcmpeq>
20002e54:	2800      	cmp	r0, #0
20002e56:	f000 8190 	beq.w	2000317a <_dtoa_r+0x9c2>
20002e5a:	f01a 0f01 	tst.w	sl, #1
20002e5e:	f000 818c 	beq.w	2000317a <_dtoa_r+0x9c2>
20002e62:	9910      	ldr	r1, [sp, #64]	; 0x40
20002e64:	e000      	b.n	20002e68 <_dtoa_r+0x6b0>
20002e66:	461d      	mov	r5, r3
20002e68:	f815 2c01 	ldrb.w	r2, [r5, #-1]
20002e6c:	1e6b      	subs	r3, r5, #1
20002e6e:	2a39      	cmp	r2, #57	; 0x39
20002e70:	f040 8367 	bne.w	20003542 <_dtoa_r+0xd8a>
20002e74:	428b      	cmp	r3, r1
20002e76:	d1f6      	bne.n	20002e66 <_dtoa_r+0x6ae>
20002e78:	9910      	ldr	r1, [sp, #64]	; 0x40
20002e7a:	2330      	movs	r3, #48	; 0x30
20002e7c:	3601      	adds	r6, #1
20002e7e:	2231      	movs	r2, #49	; 0x31
20002e80:	700b      	strb	r3, [r1, #0]
20002e82:	9b10      	ldr	r3, [sp, #64]	; 0x40
20002e84:	701a      	strb	r2, [r3, #0]
20002e86:	9612      	str	r6, [sp, #72]	; 0x48
20002e88:	e0b2      	b.n	20002ff0 <_dtoa_r+0x838>
20002e8a:	9a16      	ldr	r2, [sp, #88]	; 0x58
20002e8c:	2a00      	cmp	r2, #0
20002e8e:	f040 80df 	bne.w	20003050 <_dtoa_r+0x898>
20002e92:	9f15      	ldr	r7, [sp, #84]	; 0x54
20002e94:	9d0f      	ldr	r5, [sp, #60]	; 0x3c
20002e96:	920c      	str	r2, [sp, #48]	; 0x30
20002e98:	2d00      	cmp	r5, #0
20002e9a:	bfd4      	ite	le
20002e9c:	2300      	movle	r3, #0
20002e9e:	2301      	movgt	r3, #1
20002ea0:	f1ba 0f00 	cmp.w	sl, #0
20002ea4:	bfd4      	ite	le
20002ea6:	2300      	movle	r3, #0
20002ea8:	f003 0301 	andgt.w	r3, r3, #1
20002eac:	b14b      	cbz	r3, 20002ec2 <_dtoa_r+0x70a>
20002eae:	45aa      	cmp	sl, r5
20002eb0:	bfb4      	ite	lt
20002eb2:	4653      	movlt	r3, sl
20002eb4:	462b      	movge	r3, r5
20002eb6:	980f      	ldr	r0, [sp, #60]	; 0x3c
20002eb8:	ebc3 0a0a 	rsb	sl, r3, sl
20002ebc:	1aed      	subs	r5, r5, r3
20002ebe:	1ac0      	subs	r0, r0, r3
20002ec0:	900f      	str	r0, [sp, #60]	; 0x3c
20002ec2:	9915      	ldr	r1, [sp, #84]	; 0x54
20002ec4:	2900      	cmp	r1, #0
20002ec6:	dd1c      	ble.n	20002f02 <_dtoa_r+0x74a>
20002ec8:	9a16      	ldr	r2, [sp, #88]	; 0x58
20002eca:	2a00      	cmp	r2, #0
20002ecc:	f000 82e9 	beq.w	200034a2 <_dtoa_r+0xcea>
20002ed0:	2f00      	cmp	r7, #0
20002ed2:	dd12      	ble.n	20002efa <_dtoa_r+0x742>
20002ed4:	990c      	ldr	r1, [sp, #48]	; 0x30
20002ed6:	463a      	mov	r2, r7
20002ed8:	4620      	mov	r0, r4
20002eda:	f002 f9d5 	bl	20005288 <__pow5mult>
20002ede:	465a      	mov	r2, fp
20002ee0:	900c      	str	r0, [sp, #48]	; 0x30
20002ee2:	4620      	mov	r0, r4
20002ee4:	990c      	ldr	r1, [sp, #48]	; 0x30
20002ee6:	f002 f8e7 	bl	200050b8 <__multiply>
20002eea:	4659      	mov	r1, fp
20002eec:	4603      	mov	r3, r0
20002eee:	4620      	mov	r0, r4
20002ef0:	9303      	str	r3, [sp, #12]
20002ef2:	f001 ff4d 	bl	20004d90 <_Bfree>
20002ef6:	9b03      	ldr	r3, [sp, #12]
20002ef8:	469b      	mov	fp, r3
20002efa:	9b15      	ldr	r3, [sp, #84]	; 0x54
20002efc:	1bda      	subs	r2, r3, r7
20002efe:	f040 8311 	bne.w	20003524 <_dtoa_r+0xd6c>
20002f02:	2101      	movs	r1, #1
20002f04:	4620      	mov	r0, r4
20002f06:	f002 f971 	bl	200051ec <__i2b>
20002f0a:	9006      	str	r0, [sp, #24]
20002f0c:	9817      	ldr	r0, [sp, #92]	; 0x5c
20002f0e:	2800      	cmp	r0, #0
20002f10:	dd05      	ble.n	20002f1e <_dtoa_r+0x766>
20002f12:	9906      	ldr	r1, [sp, #24]
20002f14:	4620      	mov	r0, r4
20002f16:	9a17      	ldr	r2, [sp, #92]	; 0x5c
20002f18:	f002 f9b6 	bl	20005288 <__pow5mult>
20002f1c:	9006      	str	r0, [sp, #24]
20002f1e:	992a      	ldr	r1, [sp, #168]	; 0xa8
20002f20:	2901      	cmp	r1, #1
20002f22:	f340 810a 	ble.w	2000313a <_dtoa_r+0x982>
20002f26:	2700      	movs	r7, #0
20002f28:	9b17      	ldr	r3, [sp, #92]	; 0x5c
20002f2a:	2b00      	cmp	r3, #0
20002f2c:	f040 8261 	bne.w	200033f2 <_dtoa_r+0xc3a>
20002f30:	2301      	movs	r3, #1
20002f32:	4453      	add	r3, sl
20002f34:	f013 031f 	ands.w	r3, r3, #31
20002f38:	f040 812a 	bne.w	20003190 <_dtoa_r+0x9d8>
20002f3c:	231c      	movs	r3, #28
20002f3e:	9a0f      	ldr	r2, [sp, #60]	; 0x3c
20002f40:	449a      	add	sl, r3
20002f42:	18ed      	adds	r5, r5, r3
20002f44:	18d2      	adds	r2, r2, r3
20002f46:	920f      	str	r2, [sp, #60]	; 0x3c
20002f48:	9b0f      	ldr	r3, [sp, #60]	; 0x3c
20002f4a:	2b00      	cmp	r3, #0
20002f4c:	dd05      	ble.n	20002f5a <_dtoa_r+0x7a2>
20002f4e:	4659      	mov	r1, fp
20002f50:	461a      	mov	r2, r3
20002f52:	4620      	mov	r0, r4
20002f54:	f002 f852 	bl	20004ffc <__lshift>
20002f58:	4683      	mov	fp, r0
20002f5a:	f1ba 0f00 	cmp.w	sl, #0
20002f5e:	dd05      	ble.n	20002f6c <_dtoa_r+0x7b4>
20002f60:	9906      	ldr	r1, [sp, #24]
20002f62:	4652      	mov	r2, sl
20002f64:	4620      	mov	r0, r4
20002f66:	f002 f849 	bl	20004ffc <__lshift>
20002f6a:	9006      	str	r0, [sp, #24]
20002f6c:	9818      	ldr	r0, [sp, #96]	; 0x60
20002f6e:	2800      	cmp	r0, #0
20002f70:	f040 8229 	bne.w	200033c6 <_dtoa_r+0xc0e>
20002f74:	982a      	ldr	r0, [sp, #168]	; 0xa8
20002f76:	9908      	ldr	r1, [sp, #32]
20002f78:	2802      	cmp	r0, #2
20002f7a:	bfd4      	ite	le
20002f7c:	2300      	movle	r3, #0
20002f7e:	2301      	movgt	r3, #1
20002f80:	2900      	cmp	r1, #0
20002f82:	bfcc      	ite	gt
20002f84:	2300      	movgt	r3, #0
20002f86:	f003 0301 	andle.w	r3, r3, #1
20002f8a:	2b00      	cmp	r3, #0
20002f8c:	f000 810c 	beq.w	200031a8 <_dtoa_r+0x9f0>
20002f90:	2900      	cmp	r1, #0
20002f92:	f040 808c 	bne.w	200030ae <_dtoa_r+0x8f6>
20002f96:	2205      	movs	r2, #5
20002f98:	9906      	ldr	r1, [sp, #24]
20002f9a:	9b08      	ldr	r3, [sp, #32]
20002f9c:	4620      	mov	r0, r4
20002f9e:	f002 f92f 	bl	20005200 <__multadd>
20002fa2:	9006      	str	r0, [sp, #24]
20002fa4:	4658      	mov	r0, fp
20002fa6:	9906      	ldr	r1, [sp, #24]
20002fa8:	f001 fdb8 	bl	20004b1c <__mcmp>
20002fac:	2800      	cmp	r0, #0
20002fae:	dd7e      	ble.n	200030ae <_dtoa_r+0x8f6>
20002fb0:	9d10      	ldr	r5, [sp, #64]	; 0x40
20002fb2:	3601      	adds	r6, #1
20002fb4:	2700      	movs	r7, #0
20002fb6:	f8dd a030 	ldr.w	sl, [sp, #48]	; 0x30
20002fba:	2331      	movs	r3, #49	; 0x31
20002fbc:	f805 3b01 	strb.w	r3, [r5], #1
20002fc0:	9906      	ldr	r1, [sp, #24]
20002fc2:	4620      	mov	r0, r4
20002fc4:	f001 fee4 	bl	20004d90 <_Bfree>
20002fc8:	f1ba 0f00 	cmp.w	sl, #0
20002fcc:	f000 80d5 	beq.w	2000317a <_dtoa_r+0x9c2>
20002fd0:	1e3b      	subs	r3, r7, #0
20002fd2:	bf18      	it	ne
20002fd4:	2301      	movne	r3, #1
20002fd6:	4557      	cmp	r7, sl
20002fd8:	bf0c      	ite	eq
20002fda:	2300      	moveq	r3, #0
20002fdc:	f003 0301 	andne.w	r3, r3, #1
20002fe0:	2b00      	cmp	r3, #0
20002fe2:	f040 80d0 	bne.w	20003186 <_dtoa_r+0x9ce>
20002fe6:	4651      	mov	r1, sl
20002fe8:	4620      	mov	r0, r4
20002fea:	f001 fed1 	bl	20004d90 <_Bfree>
20002fee:	9612      	str	r6, [sp, #72]	; 0x48
20002ff0:	4620      	mov	r0, r4
20002ff2:	4659      	mov	r1, fp
20002ff4:	f001 fecc 	bl	20004d90 <_Bfree>
20002ff8:	9a12      	ldr	r2, [sp, #72]	; 0x48
20002ffa:	1c53      	adds	r3, r2, #1
20002ffc:	2200      	movs	r2, #0
20002ffe:	702a      	strb	r2, [r5, #0]
20003000:	982c      	ldr	r0, [sp, #176]	; 0xb0
20003002:	992e      	ldr	r1, [sp, #184]	; 0xb8
20003004:	6003      	str	r3, [r0, #0]
20003006:	2900      	cmp	r1, #0
20003008:	f000 81d4 	beq.w	200033b4 <_dtoa_r+0xbfc>
2000300c:	9a2e      	ldr	r2, [sp, #184]	; 0xb8
2000300e:	9810      	ldr	r0, [sp, #64]	; 0x40
20003010:	6015      	str	r5, [r2, #0]
20003012:	e412      	b.n	2000283a <_dtoa_r+0x82>
20003014:	2010      	movs	r0, #16
20003016:	f001 f889 	bl	2000412c <malloc>
2000301a:	60c6      	str	r6, [r0, #12]
2000301c:	6046      	str	r6, [r0, #4]
2000301e:	6086      	str	r6, [r0, #8]
20003020:	6006      	str	r6, [r0, #0]
20003022:	4606      	mov	r6, r0
20003024:	6260      	str	r0, [r4, #36]	; 0x24
20003026:	f7ff bbd2 	b.w	200027ce <_dtoa_r+0x16>
2000302a:	980f      	ldr	r0, [sp, #60]	; 0x3c
2000302c:	4271      	negs	r1, r6
2000302e:	2200      	movs	r2, #0
20003030:	9115      	str	r1, [sp, #84]	; 0x54
20003032:	1b80      	subs	r0, r0, r6
20003034:	9217      	str	r2, [sp, #92]	; 0x5c
20003036:	900f      	str	r0, [sp, #60]	; 0x3c
20003038:	e48a      	b.n	20002950 <_dtoa_r+0x198>
2000303a:	2100      	movs	r1, #0
2000303c:	3e01      	subs	r6, #1
2000303e:	9118      	str	r1, [sp, #96]	; 0x60
20003040:	e472      	b.n	20002928 <_dtoa_r+0x170>
20003042:	e9dd 2306 	ldrd	r2, r3, [sp, #24]
20003046:	f04f 0802 	mov.w	r8, #2
2000304a:	e9cd 2312 	strd	r2, r3, [sp, #72]	; 0x48
2000304e:	e521      	b.n	20002a94 <_dtoa_r+0x2dc>
20003050:	982a      	ldr	r0, [sp, #168]	; 0xa8
20003052:	2801      	cmp	r0, #1
20003054:	f340 826c 	ble.w	20003530 <_dtoa_r+0xd78>
20003058:	9a08      	ldr	r2, [sp, #32]
2000305a:	9815      	ldr	r0, [sp, #84]	; 0x54
2000305c:	1e53      	subs	r3, r2, #1
2000305e:	4298      	cmp	r0, r3
20003060:	f2c0 8258 	blt.w	20003514 <_dtoa_r+0xd5c>
20003064:	1ac7      	subs	r7, r0, r3
20003066:	9b08      	ldr	r3, [sp, #32]
20003068:	2b00      	cmp	r3, #0
2000306a:	bfa8      	it	ge
2000306c:	9d0f      	ldrge	r5, [sp, #60]	; 0x3c
2000306e:	f2c0 8273 	blt.w	20003558 <_dtoa_r+0xda0>
20003072:	9a0f      	ldr	r2, [sp, #60]	; 0x3c
20003074:	4620      	mov	r0, r4
20003076:	2101      	movs	r1, #1
20003078:	449a      	add	sl, r3
2000307a:	18d2      	adds	r2, r2, r3
2000307c:	920f      	str	r2, [sp, #60]	; 0x3c
2000307e:	f002 f8b5 	bl	200051ec <__i2b>
20003082:	900c      	str	r0, [sp, #48]	; 0x30
20003084:	e708      	b.n	20002e98 <_dtoa_r+0x6e0>
20003086:	9b08      	ldr	r3, [sp, #32]
20003088:	b973      	cbnz	r3, 200030a8 <_dtoa_r+0x8f0>
2000308a:	f240 0300 	movw	r3, #0
2000308e:	2200      	movs	r2, #0
20003090:	f2c4 0314 	movt	r3, #16404	; 0x4014
20003094:	e9dd 0104 	ldrd	r0, r1, [sp, #16]
20003098:	f003 f904 	bl	200062a4 <__aeabi_dmul>
2000309c:	4642      	mov	r2, r8
2000309e:	464b      	mov	r3, r9
200030a0:	f003 fb86 	bl	200067b0 <__aeabi_dcmpge>
200030a4:	2800      	cmp	r0, #0
200030a6:	d06a      	beq.n	2000317e <_dtoa_r+0x9c6>
200030a8:	2200      	movs	r2, #0
200030aa:	9206      	str	r2, [sp, #24]
200030ac:	920c      	str	r2, [sp, #48]	; 0x30
200030ae:	9b2b      	ldr	r3, [sp, #172]	; 0xac
200030b0:	2700      	movs	r7, #0
200030b2:	f8dd a030 	ldr.w	sl, [sp, #48]	; 0x30
200030b6:	43de      	mvns	r6, r3
200030b8:	9d10      	ldr	r5, [sp, #64]	; 0x40
200030ba:	e781      	b.n	20002fc0 <_dtoa_r+0x808>
200030bc:	2100      	movs	r1, #0
200030be:	9116      	str	r1, [sp, #88]	; 0x58
200030c0:	982b      	ldr	r0, [sp, #172]	; 0xac
200030c2:	2800      	cmp	r0, #0
200030c4:	f340 819f 	ble.w	20003406 <_dtoa_r+0xc4e>
200030c8:	982b      	ldr	r0, [sp, #172]	; 0xac
200030ca:	4601      	mov	r1, r0
200030cc:	9011      	str	r0, [sp, #68]	; 0x44
200030ce:	9008      	str	r0, [sp, #32]
200030d0:	6a65      	ldr	r5, [r4, #36]	; 0x24
200030d2:	2200      	movs	r2, #0
200030d4:	2917      	cmp	r1, #23
200030d6:	606a      	str	r2, [r5, #4]
200030d8:	f240 82ab 	bls.w	20003632 <_dtoa_r+0xe7a>
200030dc:	2304      	movs	r3, #4
200030de:	005b      	lsls	r3, r3, #1
200030e0:	3201      	adds	r2, #1
200030e2:	f103 0014 	add.w	r0, r3, #20
200030e6:	4288      	cmp	r0, r1
200030e8:	d9f9      	bls.n	200030de <_dtoa_r+0x926>
200030ea:	9b08      	ldr	r3, [sp, #32]
200030ec:	606a      	str	r2, [r5, #4]
200030ee:	2b0e      	cmp	r3, #14
200030f0:	bf8c      	ite	hi
200030f2:	2700      	movhi	r7, #0
200030f4:	f007 0701 	andls.w	r7, r7, #1
200030f8:	e49d      	b.n	20002a36 <_dtoa_r+0x27e>
200030fa:	2201      	movs	r2, #1
200030fc:	9216      	str	r2, [sp, #88]	; 0x58
200030fe:	9b2b      	ldr	r3, [sp, #172]	; 0xac
20003100:	18f3      	adds	r3, r6, r3
20003102:	9311      	str	r3, [sp, #68]	; 0x44
20003104:	1c59      	adds	r1, r3, #1
20003106:	2900      	cmp	r1, #0
20003108:	bfc8      	it	gt
2000310a:	9108      	strgt	r1, [sp, #32]
2000310c:	dce0      	bgt.n	200030d0 <_dtoa_r+0x918>
2000310e:	290e      	cmp	r1, #14
20003110:	bf8c      	ite	hi
20003112:	2700      	movhi	r7, #0
20003114:	f007 0701 	andls.w	r7, r7, #1
20003118:	9108      	str	r1, [sp, #32]
2000311a:	e489      	b.n	20002a30 <_dtoa_r+0x278>
2000311c:	2301      	movs	r3, #1
2000311e:	9316      	str	r3, [sp, #88]	; 0x58
20003120:	e7ce      	b.n	200030c0 <_dtoa_r+0x908>
20003122:	2200      	movs	r2, #0
20003124:	9216      	str	r2, [sp, #88]	; 0x58
20003126:	e7ea      	b.n	200030fe <_dtoa_r+0x946>
20003128:	f04f 33ff 	mov.w	r3, #4294967295
2000312c:	2700      	movs	r7, #0
2000312e:	2001      	movs	r0, #1
20003130:	9311      	str	r3, [sp, #68]	; 0x44
20003132:	9016      	str	r0, [sp, #88]	; 0x58
20003134:	9308      	str	r3, [sp, #32]
20003136:	972b      	str	r7, [sp, #172]	; 0xac
20003138:	e47a      	b.n	20002a30 <_dtoa_r+0x278>
2000313a:	f1b8 0f00 	cmp.w	r8, #0
2000313e:	f47f aef2 	bne.w	20002f26 <_dtoa_r+0x76e>
20003142:	f029 437f 	bic.w	r3, r9, #4278190080	; 0xff000000
20003146:	f423 0370 	bic.w	r3, r3, #15728640	; 0xf00000
2000314a:	2b00      	cmp	r3, #0
2000314c:	f47f aeeb 	bne.w	20002f26 <_dtoa_r+0x76e>
20003150:	f240 0300 	movw	r3, #0
20003154:	f6c7 73f0 	movt	r3, #32752	; 0x7ff0
20003158:	ea09 0303 	and.w	r3, r9, r3
2000315c:	2b00      	cmp	r3, #0
2000315e:	f43f aee2 	beq.w	20002f26 <_dtoa_r+0x76e>
20003162:	9a0f      	ldr	r2, [sp, #60]	; 0x3c
20003164:	f10a 0a01 	add.w	sl, sl, #1
20003168:	2701      	movs	r7, #1
2000316a:	3201      	adds	r2, #1
2000316c:	920f      	str	r2, [sp, #60]	; 0x3c
2000316e:	e6db      	b.n	20002f28 <_dtoa_r+0x770>
20003170:	4635      	mov	r5, r6
20003172:	465c      	mov	r4, fp
20003174:	9e0f      	ldr	r6, [sp, #60]	; 0x3c
20003176:	f8dd b02c 	ldr.w	fp, [sp, #44]	; 0x2c
2000317a:	9612      	str	r6, [sp, #72]	; 0x48
2000317c:	e738      	b.n	20002ff0 <_dtoa_r+0x838>
2000317e:	2000      	movs	r0, #0
20003180:	9006      	str	r0, [sp, #24]
20003182:	900c      	str	r0, [sp, #48]	; 0x30
20003184:	e714      	b.n	20002fb0 <_dtoa_r+0x7f8>
20003186:	4639      	mov	r1, r7
20003188:	4620      	mov	r0, r4
2000318a:	f001 fe01 	bl	20004d90 <_Bfree>
2000318e:	e72a      	b.n	20002fe6 <_dtoa_r+0x82e>
20003190:	f1c3 0320 	rsb	r3, r3, #32
20003194:	2b04      	cmp	r3, #4
20003196:	f340 8254 	ble.w	20003642 <_dtoa_r+0xe8a>
2000319a:	990f      	ldr	r1, [sp, #60]	; 0x3c
2000319c:	3b04      	subs	r3, #4
2000319e:	449a      	add	sl, r3
200031a0:	18ed      	adds	r5, r5, r3
200031a2:	18c9      	adds	r1, r1, r3
200031a4:	910f      	str	r1, [sp, #60]	; 0x3c
200031a6:	e6cf      	b.n	20002f48 <_dtoa_r+0x790>
200031a8:	9916      	ldr	r1, [sp, #88]	; 0x58
200031aa:	2900      	cmp	r1, #0
200031ac:	f000 8131 	beq.w	20003412 <_dtoa_r+0xc5a>
200031b0:	2d00      	cmp	r5, #0
200031b2:	dd05      	ble.n	200031c0 <_dtoa_r+0xa08>
200031b4:	990c      	ldr	r1, [sp, #48]	; 0x30
200031b6:	462a      	mov	r2, r5
200031b8:	4620      	mov	r0, r4
200031ba:	f001 ff1f 	bl	20004ffc <__lshift>
200031be:	900c      	str	r0, [sp, #48]	; 0x30
200031c0:	2f00      	cmp	r7, #0
200031c2:	f040 81ea 	bne.w	2000359a <_dtoa_r+0xde2>
200031c6:	f8dd a030 	ldr.w	sl, [sp, #48]	; 0x30
200031ca:	9d10      	ldr	r5, [sp, #64]	; 0x40
200031cc:	2301      	movs	r3, #1
200031ce:	f008 0001 	and.w	r0, r8, #1
200031d2:	9f0c      	ldr	r7, [sp, #48]	; 0x30
200031d4:	9011      	str	r0, [sp, #68]	; 0x44
200031d6:	950f      	str	r5, [sp, #60]	; 0x3c
200031d8:	461d      	mov	r5, r3
200031da:	960c      	str	r6, [sp, #48]	; 0x30
200031dc:	9906      	ldr	r1, [sp, #24]
200031de:	4658      	mov	r0, fp
200031e0:	f7ff fa5a 	bl	20002698 <quorem>
200031e4:	4639      	mov	r1, r7
200031e6:	3030      	adds	r0, #48	; 0x30
200031e8:	900b      	str	r0, [sp, #44]	; 0x2c
200031ea:	4658      	mov	r0, fp
200031ec:	f001 fc96 	bl	20004b1c <__mcmp>
200031f0:	9906      	ldr	r1, [sp, #24]
200031f2:	4652      	mov	r2, sl
200031f4:	4606      	mov	r6, r0
200031f6:	4620      	mov	r0, r4
200031f8:	f001 fe84 	bl	20004f04 <__mdiff>
200031fc:	68c3      	ldr	r3, [r0, #12]
200031fe:	4680      	mov	r8, r0
20003200:	2b00      	cmp	r3, #0
20003202:	d03d      	beq.n	20003280 <_dtoa_r+0xac8>
20003204:	f04f 0901 	mov.w	r9, #1
20003208:	4641      	mov	r1, r8
2000320a:	4620      	mov	r0, r4
2000320c:	f001 fdc0 	bl	20004d90 <_Bfree>
20003210:	992a      	ldr	r1, [sp, #168]	; 0xa8
20003212:	ea59 0101 	orrs.w	r1, r9, r1
20003216:	d103      	bne.n	20003220 <_dtoa_r+0xa68>
20003218:	9a11      	ldr	r2, [sp, #68]	; 0x44
2000321a:	2a00      	cmp	r2, #0
2000321c:	f000 81eb 	beq.w	200035f6 <_dtoa_r+0xe3e>
20003220:	2e00      	cmp	r6, #0
20003222:	f2c0 819e 	blt.w	20003562 <_dtoa_r+0xdaa>
20003226:	9a2a      	ldr	r2, [sp, #168]	; 0xa8
20003228:	4332      	orrs	r2, r6
2000322a:	d103      	bne.n	20003234 <_dtoa_r+0xa7c>
2000322c:	9b11      	ldr	r3, [sp, #68]	; 0x44
2000322e:	2b00      	cmp	r3, #0
20003230:	f000 8197 	beq.w	20003562 <_dtoa_r+0xdaa>
20003234:	f1b9 0f00 	cmp.w	r9, #0
20003238:	f300 81ce 	bgt.w	200035d8 <_dtoa_r+0xe20>
2000323c:	990f      	ldr	r1, [sp, #60]	; 0x3c
2000323e:	9a0b      	ldr	r2, [sp, #44]	; 0x2c
20003240:	f801 2b01 	strb.w	r2, [r1], #1
20003244:	9b08      	ldr	r3, [sp, #32]
20003246:	910f      	str	r1, [sp, #60]	; 0x3c
20003248:	429d      	cmp	r5, r3
2000324a:	f000 81c2 	beq.w	200035d2 <_dtoa_r+0xe1a>
2000324e:	4659      	mov	r1, fp
20003250:	220a      	movs	r2, #10
20003252:	2300      	movs	r3, #0
20003254:	4620      	mov	r0, r4
20003256:	f001 ffd3 	bl	20005200 <__multadd>
2000325a:	4557      	cmp	r7, sl
2000325c:	4639      	mov	r1, r7
2000325e:	4683      	mov	fp, r0
20003260:	d014      	beq.n	2000328c <_dtoa_r+0xad4>
20003262:	220a      	movs	r2, #10
20003264:	2300      	movs	r3, #0
20003266:	4620      	mov	r0, r4
20003268:	3501      	adds	r5, #1
2000326a:	f001 ffc9 	bl	20005200 <__multadd>
2000326e:	4651      	mov	r1, sl
20003270:	220a      	movs	r2, #10
20003272:	2300      	movs	r3, #0
20003274:	4607      	mov	r7, r0
20003276:	4620      	mov	r0, r4
20003278:	f001 ffc2 	bl	20005200 <__multadd>
2000327c:	4682      	mov	sl, r0
2000327e:	e7ad      	b.n	200031dc <_dtoa_r+0xa24>
20003280:	4658      	mov	r0, fp
20003282:	4641      	mov	r1, r8
20003284:	f001 fc4a 	bl	20004b1c <__mcmp>
20003288:	4681      	mov	r9, r0
2000328a:	e7bd      	b.n	20003208 <_dtoa_r+0xa50>
2000328c:	4620      	mov	r0, r4
2000328e:	220a      	movs	r2, #10
20003290:	2300      	movs	r3, #0
20003292:	3501      	adds	r5, #1
20003294:	f001 ffb4 	bl	20005200 <__multadd>
20003298:	4607      	mov	r7, r0
2000329a:	4682      	mov	sl, r0
2000329c:	e79e      	b.n	200031dc <_dtoa_r+0xa24>
2000329e:	9612      	str	r6, [sp, #72]	; 0x48
200032a0:	f8dd c020 	ldr.w	ip, [sp, #32]
200032a4:	e459      	b.n	20002b5a <_dtoa_r+0x3a2>
200032a6:	4275      	negs	r5, r6
200032a8:	2d00      	cmp	r5, #0
200032aa:	f040 8101 	bne.w	200034b0 <_dtoa_r+0xcf8>
200032ae:	e9dd 0106 	ldrd	r0, r1, [sp, #24]
200032b2:	f04f 0802 	mov.w	r8, #2
200032b6:	e9cd 010c 	strd	r0, r1, [sp, #48]	; 0x30
200032ba:	e40c      	b.n	20002ad6 <_dtoa_r+0x31e>
200032bc:	f247 0170 	movw	r1, #28784	; 0x7070
200032c0:	4642      	mov	r2, r8
200032c2:	f2c2 0100 	movt	r1, #8192	; 0x2000
200032c6:	464b      	mov	r3, r9
200032c8:	eb01 01cc 	add.w	r1, r1, ip, lsl #3
200032cc:	f8cd c00c 	str.w	ip, [sp, #12]
200032d0:	9d10      	ldr	r5, [sp, #64]	; 0x40
200032d2:	e951 0102 	ldrd	r0, r1, [r1, #-8]
200032d6:	f002 ffe5 	bl	200062a4 <__aeabi_dmul>
200032da:	e9cd 011a 	strd	r0, r1, [sp, #104]	; 0x68
200032de:	e9dd 010c 	ldrd	r0, r1, [sp, #48]	; 0x30
200032e2:	f003 fa79 	bl	200067d8 <__aeabi_d2iz>
200032e6:	4607      	mov	r7, r0
200032e8:	f002 ff76 	bl	200061d8 <__aeabi_i2d>
200032ec:	460b      	mov	r3, r1
200032ee:	4602      	mov	r2, r0
200032f0:	e9dd 010c 	ldrd	r0, r1, [sp, #48]	; 0x30
200032f4:	f002 fe22 	bl	20005f3c <__aeabi_dsub>
200032f8:	f107 0330 	add.w	r3, r7, #48	; 0x30
200032fc:	e9cd 010c 	strd	r0, r1, [sp, #48]	; 0x30
20003300:	f805 3b01 	strb.w	r3, [r5], #1
20003304:	f8dd c00c 	ldr.w	ip, [sp, #12]
20003308:	f1bc 0f01 	cmp.w	ip, #1
2000330c:	d029      	beq.n	20003362 <_dtoa_r+0xbaa>
2000330e:	46d1      	mov	r9, sl
20003310:	e9dd 010c 	ldrd	r0, r1, [sp, #48]	; 0x30
20003314:	46b2      	mov	sl, r6
20003316:	9e10      	ldr	r6, [sp, #64]	; 0x40
20003318:	951c      	str	r5, [sp, #112]	; 0x70
2000331a:	2701      	movs	r7, #1
2000331c:	4665      	mov	r5, ip
2000331e:	46a0      	mov	r8, r4
20003320:	f240 0300 	movw	r3, #0
20003324:	2200      	movs	r2, #0
20003326:	f2c4 0324 	movt	r3, #16420	; 0x4024
2000332a:	f002 ffbb 	bl	200062a4 <__aeabi_dmul>
2000332e:	e9cd 010c 	strd	r0, r1, [sp, #48]	; 0x30
20003332:	f003 fa51 	bl	200067d8 <__aeabi_d2iz>
20003336:	4604      	mov	r4, r0
20003338:	f002 ff4e 	bl	200061d8 <__aeabi_i2d>
2000333c:	3430      	adds	r4, #48	; 0x30
2000333e:	4602      	mov	r2, r0
20003340:	460b      	mov	r3, r1
20003342:	e9dd 010c 	ldrd	r0, r1, [sp, #48]	; 0x30
20003346:	f002 fdf9 	bl	20005f3c <__aeabi_dsub>
2000334a:	55f4      	strb	r4, [r6, r7]
2000334c:	3701      	adds	r7, #1
2000334e:	42af      	cmp	r7, r5
20003350:	d1e6      	bne.n	20003320 <_dtoa_r+0xb68>
20003352:	9d1c      	ldr	r5, [sp, #112]	; 0x70
20003354:	3f01      	subs	r7, #1
20003356:	4656      	mov	r6, sl
20003358:	4644      	mov	r4, r8
2000335a:	46ca      	mov	sl, r9
2000335c:	19ed      	adds	r5, r5, r7
2000335e:	e9cd 010c 	strd	r0, r1, [sp, #48]	; 0x30
20003362:	f240 0300 	movw	r3, #0
20003366:	2200      	movs	r2, #0
20003368:	f6c3 73e0 	movt	r3, #16352	; 0x3fe0
2000336c:	e9dd 011a 	ldrd	r0, r1, [sp, #104]	; 0x68
20003370:	f002 fde6 	bl	20005f40 <__adddf3>
20003374:	4602      	mov	r2, r0
20003376:	460b      	mov	r3, r1
20003378:	e9dd 010c 	ldrd	r0, r1, [sp, #48]	; 0x30
2000337c:	f003 fa22 	bl	200067c4 <__aeabi_dcmpgt>
20003380:	b9f0      	cbnz	r0, 200033c0 <_dtoa_r+0xc08>
20003382:	f240 0100 	movw	r1, #0
20003386:	e9dd 231a 	ldrd	r2, r3, [sp, #104]	; 0x68
2000338a:	2000      	movs	r0, #0
2000338c:	f6c3 71e0 	movt	r1, #16352	; 0x3fe0
20003390:	f002 fdd4 	bl	20005f3c <__aeabi_dsub>
20003394:	4602      	mov	r2, r0
20003396:	460b      	mov	r3, r1
20003398:	e9dd 010c 	ldrd	r0, r1, [sp, #48]	; 0x30
2000339c:	f003 f9f4 	bl	20006788 <__aeabi_dcmplt>
200033a0:	2800      	cmp	r0, #0
200033a2:	f43f acac 	beq.w	20002cfe <_dtoa_r+0x546>
200033a6:	462b      	mov	r3, r5
200033a8:	461d      	mov	r5, r3
200033aa:	f813 2d01 	ldrb.w	r2, [r3, #-1]!
200033ae:	2a30      	cmp	r2, #48	; 0x30
200033b0:	d0fa      	beq.n	200033a8 <_dtoa_r+0xbf0>
200033b2:	e61d      	b.n	20002ff0 <_dtoa_r+0x838>
200033b4:	9810      	ldr	r0, [sp, #64]	; 0x40
200033b6:	f7ff ba40 	b.w	2000283a <_dtoa_r+0x82>
200033ba:	f8dd b068 	ldr.w	fp, [sp, #104]	; 0x68
200033be:	9c0c      	ldr	r4, [sp, #48]	; 0x30
200033c0:	9e12      	ldr	r6, [sp, #72]	; 0x48
200033c2:	9910      	ldr	r1, [sp, #64]	; 0x40
200033c4:	e550      	b.n	20002e68 <_dtoa_r+0x6b0>
200033c6:	4658      	mov	r0, fp
200033c8:	9906      	ldr	r1, [sp, #24]
200033ca:	f001 fba7 	bl	20004b1c <__mcmp>
200033ce:	2800      	cmp	r0, #0
200033d0:	f6bf add0 	bge.w	20002f74 <_dtoa_r+0x7bc>
200033d4:	4659      	mov	r1, fp
200033d6:	4620      	mov	r0, r4
200033d8:	220a      	movs	r2, #10
200033da:	2300      	movs	r3, #0
200033dc:	f001 ff10 	bl	20005200 <__multadd>
200033e0:	9916      	ldr	r1, [sp, #88]	; 0x58
200033e2:	3e01      	subs	r6, #1
200033e4:	4683      	mov	fp, r0
200033e6:	2900      	cmp	r1, #0
200033e8:	f040 8119 	bne.w	2000361e <_dtoa_r+0xe66>
200033ec:	9a11      	ldr	r2, [sp, #68]	; 0x44
200033ee:	9208      	str	r2, [sp, #32]
200033f0:	e5c0      	b.n	20002f74 <_dtoa_r+0x7bc>
200033f2:	9806      	ldr	r0, [sp, #24]
200033f4:	6903      	ldr	r3, [r0, #16]
200033f6:	eb00 0383 	add.w	r3, r0, r3, lsl #2
200033fa:	6918      	ldr	r0, [r3, #16]
200033fc:	f001 fb3c 	bl	20004a78 <__hi0bits>
20003400:	f1c0 0320 	rsb	r3, r0, #32
20003404:	e595      	b.n	20002f32 <_dtoa_r+0x77a>
20003406:	2101      	movs	r1, #1
20003408:	9111      	str	r1, [sp, #68]	; 0x44
2000340a:	9108      	str	r1, [sp, #32]
2000340c:	912b      	str	r1, [sp, #172]	; 0xac
2000340e:	f7ff bb0f 	b.w	20002a30 <_dtoa_r+0x278>
20003412:	9d10      	ldr	r5, [sp, #64]	; 0x40
20003414:	46b1      	mov	r9, r6
20003416:	9f16      	ldr	r7, [sp, #88]	; 0x58
20003418:	46aa      	mov	sl, r5
2000341a:	f8dd 8018 	ldr.w	r8, [sp, #24]
2000341e:	9e08      	ldr	r6, [sp, #32]
20003420:	e002      	b.n	20003428 <_dtoa_r+0xc70>
20003422:	f001 feed 	bl	20005200 <__multadd>
20003426:	4683      	mov	fp, r0
20003428:	4641      	mov	r1, r8
2000342a:	4658      	mov	r0, fp
2000342c:	f7ff f934 	bl	20002698 <quorem>
20003430:	3501      	adds	r5, #1
20003432:	220a      	movs	r2, #10
20003434:	2300      	movs	r3, #0
20003436:	4659      	mov	r1, fp
20003438:	f100 0c30 	add.w	ip, r0, #48	; 0x30
2000343c:	f80a c007 	strb.w	ip, [sl, r7]
20003440:	3701      	adds	r7, #1
20003442:	4620      	mov	r0, r4
20003444:	42be      	cmp	r6, r7
20003446:	dcec      	bgt.n	20003422 <_dtoa_r+0xc6a>
20003448:	f8dd a030 	ldr.w	sl, [sp, #48]	; 0x30
2000344c:	464e      	mov	r6, r9
2000344e:	2700      	movs	r7, #0
20003450:	f8cd c02c 	str.w	ip, [sp, #44]	; 0x2c
20003454:	4659      	mov	r1, fp
20003456:	2201      	movs	r2, #1
20003458:	4620      	mov	r0, r4
2000345a:	f001 fdcf 	bl	20004ffc <__lshift>
2000345e:	9906      	ldr	r1, [sp, #24]
20003460:	4683      	mov	fp, r0
20003462:	f001 fb5b 	bl	20004b1c <__mcmp>
20003466:	2800      	cmp	r0, #0
20003468:	dd0f      	ble.n	2000348a <_dtoa_r+0xcd2>
2000346a:	9910      	ldr	r1, [sp, #64]	; 0x40
2000346c:	e000      	b.n	20003470 <_dtoa_r+0xcb8>
2000346e:	461d      	mov	r5, r3
20003470:	f815 2c01 	ldrb.w	r2, [r5, #-1]
20003474:	1e6b      	subs	r3, r5, #1
20003476:	2a39      	cmp	r2, #57	; 0x39
20003478:	f040 808c 	bne.w	20003594 <_dtoa_r+0xddc>
2000347c:	428b      	cmp	r3, r1
2000347e:	d1f6      	bne.n	2000346e <_dtoa_r+0xcb6>
20003480:	9910      	ldr	r1, [sp, #64]	; 0x40
20003482:	2331      	movs	r3, #49	; 0x31
20003484:	3601      	adds	r6, #1
20003486:	700b      	strb	r3, [r1, #0]
20003488:	e59a      	b.n	20002fc0 <_dtoa_r+0x808>
2000348a:	d103      	bne.n	20003494 <_dtoa_r+0xcdc>
2000348c:	980b      	ldr	r0, [sp, #44]	; 0x2c
2000348e:	f010 0f01 	tst.w	r0, #1
20003492:	d1ea      	bne.n	2000346a <_dtoa_r+0xcb2>
20003494:	462b      	mov	r3, r5
20003496:	461d      	mov	r5, r3
20003498:	f813 2d01 	ldrb.w	r2, [r3, #-1]!
2000349c:	2a30      	cmp	r2, #48	; 0x30
2000349e:	d0fa      	beq.n	20003496 <_dtoa_r+0xcde>
200034a0:	e58e      	b.n	20002fc0 <_dtoa_r+0x808>
200034a2:	4659      	mov	r1, fp
200034a4:	9a15      	ldr	r2, [sp, #84]	; 0x54
200034a6:	4620      	mov	r0, r4
200034a8:	f001 feee 	bl	20005288 <__pow5mult>
200034ac:	4683      	mov	fp, r0
200034ae:	e528      	b.n	20002f02 <_dtoa_r+0x74a>
200034b0:	f005 030f 	and.w	r3, r5, #15
200034b4:	f247 0270 	movw	r2, #28784	; 0x7070
200034b8:	f2c2 0200 	movt	r2, #8192	; 0x2000
200034bc:	e9dd 0106 	ldrd	r0, r1, [sp, #24]
200034c0:	eb02 03c3 	add.w	r3, r2, r3, lsl #3
200034c4:	e9d3 2300 	ldrd	r2, r3, [r3]
200034c8:	f002 feec 	bl	200062a4 <__aeabi_dmul>
200034cc:	112d      	asrs	r5, r5, #4
200034ce:	bf08      	it	eq
200034d0:	f04f 0802 	moveq.w	r8, #2
200034d4:	e9cd 010c 	strd	r0, r1, [sp, #48]	; 0x30
200034d8:	f43f aafd 	beq.w	20002ad6 <_dtoa_r+0x31e>
200034dc:	f247 1748 	movw	r7, #29000	; 0x7148
200034e0:	e9dd 230c 	ldrd	r2, r3, [sp, #48]	; 0x30
200034e4:	f04f 0802 	mov.w	r8, #2
200034e8:	f2c2 0700 	movt	r7, #8192	; 0x2000
200034ec:	f015 0f01 	tst.w	r5, #1
200034f0:	4610      	mov	r0, r2
200034f2:	4619      	mov	r1, r3
200034f4:	d007      	beq.n	20003506 <_dtoa_r+0xd4e>
200034f6:	e9d7 2300 	ldrd	r2, r3, [r7]
200034fa:	f108 0801 	add.w	r8, r8, #1
200034fe:	f002 fed1 	bl	200062a4 <__aeabi_dmul>
20003502:	4602      	mov	r2, r0
20003504:	460b      	mov	r3, r1
20003506:	3708      	adds	r7, #8
20003508:	106d      	asrs	r5, r5, #1
2000350a:	d1ef      	bne.n	200034ec <_dtoa_r+0xd34>
2000350c:	e9cd 230c 	strd	r2, r3, [sp, #48]	; 0x30
20003510:	f7ff bae1 	b.w	20002ad6 <_dtoa_r+0x31e>
20003514:	9915      	ldr	r1, [sp, #84]	; 0x54
20003516:	9a17      	ldr	r2, [sp, #92]	; 0x5c
20003518:	1a5b      	subs	r3, r3, r1
2000351a:	18c9      	adds	r1, r1, r3
2000351c:	18d2      	adds	r2, r2, r3
2000351e:	9115      	str	r1, [sp, #84]	; 0x54
20003520:	9217      	str	r2, [sp, #92]	; 0x5c
20003522:	e5a0      	b.n	20003066 <_dtoa_r+0x8ae>
20003524:	4659      	mov	r1, fp
20003526:	4620      	mov	r0, r4
20003528:	f001 feae 	bl	20005288 <__pow5mult>
2000352c:	4683      	mov	fp, r0
2000352e:	e4e8      	b.n	20002f02 <_dtoa_r+0x74a>
20003530:	9919      	ldr	r1, [sp, #100]	; 0x64
20003532:	2900      	cmp	r1, #0
20003534:	d047      	beq.n	200035c6 <_dtoa_r+0xe0e>
20003536:	f503 6386 	add.w	r3, r3, #1072	; 0x430
2000353a:	9f15      	ldr	r7, [sp, #84]	; 0x54
2000353c:	3303      	adds	r3, #3
2000353e:	9d0f      	ldr	r5, [sp, #60]	; 0x3c
20003540:	e597      	b.n	20003072 <_dtoa_r+0x8ba>
20003542:	3201      	adds	r2, #1
20003544:	b2d2      	uxtb	r2, r2
20003546:	e49d      	b.n	20002e84 <_dtoa_r+0x6cc>
20003548:	f8dd b068 	ldr.w	fp, [sp, #104]	; 0x68
2000354c:	f8dd a070 	ldr.w	sl, [sp, #112]	; 0x70
20003550:	9e1d      	ldr	r6, [sp, #116]	; 0x74
20003552:	9c0c      	ldr	r4, [sp, #48]	; 0x30
20003554:	f7ff bbd3 	b.w	20002cfe <_dtoa_r+0x546>
20003558:	990f      	ldr	r1, [sp, #60]	; 0x3c
2000355a:	2300      	movs	r3, #0
2000355c:	9808      	ldr	r0, [sp, #32]
2000355e:	1a0d      	subs	r5, r1, r0
20003560:	e587      	b.n	20003072 <_dtoa_r+0x8ba>
20003562:	f1b9 0f00 	cmp.w	r9, #0
20003566:	9d0f      	ldr	r5, [sp, #60]	; 0x3c
20003568:	9e0c      	ldr	r6, [sp, #48]	; 0x30
2000356a:	dd0f      	ble.n	2000358c <_dtoa_r+0xdd4>
2000356c:	4659      	mov	r1, fp
2000356e:	2201      	movs	r2, #1
20003570:	4620      	mov	r0, r4
20003572:	f001 fd43 	bl	20004ffc <__lshift>
20003576:	9906      	ldr	r1, [sp, #24]
20003578:	4683      	mov	fp, r0
2000357a:	f001 facf 	bl	20004b1c <__mcmp>
2000357e:	2800      	cmp	r0, #0
20003580:	dd47      	ble.n	20003612 <_dtoa_r+0xe5a>
20003582:	990b      	ldr	r1, [sp, #44]	; 0x2c
20003584:	2939      	cmp	r1, #57	; 0x39
20003586:	d031      	beq.n	200035ec <_dtoa_r+0xe34>
20003588:	3101      	adds	r1, #1
2000358a:	910b      	str	r1, [sp, #44]	; 0x2c
2000358c:	9a0b      	ldr	r2, [sp, #44]	; 0x2c
2000358e:	f805 2b01 	strb.w	r2, [r5], #1
20003592:	e515      	b.n	20002fc0 <_dtoa_r+0x808>
20003594:	3201      	adds	r2, #1
20003596:	701a      	strb	r2, [r3, #0]
20003598:	e512      	b.n	20002fc0 <_dtoa_r+0x808>
2000359a:	9a0c      	ldr	r2, [sp, #48]	; 0x30
2000359c:	4620      	mov	r0, r4
2000359e:	6851      	ldr	r1, [r2, #4]
200035a0:	f001 fc12 	bl	20004dc8 <_Balloc>
200035a4:	9b0c      	ldr	r3, [sp, #48]	; 0x30
200035a6:	f103 010c 	add.w	r1, r3, #12
200035aa:	691a      	ldr	r2, [r3, #16]
200035ac:	3202      	adds	r2, #2
200035ae:	0092      	lsls	r2, r2, #2
200035b0:	4605      	mov	r5, r0
200035b2:	300c      	adds	r0, #12
200035b4:	f001 f8ce 	bl	20004754 <memcpy>
200035b8:	4620      	mov	r0, r4
200035ba:	4629      	mov	r1, r5
200035bc:	2201      	movs	r2, #1
200035be:	f001 fd1d 	bl	20004ffc <__lshift>
200035c2:	4682      	mov	sl, r0
200035c4:	e601      	b.n	200031ca <_dtoa_r+0xa12>
200035c6:	9b1f      	ldr	r3, [sp, #124]	; 0x7c
200035c8:	9f15      	ldr	r7, [sp, #84]	; 0x54
200035ca:	9d0f      	ldr	r5, [sp, #60]	; 0x3c
200035cc:	f1c3 0336 	rsb	r3, r3, #54	; 0x36
200035d0:	e54f      	b.n	20003072 <_dtoa_r+0x8ba>
200035d2:	9d0f      	ldr	r5, [sp, #60]	; 0x3c
200035d4:	9e0c      	ldr	r6, [sp, #48]	; 0x30
200035d6:	e73d      	b.n	20003454 <_dtoa_r+0xc9c>
200035d8:	9b0b      	ldr	r3, [sp, #44]	; 0x2c
200035da:	9d0f      	ldr	r5, [sp, #60]	; 0x3c
200035dc:	2b39      	cmp	r3, #57	; 0x39
200035de:	9e0c      	ldr	r6, [sp, #48]	; 0x30
200035e0:	d004      	beq.n	200035ec <_dtoa_r+0xe34>
200035e2:	980b      	ldr	r0, [sp, #44]	; 0x2c
200035e4:	1c43      	adds	r3, r0, #1
200035e6:	f805 3b01 	strb.w	r3, [r5], #1
200035ea:	e4e9      	b.n	20002fc0 <_dtoa_r+0x808>
200035ec:	2339      	movs	r3, #57	; 0x39
200035ee:	f805 3b01 	strb.w	r3, [r5], #1
200035f2:	9910      	ldr	r1, [sp, #64]	; 0x40
200035f4:	e73c      	b.n	20003470 <_dtoa_r+0xcb8>
200035f6:	980b      	ldr	r0, [sp, #44]	; 0x2c
200035f8:	4633      	mov	r3, r6
200035fa:	9d0f      	ldr	r5, [sp, #60]	; 0x3c
200035fc:	2839      	cmp	r0, #57	; 0x39
200035fe:	9e0c      	ldr	r6, [sp, #48]	; 0x30
20003600:	d0f4      	beq.n	200035ec <_dtoa_r+0xe34>
20003602:	2b00      	cmp	r3, #0
20003604:	dd01      	ble.n	2000360a <_dtoa_r+0xe52>
20003606:	3001      	adds	r0, #1
20003608:	900b      	str	r0, [sp, #44]	; 0x2c
2000360a:	990b      	ldr	r1, [sp, #44]	; 0x2c
2000360c:	f805 1b01 	strb.w	r1, [r5], #1
20003610:	e4d6      	b.n	20002fc0 <_dtoa_r+0x808>
20003612:	d1bb      	bne.n	2000358c <_dtoa_r+0xdd4>
20003614:	980b      	ldr	r0, [sp, #44]	; 0x2c
20003616:	f010 0f01 	tst.w	r0, #1
2000361a:	d0b7      	beq.n	2000358c <_dtoa_r+0xdd4>
2000361c:	e7b1      	b.n	20003582 <_dtoa_r+0xdca>
2000361e:	2300      	movs	r3, #0
20003620:	990c      	ldr	r1, [sp, #48]	; 0x30
20003622:	4620      	mov	r0, r4
20003624:	220a      	movs	r2, #10
20003626:	f001 fdeb 	bl	20005200 <__multadd>
2000362a:	9b11      	ldr	r3, [sp, #68]	; 0x44
2000362c:	9308      	str	r3, [sp, #32]
2000362e:	900c      	str	r0, [sp, #48]	; 0x30
20003630:	e4a0      	b.n	20002f74 <_dtoa_r+0x7bc>
20003632:	9908      	ldr	r1, [sp, #32]
20003634:	290e      	cmp	r1, #14
20003636:	bf8c      	ite	hi
20003638:	2700      	movhi	r7, #0
2000363a:	f007 0701 	andls.w	r7, r7, #1
2000363e:	f7ff b9fa 	b.w	20002a36 <_dtoa_r+0x27e>
20003642:	f43f ac81 	beq.w	20002f48 <_dtoa_r+0x790>
20003646:	331c      	adds	r3, #28
20003648:	e479      	b.n	20002f3e <_dtoa_r+0x786>
2000364a:	2701      	movs	r7, #1
2000364c:	f7ff b98a 	b.w	20002964 <_dtoa_r+0x1ac>

20003650 <_fflush_r>:
20003650:	690b      	ldr	r3, [r1, #16]
20003652:	e92d 41f0 	stmdb	sp!, {r4, r5, r6, r7, r8, lr}
20003656:	460c      	mov	r4, r1
20003658:	4680      	mov	r8, r0
2000365a:	2b00      	cmp	r3, #0
2000365c:	d071      	beq.n	20003742 <_fflush_r+0xf2>
2000365e:	b110      	cbz	r0, 20003666 <_fflush_r+0x16>
20003660:	6983      	ldr	r3, [r0, #24]
20003662:	2b00      	cmp	r3, #0
20003664:	d078      	beq.n	20003758 <_fflush_r+0x108>
20003666:	f646 73cc 	movw	r3, #28620	; 0x6fcc
2000366a:	f2c2 0300 	movt	r3, #8192	; 0x2000
2000366e:	429c      	cmp	r4, r3
20003670:	bf08      	it	eq
20003672:	f8d8 4004 	ldreq.w	r4, [r8, #4]
20003676:	d010      	beq.n	2000369a <_fflush_r+0x4a>
20003678:	f646 73ec 	movw	r3, #28652	; 0x6fec
2000367c:	f2c2 0300 	movt	r3, #8192	; 0x2000
20003680:	429c      	cmp	r4, r3
20003682:	bf08      	it	eq
20003684:	f8d8 4008 	ldreq.w	r4, [r8, #8]
20003688:	d007      	beq.n	2000369a <_fflush_r+0x4a>
2000368a:	f247 030c 	movw	r3, #28684	; 0x700c
2000368e:	f2c2 0300 	movt	r3, #8192	; 0x2000
20003692:	429c      	cmp	r4, r3
20003694:	bf08      	it	eq
20003696:	f8d8 400c 	ldreq.w	r4, [r8, #12]
2000369a:	89a3      	ldrh	r3, [r4, #12]
2000369c:	b21a      	sxth	r2, r3
2000369e:	f012 0f08 	tst.w	r2, #8
200036a2:	d135      	bne.n	20003710 <_fflush_r+0xc0>
200036a4:	6862      	ldr	r2, [r4, #4]
200036a6:	f443 6300 	orr.w	r3, r3, #2048	; 0x800
200036aa:	81a3      	strh	r3, [r4, #12]
200036ac:	2a00      	cmp	r2, #0
200036ae:	dd5e      	ble.n	2000376e <_fflush_r+0x11e>
200036b0:	6ae6      	ldr	r6, [r4, #44]	; 0x2c
200036b2:	2e00      	cmp	r6, #0
200036b4:	d045      	beq.n	20003742 <_fflush_r+0xf2>
200036b6:	b29b      	uxth	r3, r3
200036b8:	f413 5280 	ands.w	r2, r3, #4096	; 0x1000
200036bc:	bf18      	it	ne
200036be:	6d65      	ldrne	r5, [r4, #84]	; 0x54
200036c0:	d059      	beq.n	20003776 <_fflush_r+0x126>
200036c2:	f013 0f04 	tst.w	r3, #4
200036c6:	d14a      	bne.n	2000375e <_fflush_r+0x10e>
200036c8:	2300      	movs	r3, #0
200036ca:	4640      	mov	r0, r8
200036cc:	6a21      	ldr	r1, [r4, #32]
200036ce:	462a      	mov	r2, r5
200036d0:	47b0      	blx	r6
200036d2:	4285      	cmp	r5, r0
200036d4:	d138      	bne.n	20003748 <_fflush_r+0xf8>
200036d6:	89a1      	ldrh	r1, [r4, #12]
200036d8:	f24f 73ff 	movw	r3, #63487	; 0xf7ff
200036dc:	6922      	ldr	r2, [r4, #16]
200036de:	f2c0 0300 	movt	r3, #0
200036e2:	ea01 0303 	and.w	r3, r1, r3
200036e6:	2100      	movs	r1, #0
200036e8:	6061      	str	r1, [r4, #4]
200036ea:	f413 5f80 	tst.w	r3, #4096	; 0x1000
200036ee:	6b61      	ldr	r1, [r4, #52]	; 0x34
200036f0:	81a3      	strh	r3, [r4, #12]
200036f2:	6022      	str	r2, [r4, #0]
200036f4:	bf18      	it	ne
200036f6:	6565      	strne	r5, [r4, #84]	; 0x54
200036f8:	b319      	cbz	r1, 20003742 <_fflush_r+0xf2>
200036fa:	f104 0344 	add.w	r3, r4, #68	; 0x44
200036fe:	4299      	cmp	r1, r3
20003700:	d002      	beq.n	20003708 <_fflush_r+0xb8>
20003702:	4640      	mov	r0, r8
20003704:	f000 f998 	bl	20003a38 <_free_r>
20003708:	2000      	movs	r0, #0
2000370a:	6360      	str	r0, [r4, #52]	; 0x34
2000370c:	e8bd 81f0 	ldmia.w	sp!, {r4, r5, r6, r7, r8, pc}
20003710:	6926      	ldr	r6, [r4, #16]
20003712:	b1b6      	cbz	r6, 20003742 <_fflush_r+0xf2>
20003714:	6825      	ldr	r5, [r4, #0]
20003716:	6026      	str	r6, [r4, #0]
20003718:	1bad      	subs	r5, r5, r6
2000371a:	f012 0f03 	tst.w	r2, #3
2000371e:	bf0c      	ite	eq
20003720:	6963      	ldreq	r3, [r4, #20]
20003722:	2300      	movne	r3, #0
20003724:	60a3      	str	r3, [r4, #8]
20003726:	e00a      	b.n	2000373e <_fflush_r+0xee>
20003728:	4632      	mov	r2, r6
2000372a:	462b      	mov	r3, r5
2000372c:	6aa7      	ldr	r7, [r4, #40]	; 0x28
2000372e:	4640      	mov	r0, r8
20003730:	6a21      	ldr	r1, [r4, #32]
20003732:	47b8      	blx	r7
20003734:	2800      	cmp	r0, #0
20003736:	ebc0 0505 	rsb	r5, r0, r5
2000373a:	4406      	add	r6, r0
2000373c:	dd04      	ble.n	20003748 <_fflush_r+0xf8>
2000373e:	2d00      	cmp	r5, #0
20003740:	dcf2      	bgt.n	20003728 <_fflush_r+0xd8>
20003742:	2000      	movs	r0, #0
20003744:	e8bd 81f0 	ldmia.w	sp!, {r4, r5, r6, r7, r8, pc}
20003748:	89a3      	ldrh	r3, [r4, #12]
2000374a:	f04f 30ff 	mov.w	r0, #4294967295
2000374e:	f043 0340 	orr.w	r3, r3, #64	; 0x40
20003752:	81a3      	strh	r3, [r4, #12]
20003754:	e8bd 81f0 	ldmia.w	sp!, {r4, r5, r6, r7, r8, pc}
20003758:	f000 f8ea 	bl	20003930 <__sinit>
2000375c:	e783      	b.n	20003666 <_fflush_r+0x16>
2000375e:	6862      	ldr	r2, [r4, #4]
20003760:	6b63      	ldr	r3, [r4, #52]	; 0x34
20003762:	1aad      	subs	r5, r5, r2
20003764:	2b00      	cmp	r3, #0
20003766:	d0af      	beq.n	200036c8 <_fflush_r+0x78>
20003768:	6c23      	ldr	r3, [r4, #64]	; 0x40
2000376a:	1aed      	subs	r5, r5, r3
2000376c:	e7ac      	b.n	200036c8 <_fflush_r+0x78>
2000376e:	6c22      	ldr	r2, [r4, #64]	; 0x40
20003770:	2a00      	cmp	r2, #0
20003772:	dc9d      	bgt.n	200036b0 <_fflush_r+0x60>
20003774:	e7e5      	b.n	20003742 <_fflush_r+0xf2>
20003776:	2301      	movs	r3, #1
20003778:	4640      	mov	r0, r8
2000377a:	6a21      	ldr	r1, [r4, #32]
2000377c:	47b0      	blx	r6
2000377e:	f1b0 3fff 	cmp.w	r0, #4294967295
20003782:	4605      	mov	r5, r0
20003784:	d002      	beq.n	2000378c <_fflush_r+0x13c>
20003786:	89a3      	ldrh	r3, [r4, #12]
20003788:	6ae6      	ldr	r6, [r4, #44]	; 0x2c
2000378a:	e79a      	b.n	200036c2 <_fflush_r+0x72>
2000378c:	f8d8 3000 	ldr.w	r3, [r8]
20003790:	2b1d      	cmp	r3, #29
20003792:	d0d6      	beq.n	20003742 <_fflush_r+0xf2>
20003794:	89a3      	ldrh	r3, [r4, #12]
20003796:	f043 0340 	orr.w	r3, r3, #64	; 0x40
2000379a:	81a3      	strh	r3, [r4, #12]
2000379c:	e8bd 81f0 	ldmia.w	sp!, {r4, r5, r6, r7, r8, pc}

200037a0 <fflush>:
200037a0:	4601      	mov	r1, r0
200037a2:	b128      	cbz	r0, 200037b0 <fflush+0x10>
200037a4:	f247 13dc 	movw	r3, #29148	; 0x71dc
200037a8:	f2c2 0300 	movt	r3, #8192	; 0x2000
200037ac:	6818      	ldr	r0, [r3, #0]
200037ae:	e74f      	b.n	20003650 <_fflush_r>
200037b0:	f646 7350 	movw	r3, #28496	; 0x6f50
200037b4:	f243 6151 	movw	r1, #13905	; 0x3651
200037b8:	f2c2 0300 	movt	r3, #8192	; 0x2000
200037bc:	f2c2 0100 	movt	r1, #8192	; 0x2000
200037c0:	6818      	ldr	r0, [r3, #0]
200037c2:	f000 bbb3 	b.w	20003f2c <_fwalk_reent>
200037c6:	bf00      	nop

200037c8 <__sfp_lock_acquire>:
200037c8:	4770      	bx	lr
200037ca:	bf00      	nop

200037cc <__sfp_lock_release>:
200037cc:	4770      	bx	lr
200037ce:	bf00      	nop

200037d0 <__sinit_lock_acquire>:
200037d0:	4770      	bx	lr
200037d2:	bf00      	nop

200037d4 <__sinit_lock_release>:
200037d4:	4770      	bx	lr
200037d6:	bf00      	nop

200037d8 <__fp_lock>:
200037d8:	2000      	movs	r0, #0
200037da:	4770      	bx	lr

200037dc <__fp_unlock>:
200037dc:	2000      	movs	r0, #0
200037de:	4770      	bx	lr

200037e0 <__fp_unlock_all>:
200037e0:	f247 13dc 	movw	r3, #29148	; 0x71dc
200037e4:	f243 71dd 	movw	r1, #14301	; 0x37dd
200037e8:	f2c2 0300 	movt	r3, #8192	; 0x2000
200037ec:	f2c2 0100 	movt	r1, #8192	; 0x2000
200037f0:	6818      	ldr	r0, [r3, #0]
200037f2:	f000 bbc5 	b.w	20003f80 <_fwalk>
200037f6:	bf00      	nop

200037f8 <__fp_lock_all>:
200037f8:	f247 13dc 	movw	r3, #29148	; 0x71dc
200037fc:	f243 71d9 	movw	r1, #14297	; 0x37d9
20003800:	f2c2 0300 	movt	r3, #8192	; 0x2000
20003804:	f2c2 0100 	movt	r1, #8192	; 0x2000
20003808:	6818      	ldr	r0, [r3, #0]
2000380a:	f000 bbb9 	b.w	20003f80 <_fwalk>
2000380e:	bf00      	nop

20003810 <_cleanup_r>:
20003810:	f645 31f9 	movw	r1, #23545	; 0x5bf9
20003814:	f2c2 0100 	movt	r1, #8192	; 0x2000
20003818:	f000 bbb2 	b.w	20003f80 <_fwalk>

2000381c <_cleanup>:
2000381c:	f646 7350 	movw	r3, #28496	; 0x6f50
20003820:	f2c2 0300 	movt	r3, #8192	; 0x2000
20003824:	6818      	ldr	r0, [r3, #0]
20003826:	e7f3      	b.n	20003810 <_cleanup_r>

20003828 <std>:
20003828:	b510      	push	{r4, lr}
2000382a:	4604      	mov	r4, r0
2000382c:	2300      	movs	r3, #0
2000382e:	305c      	adds	r0, #92	; 0x5c
20003830:	81a1      	strh	r1, [r4, #12]
20003832:	4619      	mov	r1, r3
20003834:	81e2      	strh	r2, [r4, #14]
20003836:	2208      	movs	r2, #8
20003838:	6023      	str	r3, [r4, #0]
2000383a:	6063      	str	r3, [r4, #4]
2000383c:	60a3      	str	r3, [r4, #8]
2000383e:	6663      	str	r3, [r4, #100]	; 0x64
20003840:	6123      	str	r3, [r4, #16]
20003842:	6163      	str	r3, [r4, #20]
20003844:	61a3      	str	r3, [r4, #24]
20003846:	f001 f8a9 	bl	2000499c <memset>
2000384a:	f645 0059 	movw	r0, #22617	; 0x5859
2000384e:	f645 011d 	movw	r1, #22557	; 0x581d
20003852:	f245 72f5 	movw	r2, #22517	; 0x57f5
20003856:	f245 73ed 	movw	r3, #22509	; 0x57ed
2000385a:	f2c2 0000 	movt	r0, #8192	; 0x2000
2000385e:	f2c2 0100 	movt	r1, #8192	; 0x2000
20003862:	f2c2 0200 	movt	r2, #8192	; 0x2000
20003866:	f2c2 0300 	movt	r3, #8192	; 0x2000
2000386a:	6260      	str	r0, [r4, #36]	; 0x24
2000386c:	62a1      	str	r1, [r4, #40]	; 0x28
2000386e:	62e2      	str	r2, [r4, #44]	; 0x2c
20003870:	6323      	str	r3, [r4, #48]	; 0x30
20003872:	6224      	str	r4, [r4, #32]
20003874:	bd10      	pop	{r4, pc}
20003876:	bf00      	nop

20003878 <__sfmoreglue>:
20003878:	b570      	push	{r4, r5, r6, lr}
2000387a:	2568      	movs	r5, #104	; 0x68
2000387c:	460e      	mov	r6, r1
2000387e:	fb05 f501 	mul.w	r5, r5, r1
20003882:	f105 010c 	add.w	r1, r5, #12
20003886:	f000 fc59 	bl	2000413c <_malloc_r>
2000388a:	4604      	mov	r4, r0
2000388c:	b148      	cbz	r0, 200038a2 <__sfmoreglue+0x2a>
2000388e:	f100 030c 	add.w	r3, r0, #12
20003892:	2100      	movs	r1, #0
20003894:	6046      	str	r6, [r0, #4]
20003896:	462a      	mov	r2, r5
20003898:	4618      	mov	r0, r3
2000389a:	6021      	str	r1, [r4, #0]
2000389c:	60a3      	str	r3, [r4, #8]
2000389e:	f001 f87d 	bl	2000499c <memset>
200038a2:	4620      	mov	r0, r4
200038a4:	bd70      	pop	{r4, r5, r6, pc}
200038a6:	bf00      	nop

200038a8 <__sfp>:
200038a8:	f646 7350 	movw	r3, #28496	; 0x6f50
200038ac:	f2c2 0300 	movt	r3, #8192	; 0x2000
200038b0:	b570      	push	{r4, r5, r6, lr}
200038b2:	681d      	ldr	r5, [r3, #0]
200038b4:	4606      	mov	r6, r0
200038b6:	69ab      	ldr	r3, [r5, #24]
200038b8:	2b00      	cmp	r3, #0
200038ba:	d02a      	beq.n	20003912 <__sfp+0x6a>
200038bc:	35d8      	adds	r5, #216	; 0xd8
200038be:	686b      	ldr	r3, [r5, #4]
200038c0:	68ac      	ldr	r4, [r5, #8]
200038c2:	3b01      	subs	r3, #1
200038c4:	d503      	bpl.n	200038ce <__sfp+0x26>
200038c6:	e020      	b.n	2000390a <__sfp+0x62>
200038c8:	3468      	adds	r4, #104	; 0x68
200038ca:	3b01      	subs	r3, #1
200038cc:	d41d      	bmi.n	2000390a <__sfp+0x62>
200038ce:	f9b4 200c 	ldrsh.w	r2, [r4, #12]
200038d2:	2a00      	cmp	r2, #0
200038d4:	d1f8      	bne.n	200038c8 <__sfp+0x20>
200038d6:	2500      	movs	r5, #0
200038d8:	f04f 33ff 	mov.w	r3, #4294967295
200038dc:	6665      	str	r5, [r4, #100]	; 0x64
200038de:	f104 005c 	add.w	r0, r4, #92	; 0x5c
200038e2:	81e3      	strh	r3, [r4, #14]
200038e4:	4629      	mov	r1, r5
200038e6:	f04f 0301 	mov.w	r3, #1
200038ea:	6025      	str	r5, [r4, #0]
200038ec:	81a3      	strh	r3, [r4, #12]
200038ee:	2208      	movs	r2, #8
200038f0:	60a5      	str	r5, [r4, #8]
200038f2:	6065      	str	r5, [r4, #4]
200038f4:	6125      	str	r5, [r4, #16]
200038f6:	6165      	str	r5, [r4, #20]
200038f8:	61a5      	str	r5, [r4, #24]
200038fa:	f001 f84f 	bl	2000499c <memset>
200038fe:	64e5      	str	r5, [r4, #76]	; 0x4c
20003900:	6365      	str	r5, [r4, #52]	; 0x34
20003902:	63a5      	str	r5, [r4, #56]	; 0x38
20003904:	64a5      	str	r5, [r4, #72]	; 0x48
20003906:	4620      	mov	r0, r4
20003908:	bd70      	pop	{r4, r5, r6, pc}
2000390a:	6828      	ldr	r0, [r5, #0]
2000390c:	b128      	cbz	r0, 2000391a <__sfp+0x72>
2000390e:	4605      	mov	r5, r0
20003910:	e7d5      	b.n	200038be <__sfp+0x16>
20003912:	4628      	mov	r0, r5
20003914:	f000 f80c 	bl	20003930 <__sinit>
20003918:	e7d0      	b.n	200038bc <__sfp+0x14>
2000391a:	4630      	mov	r0, r6
2000391c:	2104      	movs	r1, #4
2000391e:	f7ff ffab 	bl	20003878 <__sfmoreglue>
20003922:	6028      	str	r0, [r5, #0]
20003924:	2800      	cmp	r0, #0
20003926:	d1f2      	bne.n	2000390e <__sfp+0x66>
20003928:	230c      	movs	r3, #12
2000392a:	4604      	mov	r4, r0
2000392c:	6033      	str	r3, [r6, #0]
2000392e:	e7ea      	b.n	20003906 <__sfp+0x5e>

20003930 <__sinit>:
20003930:	b570      	push	{r4, r5, r6, lr}
20003932:	6986      	ldr	r6, [r0, #24]
20003934:	4604      	mov	r4, r0
20003936:	b106      	cbz	r6, 2000393a <__sinit+0xa>
20003938:	bd70      	pop	{r4, r5, r6, pc}
2000393a:	f643 0311 	movw	r3, #14353	; 0x3811
2000393e:	2501      	movs	r5, #1
20003940:	f2c2 0300 	movt	r3, #8192	; 0x2000
20003944:	f8c0 60d8 	str.w	r6, [r0, #216]	; 0xd8
20003948:	6283      	str	r3, [r0, #40]	; 0x28
2000394a:	f8c0 60dc 	str.w	r6, [r0, #220]	; 0xdc
2000394e:	f8c0 60e0 	str.w	r6, [r0, #224]	; 0xe0
20003952:	6185      	str	r5, [r0, #24]
20003954:	f7ff ffa8 	bl	200038a8 <__sfp>
20003958:	6060      	str	r0, [r4, #4]
2000395a:	4620      	mov	r0, r4
2000395c:	f7ff ffa4 	bl	200038a8 <__sfp>
20003960:	60a0      	str	r0, [r4, #8]
20003962:	4620      	mov	r0, r4
20003964:	f7ff ffa0 	bl	200038a8 <__sfp>
20003968:	4632      	mov	r2, r6
2000396a:	2104      	movs	r1, #4
2000396c:	4623      	mov	r3, r4
2000396e:	60e0      	str	r0, [r4, #12]
20003970:	6860      	ldr	r0, [r4, #4]
20003972:	f7ff ff59 	bl	20003828 <std>
20003976:	462a      	mov	r2, r5
20003978:	68a0      	ldr	r0, [r4, #8]
2000397a:	2109      	movs	r1, #9
2000397c:	4623      	mov	r3, r4
2000397e:	f7ff ff53 	bl	20003828 <std>
20003982:	4623      	mov	r3, r4
20003984:	68e0      	ldr	r0, [r4, #12]
20003986:	2112      	movs	r1, #18
20003988:	2202      	movs	r2, #2
2000398a:	e8bd 4070 	ldmia.w	sp!, {r4, r5, r6, lr}
2000398e:	e74b      	b.n	20003828 <std>

20003990 <_malloc_trim_r>:
20003990:	b5f8      	push	{r3, r4, r5, r6, r7, lr}
20003992:	f247 24d0 	movw	r4, #29392	; 0x72d0
20003996:	f2c2 0400 	movt	r4, #8192	; 0x2000
2000399a:	460f      	mov	r7, r1
2000399c:	4605      	mov	r5, r0
2000399e:	f001 f867 	bl	20004a70 <__malloc_lock>
200039a2:	68a3      	ldr	r3, [r4, #8]
200039a4:	685e      	ldr	r6, [r3, #4]
200039a6:	f026 0603 	bic.w	r6, r6, #3
200039aa:	f506 637e 	add.w	r3, r6, #4064	; 0xfe0
200039ae:	330f      	adds	r3, #15
200039b0:	1bdf      	subs	r7, r3, r7
200039b2:	0b3f      	lsrs	r7, r7, #12
200039b4:	3f01      	subs	r7, #1
200039b6:	033f      	lsls	r7, r7, #12
200039b8:	f5b7 5f80 	cmp.w	r7, #4096	; 0x1000
200039bc:	db07      	blt.n	200039ce <_malloc_trim_r+0x3e>
200039be:	2100      	movs	r1, #0
200039c0:	4628      	mov	r0, r5
200039c2:	f001 feff 	bl	200057c4 <_sbrk_r>
200039c6:	68a3      	ldr	r3, [r4, #8]
200039c8:	18f3      	adds	r3, r6, r3
200039ca:	4283      	cmp	r3, r0
200039cc:	d004      	beq.n	200039d8 <_malloc_trim_r+0x48>
200039ce:	4628      	mov	r0, r5
200039d0:	f001 f850 	bl	20004a74 <__malloc_unlock>
200039d4:	2000      	movs	r0, #0
200039d6:	bdf8      	pop	{r3, r4, r5, r6, r7, pc}
200039d8:	4279      	negs	r1, r7
200039da:	4628      	mov	r0, r5
200039dc:	f001 fef2 	bl	200057c4 <_sbrk_r>
200039e0:	f1b0 3fff 	cmp.w	r0, #4294967295
200039e4:	d010      	beq.n	20003a08 <_malloc_trim_r+0x78>
200039e6:	68a2      	ldr	r2, [r4, #8]
200039e8:	f247 63f0 	movw	r3, #30448	; 0x76f0
200039ec:	f2c2 0300 	movt	r3, #8192	; 0x2000
200039f0:	1bf6      	subs	r6, r6, r7
200039f2:	f046 0601 	orr.w	r6, r6, #1
200039f6:	4628      	mov	r0, r5
200039f8:	6056      	str	r6, [r2, #4]
200039fa:	681a      	ldr	r2, [r3, #0]
200039fc:	1bd7      	subs	r7, r2, r7
200039fe:	601f      	str	r7, [r3, #0]
20003a00:	f001 f838 	bl	20004a74 <__malloc_unlock>
20003a04:	2001      	movs	r0, #1
20003a06:	bdf8      	pop	{r3, r4, r5, r6, r7, pc}
20003a08:	2100      	movs	r1, #0
20003a0a:	4628      	mov	r0, r5
20003a0c:	f001 feda 	bl	200057c4 <_sbrk_r>
20003a10:	68a3      	ldr	r3, [r4, #8]
20003a12:	1ac2      	subs	r2, r0, r3
20003a14:	2a0f      	cmp	r2, #15
20003a16:	ddda      	ble.n	200039ce <_malloc_trim_r+0x3e>
20003a18:	f247 64d8 	movw	r4, #30424	; 0x76d8
20003a1c:	f247 61f0 	movw	r1, #30448	; 0x76f0
20003a20:	f2c2 0400 	movt	r4, #8192	; 0x2000
20003a24:	f2c2 0100 	movt	r1, #8192	; 0x2000
20003a28:	f042 0201 	orr.w	r2, r2, #1
20003a2c:	6824      	ldr	r4, [r4, #0]
20003a2e:	1b00      	subs	r0, r0, r4
20003a30:	6008      	str	r0, [r1, #0]
20003a32:	605a      	str	r2, [r3, #4]
20003a34:	e7cb      	b.n	200039ce <_malloc_trim_r+0x3e>
20003a36:	bf00      	nop

20003a38 <_free_r>:
20003a38:	e92d 41f0 	stmdb	sp!, {r4, r5, r6, r7, r8, lr}
20003a3c:	4605      	mov	r5, r0
20003a3e:	460c      	mov	r4, r1
20003a40:	2900      	cmp	r1, #0
20003a42:	f000 8088 	beq.w	20003b56 <_free_r+0x11e>
20003a46:	f001 f813 	bl	20004a70 <__malloc_lock>
20003a4a:	f1a4 0208 	sub.w	r2, r4, #8
20003a4e:	f247 20d0 	movw	r0, #29392	; 0x72d0
20003a52:	6856      	ldr	r6, [r2, #4]
20003a54:	f2c2 0000 	movt	r0, #8192	; 0x2000
20003a58:	f026 0301 	bic.w	r3, r6, #1
20003a5c:	f8d0 c008 	ldr.w	ip, [r0, #8]
20003a60:	18d1      	adds	r1, r2, r3
20003a62:	458c      	cmp	ip, r1
20003a64:	684f      	ldr	r7, [r1, #4]
20003a66:	f027 0703 	bic.w	r7, r7, #3
20003a6a:	f000 8095 	beq.w	20003b98 <_free_r+0x160>
20003a6e:	f016 0601 	ands.w	r6, r6, #1
20003a72:	604f      	str	r7, [r1, #4]
20003a74:	d05f      	beq.n	20003b36 <_free_r+0xfe>
20003a76:	2600      	movs	r6, #0
20003a78:	19cc      	adds	r4, r1, r7
20003a7a:	6864      	ldr	r4, [r4, #4]
20003a7c:	f014 0f01 	tst.w	r4, #1
20003a80:	d106      	bne.n	20003a90 <_free_r+0x58>
20003a82:	19db      	adds	r3, r3, r7
20003a84:	2e00      	cmp	r6, #0
20003a86:	d07a      	beq.n	20003b7e <_free_r+0x146>
20003a88:	688c      	ldr	r4, [r1, #8]
20003a8a:	68c9      	ldr	r1, [r1, #12]
20003a8c:	608c      	str	r4, [r1, #8]
20003a8e:	60e1      	str	r1, [r4, #12]
20003a90:	f043 0101 	orr.w	r1, r3, #1
20003a94:	50d3      	str	r3, [r2, r3]
20003a96:	6051      	str	r1, [r2, #4]
20003a98:	2e00      	cmp	r6, #0
20003a9a:	d147      	bne.n	20003b2c <_free_r+0xf4>
20003a9c:	f5b3 7f00 	cmp.w	r3, #512	; 0x200
20003aa0:	d35b      	bcc.n	20003b5a <_free_r+0x122>
20003aa2:	0a59      	lsrs	r1, r3, #9
20003aa4:	2904      	cmp	r1, #4
20003aa6:	bf9e      	ittt	ls
20003aa8:	ea4f 1c93 	movls.w	ip, r3, lsr #6
20003aac:	f10c 0c38 	addls.w	ip, ip, #56	; 0x38
20003ab0:	ea4f 04cc 	movls.w	r4, ip, lsl #3
20003ab4:	d928      	bls.n	20003b08 <_free_r+0xd0>
20003ab6:	2914      	cmp	r1, #20
20003ab8:	bf9c      	itt	ls
20003aba:	f101 0c5b 	addls.w	ip, r1, #91	; 0x5b
20003abe:	ea4f 04cc 	movls.w	r4, ip, lsl #3
20003ac2:	d921      	bls.n	20003b08 <_free_r+0xd0>
20003ac4:	2954      	cmp	r1, #84	; 0x54
20003ac6:	bf9e      	ittt	ls
20003ac8:	ea4f 3c13 	movls.w	ip, r3, lsr #12
20003acc:	f10c 0c6e 	addls.w	ip, ip, #110	; 0x6e
20003ad0:	ea4f 04cc 	movls.w	r4, ip, lsl #3
20003ad4:	d918      	bls.n	20003b08 <_free_r+0xd0>
20003ad6:	f5b1 7faa 	cmp.w	r1, #340	; 0x154
20003ada:	bf9e      	ittt	ls
20003adc:	ea4f 3cd3 	movls.w	ip, r3, lsr #15
20003ae0:	f10c 0c77 	addls.w	ip, ip, #119	; 0x77
20003ae4:	ea4f 04cc 	movls.w	r4, ip, lsl #3
20003ae8:	d90e      	bls.n	20003b08 <_free_r+0xd0>
20003aea:	f240 5c54 	movw	ip, #1364	; 0x554
20003aee:	4561      	cmp	r1, ip
20003af0:	bf95      	itete	ls
20003af2:	ea4f 4c93 	movls.w	ip, r3, lsr #18
20003af6:	f44f 747c 	movhi.w	r4, #1008	; 0x3f0
20003afa:	f10c 0c7c 	addls.w	ip, ip, #124	; 0x7c
20003afe:	f04f 0c7e 	movhi.w	ip, #126	; 0x7e
20003b02:	bf98      	it	ls
20003b04:	ea4f 04cc 	movls.w	r4, ip, lsl #3
20003b08:	1904      	adds	r4, r0, r4
20003b0a:	68a1      	ldr	r1, [r4, #8]
20003b0c:	42a1      	cmp	r1, r4
20003b0e:	d103      	bne.n	20003b18 <_free_r+0xe0>
20003b10:	e064      	b.n	20003bdc <_free_r+0x1a4>
20003b12:	6889      	ldr	r1, [r1, #8]
20003b14:	428c      	cmp	r4, r1
20003b16:	d004      	beq.n	20003b22 <_free_r+0xea>
20003b18:	6848      	ldr	r0, [r1, #4]
20003b1a:	f020 0003 	bic.w	r0, r0, #3
20003b1e:	4283      	cmp	r3, r0
20003b20:	d3f7      	bcc.n	20003b12 <_free_r+0xda>
20003b22:	68cb      	ldr	r3, [r1, #12]
20003b24:	60d3      	str	r3, [r2, #12]
20003b26:	6091      	str	r1, [r2, #8]
20003b28:	60ca      	str	r2, [r1, #12]
20003b2a:	609a      	str	r2, [r3, #8]
20003b2c:	4628      	mov	r0, r5
20003b2e:	e8bd 41f0 	ldmia.w	sp!, {r4, r5, r6, r7, r8, lr}
20003b32:	f000 bf9f 	b.w	20004a74 <__malloc_unlock>
20003b36:	f854 4c08 	ldr.w	r4, [r4, #-8]
20003b3a:	f100 0c08 	add.w	ip, r0, #8
20003b3e:	1b12      	subs	r2, r2, r4
20003b40:	191b      	adds	r3, r3, r4
20003b42:	6894      	ldr	r4, [r2, #8]
20003b44:	4564      	cmp	r4, ip
20003b46:	d047      	beq.n	20003bd8 <_free_r+0x1a0>
20003b48:	f8d2 c00c 	ldr.w	ip, [r2, #12]
20003b4c:	f8cc 4008 	str.w	r4, [ip, #8]
20003b50:	f8c4 c00c 	str.w	ip, [r4, #12]
20003b54:	e790      	b.n	20003a78 <_free_r+0x40>
20003b56:	e8bd 81f0 	ldmia.w	sp!, {r4, r5, r6, r7, r8, pc}
20003b5a:	08db      	lsrs	r3, r3, #3
20003b5c:	f04f 0c01 	mov.w	ip, #1
20003b60:	6846      	ldr	r6, [r0, #4]
20003b62:	eb00 01c3 	add.w	r1, r0, r3, lsl #3
20003b66:	109b      	asrs	r3, r3, #2
20003b68:	fa0c f303 	lsl.w	r3, ip, r3
20003b6c:	60d1      	str	r1, [r2, #12]
20003b6e:	688c      	ldr	r4, [r1, #8]
20003b70:	ea46 0303 	orr.w	r3, r6, r3
20003b74:	6043      	str	r3, [r0, #4]
20003b76:	6094      	str	r4, [r2, #8]
20003b78:	60e2      	str	r2, [r4, #12]
20003b7a:	608a      	str	r2, [r1, #8]
20003b7c:	e7d6      	b.n	20003b2c <_free_r+0xf4>
20003b7e:	688c      	ldr	r4, [r1, #8]
20003b80:	4f1c      	ldr	r7, [pc, #112]	; (20003bf4 <_free_r+0x1bc>)
20003b82:	42bc      	cmp	r4, r7
20003b84:	d181      	bne.n	20003a8a <_free_r+0x52>
20003b86:	50d3      	str	r3, [r2, r3]
20003b88:	f043 0301 	orr.w	r3, r3, #1
20003b8c:	60e2      	str	r2, [r4, #12]
20003b8e:	60a2      	str	r2, [r4, #8]
20003b90:	6053      	str	r3, [r2, #4]
20003b92:	6094      	str	r4, [r2, #8]
20003b94:	60d4      	str	r4, [r2, #12]
20003b96:	e7c9      	b.n	20003b2c <_free_r+0xf4>
20003b98:	18fb      	adds	r3, r7, r3
20003b9a:	f016 0f01 	tst.w	r6, #1
20003b9e:	d107      	bne.n	20003bb0 <_free_r+0x178>
20003ba0:	f854 1c08 	ldr.w	r1, [r4, #-8]
20003ba4:	1a52      	subs	r2, r2, r1
20003ba6:	185b      	adds	r3, r3, r1
20003ba8:	68d4      	ldr	r4, [r2, #12]
20003baa:	6891      	ldr	r1, [r2, #8]
20003bac:	60a1      	str	r1, [r4, #8]
20003bae:	60cc      	str	r4, [r1, #12]
20003bb0:	f247 61dc 	movw	r1, #30428	; 0x76dc
20003bb4:	6082      	str	r2, [r0, #8]
20003bb6:	f2c2 0100 	movt	r1, #8192	; 0x2000
20003bba:	f043 0001 	orr.w	r0, r3, #1
20003bbe:	6050      	str	r0, [r2, #4]
20003bc0:	680a      	ldr	r2, [r1, #0]
20003bc2:	4293      	cmp	r3, r2
20003bc4:	d3b2      	bcc.n	20003b2c <_free_r+0xf4>
20003bc6:	f247 63ec 	movw	r3, #30444	; 0x76ec
20003bca:	4628      	mov	r0, r5
20003bcc:	f2c2 0300 	movt	r3, #8192	; 0x2000
20003bd0:	6819      	ldr	r1, [r3, #0]
20003bd2:	f7ff fedd 	bl	20003990 <_malloc_trim_r>
20003bd6:	e7a9      	b.n	20003b2c <_free_r+0xf4>
20003bd8:	2601      	movs	r6, #1
20003bda:	e74d      	b.n	20003a78 <_free_r+0x40>
20003bdc:	2601      	movs	r6, #1
20003bde:	6844      	ldr	r4, [r0, #4]
20003be0:	ea4f 0cac 	mov.w	ip, ip, asr #2
20003be4:	460b      	mov	r3, r1
20003be6:	fa06 fc0c 	lsl.w	ip, r6, ip
20003bea:	ea44 040c 	orr.w	r4, r4, ip
20003bee:	6044      	str	r4, [r0, #4]
20003bf0:	e798      	b.n	20003b24 <_free_r+0xec>
20003bf2:	bf00      	nop
20003bf4:	200072d8 	.word	0x200072d8

20003bf8 <__sfvwrite_r>:
20003bf8:	e92d 4ff0 	stmdb	sp!, {r4, r5, r6, r7, r8, r9, sl, fp, lr}
20003bfc:	6893      	ldr	r3, [r2, #8]
20003bfe:	b085      	sub	sp, #20
20003c00:	4690      	mov	r8, r2
20003c02:	460c      	mov	r4, r1
20003c04:	9003      	str	r0, [sp, #12]
20003c06:	2b00      	cmp	r3, #0
20003c08:	d064      	beq.n	20003cd4 <__sfvwrite_r+0xdc>
20003c0a:	8988      	ldrh	r0, [r1, #12]
20003c0c:	fa1f fa80 	uxth.w	sl, r0
20003c10:	f01a 0f08 	tst.w	sl, #8
20003c14:	f000 80a0 	beq.w	20003d58 <__sfvwrite_r+0x160>
20003c18:	690b      	ldr	r3, [r1, #16]
20003c1a:	2b00      	cmp	r3, #0
20003c1c:	f000 809c 	beq.w	20003d58 <__sfvwrite_r+0x160>
20003c20:	f01a 0b02 	ands.w	fp, sl, #2
20003c24:	f8d8 5000 	ldr.w	r5, [r8]
20003c28:	bf1c      	itt	ne
20003c2a:	f04f 0a00 	movne.w	sl, #0
20003c2e:	4657      	movne	r7, sl
20003c30:	d136      	bne.n	20003ca0 <__sfvwrite_r+0xa8>
20003c32:	f01a 0a01 	ands.w	sl, sl, #1
20003c36:	bf1d      	ittte	ne
20003c38:	46dc      	movne	ip, fp
20003c3a:	46d9      	movne	r9, fp
20003c3c:	465f      	movne	r7, fp
20003c3e:	4656      	moveq	r6, sl
20003c40:	d152      	bne.n	20003ce8 <__sfvwrite_r+0xf0>
20003c42:	b326      	cbz	r6, 20003c8e <__sfvwrite_r+0x96>
20003c44:	b280      	uxth	r0, r0
20003c46:	68a7      	ldr	r7, [r4, #8]
20003c48:	f410 7f00 	tst.w	r0, #512	; 0x200
20003c4c:	f000 808f 	beq.w	20003d6e <__sfvwrite_r+0x176>
20003c50:	42be      	cmp	r6, r7
20003c52:	46bb      	mov	fp, r7
20003c54:	f080 80a7 	bcs.w	20003da6 <__sfvwrite_r+0x1ae>
20003c58:	6820      	ldr	r0, [r4, #0]
20003c5a:	4637      	mov	r7, r6
20003c5c:	46b3      	mov	fp, r6
20003c5e:	465a      	mov	r2, fp
20003c60:	4651      	mov	r1, sl
20003c62:	f000 fe3f 	bl	200048e4 <memmove>
20003c66:	68a2      	ldr	r2, [r4, #8]
20003c68:	6823      	ldr	r3, [r4, #0]
20003c6a:	46b1      	mov	r9, r6
20003c6c:	1bd7      	subs	r7, r2, r7
20003c6e:	60a7      	str	r7, [r4, #8]
20003c70:	4637      	mov	r7, r6
20003c72:	445b      	add	r3, fp
20003c74:	6023      	str	r3, [r4, #0]
20003c76:	f8d8 3008 	ldr.w	r3, [r8, #8]
20003c7a:	ebc9 0606 	rsb	r6, r9, r6
20003c7e:	44ca      	add	sl, r9
20003c80:	1bdf      	subs	r7, r3, r7
20003c82:	f8c8 7008 	str.w	r7, [r8, #8]
20003c86:	b32f      	cbz	r7, 20003cd4 <__sfvwrite_r+0xdc>
20003c88:	89a0      	ldrh	r0, [r4, #12]
20003c8a:	2e00      	cmp	r6, #0
20003c8c:	d1da      	bne.n	20003c44 <__sfvwrite_r+0x4c>
20003c8e:	f8d5 a000 	ldr.w	sl, [r5]
20003c92:	686e      	ldr	r6, [r5, #4]
20003c94:	3508      	adds	r5, #8
20003c96:	e7d4      	b.n	20003c42 <__sfvwrite_r+0x4a>
20003c98:	f8d5 a000 	ldr.w	sl, [r5]
20003c9c:	686f      	ldr	r7, [r5, #4]
20003c9e:	3508      	adds	r5, #8
20003ca0:	f5b7 6f80 	cmp.w	r7, #1024	; 0x400
20003ca4:	bf34      	ite	cc
20003ca6:	463b      	movcc	r3, r7
20003ca8:	f44f 6380 	movcs.w	r3, #1024	; 0x400
20003cac:	4652      	mov	r2, sl
20003cae:	9803      	ldr	r0, [sp, #12]
20003cb0:	2f00      	cmp	r7, #0
20003cb2:	d0f1      	beq.n	20003c98 <__sfvwrite_r+0xa0>
20003cb4:	6aa6      	ldr	r6, [r4, #40]	; 0x28
20003cb6:	6a21      	ldr	r1, [r4, #32]
20003cb8:	47b0      	blx	r6
20003cba:	2800      	cmp	r0, #0
20003cbc:	4482      	add	sl, r0
20003cbe:	ebc0 0707 	rsb	r7, r0, r7
20003cc2:	f340 80ec 	ble.w	20003e9e <__sfvwrite_r+0x2a6>
20003cc6:	f8d8 3008 	ldr.w	r3, [r8, #8]
20003cca:	1a18      	subs	r0, r3, r0
20003ccc:	f8c8 0008 	str.w	r0, [r8, #8]
20003cd0:	2800      	cmp	r0, #0
20003cd2:	d1e5      	bne.n	20003ca0 <__sfvwrite_r+0xa8>
20003cd4:	2000      	movs	r0, #0
20003cd6:	b005      	add	sp, #20
20003cd8:	e8bd 8ff0 	ldmia.w	sp!, {r4, r5, r6, r7, r8, r9, sl, fp, pc}
20003cdc:	f8d5 9000 	ldr.w	r9, [r5]
20003ce0:	f04f 0c00 	mov.w	ip, #0
20003ce4:	686f      	ldr	r7, [r5, #4]
20003ce6:	3508      	adds	r5, #8
20003ce8:	2f00      	cmp	r7, #0
20003cea:	d0f7      	beq.n	20003cdc <__sfvwrite_r+0xe4>
20003cec:	f1bc 0f00 	cmp.w	ip, #0
20003cf0:	f000 80b5 	beq.w	20003e5e <__sfvwrite_r+0x266>
20003cf4:	6963      	ldr	r3, [r4, #20]
20003cf6:	45bb      	cmp	fp, r7
20003cf8:	bf34      	ite	cc
20003cfa:	46da      	movcc	sl, fp
20003cfc:	46ba      	movcs	sl, r7
20003cfe:	68a6      	ldr	r6, [r4, #8]
20003d00:	6820      	ldr	r0, [r4, #0]
20003d02:	6922      	ldr	r2, [r4, #16]
20003d04:	199e      	adds	r6, r3, r6
20003d06:	4290      	cmp	r0, r2
20003d08:	bf94      	ite	ls
20003d0a:	2200      	movls	r2, #0
20003d0c:	2201      	movhi	r2, #1
20003d0e:	45b2      	cmp	sl, r6
20003d10:	bfd4      	ite	le
20003d12:	2200      	movle	r2, #0
20003d14:	f002 0201 	andgt.w	r2, r2, #1
20003d18:	2a00      	cmp	r2, #0
20003d1a:	f040 80ae 	bne.w	20003e7a <__sfvwrite_r+0x282>
20003d1e:	459a      	cmp	sl, r3
20003d20:	f2c0 8082 	blt.w	20003e28 <__sfvwrite_r+0x230>
20003d24:	6aa6      	ldr	r6, [r4, #40]	; 0x28
20003d26:	464a      	mov	r2, r9
20003d28:	f8cd c004 	str.w	ip, [sp, #4]
20003d2c:	9803      	ldr	r0, [sp, #12]
20003d2e:	6a21      	ldr	r1, [r4, #32]
20003d30:	47b0      	blx	r6
20003d32:	f8dd c004 	ldr.w	ip, [sp, #4]
20003d36:	1e06      	subs	r6, r0, #0
20003d38:	f340 80b1 	ble.w	20003e9e <__sfvwrite_r+0x2a6>
20003d3c:	ebbb 0b06 	subs.w	fp, fp, r6
20003d40:	f000 8086 	beq.w	20003e50 <__sfvwrite_r+0x258>
20003d44:	f8d8 3008 	ldr.w	r3, [r8, #8]
20003d48:	44b1      	add	r9, r6
20003d4a:	1bbf      	subs	r7, r7, r6
20003d4c:	1b9e      	subs	r6, r3, r6
20003d4e:	f8c8 6008 	str.w	r6, [r8, #8]
20003d52:	2e00      	cmp	r6, #0
20003d54:	d1c8      	bne.n	20003ce8 <__sfvwrite_r+0xf0>
20003d56:	e7bd      	b.n	20003cd4 <__sfvwrite_r+0xdc>
20003d58:	9803      	ldr	r0, [sp, #12]
20003d5a:	4621      	mov	r1, r4
20003d5c:	f7fe fc1a 	bl	20002594 <__swsetup_r>
20003d60:	2800      	cmp	r0, #0
20003d62:	f040 80d4 	bne.w	20003f0e <__sfvwrite_r+0x316>
20003d66:	89a0      	ldrh	r0, [r4, #12]
20003d68:	fa1f fa80 	uxth.w	sl, r0
20003d6c:	e758      	b.n	20003c20 <__sfvwrite_r+0x28>
20003d6e:	6820      	ldr	r0, [r4, #0]
20003d70:	46b9      	mov	r9, r7
20003d72:	6923      	ldr	r3, [r4, #16]
20003d74:	4298      	cmp	r0, r3
20003d76:	bf94      	ite	ls
20003d78:	2300      	movls	r3, #0
20003d7a:	2301      	movhi	r3, #1
20003d7c:	42b7      	cmp	r7, r6
20003d7e:	bf2c      	ite	cs
20003d80:	2300      	movcs	r3, #0
20003d82:	f003 0301 	andcc.w	r3, r3, #1
20003d86:	2b00      	cmp	r3, #0
20003d88:	f040 809d 	bne.w	20003ec6 <__sfvwrite_r+0x2ce>
20003d8c:	6963      	ldr	r3, [r4, #20]
20003d8e:	429e      	cmp	r6, r3
20003d90:	f0c0 808c 	bcc.w	20003eac <__sfvwrite_r+0x2b4>
20003d94:	6aa7      	ldr	r7, [r4, #40]	; 0x28
20003d96:	4652      	mov	r2, sl
20003d98:	9803      	ldr	r0, [sp, #12]
20003d9a:	6a21      	ldr	r1, [r4, #32]
20003d9c:	47b8      	blx	r7
20003d9e:	1e07      	subs	r7, r0, #0
20003da0:	dd7d      	ble.n	20003e9e <__sfvwrite_r+0x2a6>
20003da2:	46b9      	mov	r9, r7
20003da4:	e767      	b.n	20003c76 <__sfvwrite_r+0x7e>
20003da6:	f410 6f90 	tst.w	r0, #1152	; 0x480
20003daa:	bf08      	it	eq
20003dac:	6820      	ldreq	r0, [r4, #0]
20003dae:	f43f af56 	beq.w	20003c5e <__sfvwrite_r+0x66>
20003db2:	6962      	ldr	r2, [r4, #20]
20003db4:	6921      	ldr	r1, [r4, #16]
20003db6:	6823      	ldr	r3, [r4, #0]
20003db8:	eb02 0942 	add.w	r9, r2, r2, lsl #1
20003dbc:	1a5b      	subs	r3, r3, r1
20003dbe:	eb09 79d9 	add.w	r9, r9, r9, lsr #31
20003dc2:	f103 0c01 	add.w	ip, r3, #1
20003dc6:	44b4      	add	ip, r6
20003dc8:	ea4f 0969 	mov.w	r9, r9, asr #1
20003dcc:	45e1      	cmp	r9, ip
20003dce:	464a      	mov	r2, r9
20003dd0:	bf3c      	itt	cc
20003dd2:	46e1      	movcc	r9, ip
20003dd4:	464a      	movcc	r2, r9
20003dd6:	f410 6f80 	tst.w	r0, #1024	; 0x400
20003dda:	f000 8083 	beq.w	20003ee4 <__sfvwrite_r+0x2ec>
20003dde:	4611      	mov	r1, r2
20003de0:	9803      	ldr	r0, [sp, #12]
20003de2:	9302      	str	r3, [sp, #8]
20003de4:	f000 f9aa 	bl	2000413c <_malloc_r>
20003de8:	9b02      	ldr	r3, [sp, #8]
20003dea:	2800      	cmp	r0, #0
20003dec:	f000 8099 	beq.w	20003f22 <__sfvwrite_r+0x32a>
20003df0:	461a      	mov	r2, r3
20003df2:	6921      	ldr	r1, [r4, #16]
20003df4:	9302      	str	r3, [sp, #8]
20003df6:	9001      	str	r0, [sp, #4]
20003df8:	f000 fcac 	bl	20004754 <memcpy>
20003dfc:	89a2      	ldrh	r2, [r4, #12]
20003dfe:	9b02      	ldr	r3, [sp, #8]
20003e00:	f8dd c004 	ldr.w	ip, [sp, #4]
20003e04:	f422 6290 	bic.w	r2, r2, #1152	; 0x480
20003e08:	f042 0280 	orr.w	r2, r2, #128	; 0x80
20003e0c:	81a2      	strh	r2, [r4, #12]
20003e0e:	ebc3 0209 	rsb	r2, r3, r9
20003e12:	eb0c 0003 	add.w	r0, ip, r3
20003e16:	4637      	mov	r7, r6
20003e18:	46b3      	mov	fp, r6
20003e1a:	60a2      	str	r2, [r4, #8]
20003e1c:	f8c4 c010 	str.w	ip, [r4, #16]
20003e20:	6020      	str	r0, [r4, #0]
20003e22:	f8c4 9014 	str.w	r9, [r4, #20]
20003e26:	e71a      	b.n	20003c5e <__sfvwrite_r+0x66>
20003e28:	4652      	mov	r2, sl
20003e2a:	4649      	mov	r1, r9
20003e2c:	4656      	mov	r6, sl
20003e2e:	f8cd c004 	str.w	ip, [sp, #4]
20003e32:	f000 fd57 	bl	200048e4 <memmove>
20003e36:	68a2      	ldr	r2, [r4, #8]
20003e38:	6823      	ldr	r3, [r4, #0]
20003e3a:	ebbb 0b06 	subs.w	fp, fp, r6
20003e3e:	ebca 0202 	rsb	r2, sl, r2
20003e42:	f8dd c004 	ldr.w	ip, [sp, #4]
20003e46:	4453      	add	r3, sl
20003e48:	60a2      	str	r2, [r4, #8]
20003e4a:	6023      	str	r3, [r4, #0]
20003e4c:	f47f af7a 	bne.w	20003d44 <__sfvwrite_r+0x14c>
20003e50:	9803      	ldr	r0, [sp, #12]
20003e52:	4621      	mov	r1, r4
20003e54:	f7ff fbfc 	bl	20003650 <_fflush_r>
20003e58:	bb08      	cbnz	r0, 20003e9e <__sfvwrite_r+0x2a6>
20003e5a:	46dc      	mov	ip, fp
20003e5c:	e772      	b.n	20003d44 <__sfvwrite_r+0x14c>
20003e5e:	4648      	mov	r0, r9
20003e60:	210a      	movs	r1, #10
20003e62:	463a      	mov	r2, r7
20003e64:	f000 fc3c 	bl	200046e0 <memchr>
20003e68:	2800      	cmp	r0, #0
20003e6a:	d04b      	beq.n	20003f04 <__sfvwrite_r+0x30c>
20003e6c:	f100 0b01 	add.w	fp, r0, #1
20003e70:	f04f 0c01 	mov.w	ip, #1
20003e74:	ebc9 0b0b 	rsb	fp, r9, fp
20003e78:	e73c      	b.n	20003cf4 <__sfvwrite_r+0xfc>
20003e7a:	4649      	mov	r1, r9
20003e7c:	4632      	mov	r2, r6
20003e7e:	f8cd c004 	str.w	ip, [sp, #4]
20003e82:	f000 fd2f 	bl	200048e4 <memmove>
20003e86:	6823      	ldr	r3, [r4, #0]
20003e88:	4621      	mov	r1, r4
20003e8a:	9803      	ldr	r0, [sp, #12]
20003e8c:	199b      	adds	r3, r3, r6
20003e8e:	6023      	str	r3, [r4, #0]
20003e90:	f7ff fbde 	bl	20003650 <_fflush_r>
20003e94:	f8dd c004 	ldr.w	ip, [sp, #4]
20003e98:	2800      	cmp	r0, #0
20003e9a:	f43f af4f 	beq.w	20003d3c <__sfvwrite_r+0x144>
20003e9e:	89a3      	ldrh	r3, [r4, #12]
20003ea0:	f04f 30ff 	mov.w	r0, #4294967295
20003ea4:	f043 0340 	orr.w	r3, r3, #64	; 0x40
20003ea8:	81a3      	strh	r3, [r4, #12]
20003eaa:	e714      	b.n	20003cd6 <__sfvwrite_r+0xde>
20003eac:	4632      	mov	r2, r6
20003eae:	4651      	mov	r1, sl
20003eb0:	f000 fd18 	bl	200048e4 <memmove>
20003eb4:	68a2      	ldr	r2, [r4, #8]
20003eb6:	6823      	ldr	r3, [r4, #0]
20003eb8:	4637      	mov	r7, r6
20003eba:	1b92      	subs	r2, r2, r6
20003ebc:	46b1      	mov	r9, r6
20003ebe:	199b      	adds	r3, r3, r6
20003ec0:	60a2      	str	r2, [r4, #8]
20003ec2:	6023      	str	r3, [r4, #0]
20003ec4:	e6d7      	b.n	20003c76 <__sfvwrite_r+0x7e>
20003ec6:	4651      	mov	r1, sl
20003ec8:	463a      	mov	r2, r7
20003eca:	f000 fd0b 	bl	200048e4 <memmove>
20003ece:	6823      	ldr	r3, [r4, #0]
20003ed0:	9803      	ldr	r0, [sp, #12]
20003ed2:	4621      	mov	r1, r4
20003ed4:	19db      	adds	r3, r3, r7
20003ed6:	6023      	str	r3, [r4, #0]
20003ed8:	f7ff fbba 	bl	20003650 <_fflush_r>
20003edc:	2800      	cmp	r0, #0
20003ede:	f43f aeca 	beq.w	20003c76 <__sfvwrite_r+0x7e>
20003ee2:	e7dc      	b.n	20003e9e <__sfvwrite_r+0x2a6>
20003ee4:	9803      	ldr	r0, [sp, #12]
20003ee6:	9302      	str	r3, [sp, #8]
20003ee8:	f001 fa72 	bl	200053d0 <_realloc_r>
20003eec:	9b02      	ldr	r3, [sp, #8]
20003eee:	4684      	mov	ip, r0
20003ef0:	2800      	cmp	r0, #0
20003ef2:	d18c      	bne.n	20003e0e <__sfvwrite_r+0x216>
20003ef4:	6921      	ldr	r1, [r4, #16]
20003ef6:	9803      	ldr	r0, [sp, #12]
20003ef8:	f7ff fd9e 	bl	20003a38 <_free_r>
20003efc:	9903      	ldr	r1, [sp, #12]
20003efe:	230c      	movs	r3, #12
20003f00:	600b      	str	r3, [r1, #0]
20003f02:	e7cc      	b.n	20003e9e <__sfvwrite_r+0x2a6>
20003f04:	f107 0b01 	add.w	fp, r7, #1
20003f08:	f04f 0c01 	mov.w	ip, #1
20003f0c:	e6f2      	b.n	20003cf4 <__sfvwrite_r+0xfc>
20003f0e:	9903      	ldr	r1, [sp, #12]
20003f10:	2209      	movs	r2, #9
20003f12:	89a3      	ldrh	r3, [r4, #12]
20003f14:	f04f 30ff 	mov.w	r0, #4294967295
20003f18:	f043 0340 	orr.w	r3, r3, #64	; 0x40
20003f1c:	600a      	str	r2, [r1, #0]
20003f1e:	81a3      	strh	r3, [r4, #12]
20003f20:	e6d9      	b.n	20003cd6 <__sfvwrite_r+0xde>
20003f22:	9a03      	ldr	r2, [sp, #12]
20003f24:	230c      	movs	r3, #12
20003f26:	6013      	str	r3, [r2, #0]
20003f28:	e7b9      	b.n	20003e9e <__sfvwrite_r+0x2a6>
20003f2a:	bf00      	nop

20003f2c <_fwalk_reent>:
20003f2c:	e92d 45f8 	stmdb	sp!, {r3, r4, r5, r6, r7, r8, sl, lr}
20003f30:	4607      	mov	r7, r0
20003f32:	468a      	mov	sl, r1
20003f34:	f7ff fc48 	bl	200037c8 <__sfp_lock_acquire>
20003f38:	f117 06d8 	adds.w	r6, r7, #216	; 0xd8
20003f3c:	bf08      	it	eq
20003f3e:	46b0      	moveq	r8, r6
20003f40:	d018      	beq.n	20003f74 <_fwalk_reent+0x48>
20003f42:	f04f 0800 	mov.w	r8, #0
20003f46:	6875      	ldr	r5, [r6, #4]
20003f48:	68b4      	ldr	r4, [r6, #8]
20003f4a:	3d01      	subs	r5, #1
20003f4c:	d40f      	bmi.n	20003f6e <_fwalk_reent+0x42>
20003f4e:	f9b4 300c 	ldrsh.w	r3, [r4, #12]
20003f52:	b14b      	cbz	r3, 20003f68 <_fwalk_reent+0x3c>
20003f54:	f9b4 300e 	ldrsh.w	r3, [r4, #14]
20003f58:	4621      	mov	r1, r4
20003f5a:	4638      	mov	r0, r7
20003f5c:	f1b3 3fff 	cmp.w	r3, #4294967295
20003f60:	d002      	beq.n	20003f68 <_fwalk_reent+0x3c>
20003f62:	47d0      	blx	sl
20003f64:	ea48 0800 	orr.w	r8, r8, r0
20003f68:	3468      	adds	r4, #104	; 0x68
20003f6a:	3d01      	subs	r5, #1
20003f6c:	d5ef      	bpl.n	20003f4e <_fwalk_reent+0x22>
20003f6e:	6836      	ldr	r6, [r6, #0]
20003f70:	2e00      	cmp	r6, #0
20003f72:	d1e8      	bne.n	20003f46 <_fwalk_reent+0x1a>
20003f74:	f7ff fc2a 	bl	200037cc <__sfp_lock_release>
20003f78:	4640      	mov	r0, r8
20003f7a:	e8bd 85f8 	ldmia.w	sp!, {r3, r4, r5, r6, r7, r8, sl, pc}
20003f7e:	bf00      	nop

20003f80 <_fwalk>:
20003f80:	e92d 41f0 	stmdb	sp!, {r4, r5, r6, r7, r8, lr}
20003f84:	4606      	mov	r6, r0
20003f86:	4688      	mov	r8, r1
20003f88:	f7ff fc1e 	bl	200037c8 <__sfp_lock_acquire>
20003f8c:	36d8      	adds	r6, #216	; 0xd8
20003f8e:	bf08      	it	eq
20003f90:	4637      	moveq	r7, r6
20003f92:	d015      	beq.n	20003fc0 <_fwalk+0x40>
20003f94:	2700      	movs	r7, #0
20003f96:	6875      	ldr	r5, [r6, #4]
20003f98:	68b4      	ldr	r4, [r6, #8]
20003f9a:	3d01      	subs	r5, #1
20003f9c:	d40d      	bmi.n	20003fba <_fwalk+0x3a>
20003f9e:	f9b4 300c 	ldrsh.w	r3, [r4, #12]
20003fa2:	b13b      	cbz	r3, 20003fb4 <_fwalk+0x34>
20003fa4:	f9b4 300e 	ldrsh.w	r3, [r4, #14]
20003fa8:	4620      	mov	r0, r4
20003faa:	f1b3 3fff 	cmp.w	r3, #4294967295
20003fae:	d001      	beq.n	20003fb4 <_fwalk+0x34>
20003fb0:	47c0      	blx	r8
20003fb2:	4307      	orrs	r7, r0
20003fb4:	3468      	adds	r4, #104	; 0x68
20003fb6:	3d01      	subs	r5, #1
20003fb8:	d5f1      	bpl.n	20003f9e <_fwalk+0x1e>
20003fba:	6836      	ldr	r6, [r6, #0]
20003fbc:	2e00      	cmp	r6, #0
20003fbe:	d1ea      	bne.n	20003f96 <_fwalk+0x16>
20003fc0:	f7ff fc04 	bl	200037cc <__sfp_lock_release>
20003fc4:	4638      	mov	r0, r7
20003fc6:	e8bd 81f0 	ldmia.w	sp!, {r4, r5, r6, r7, r8, pc}
20003fca:	bf00      	nop

20003fcc <__locale_charset>:
20003fcc:	f247 032c 	movw	r3, #28716	; 0x702c
20003fd0:	f2c2 0300 	movt	r3, #8192	; 0x2000
20003fd4:	6818      	ldr	r0, [r3, #0]
20003fd6:	4770      	bx	lr

20003fd8 <_localeconv_r>:
20003fd8:	4800      	ldr	r0, [pc, #0]	; (20003fdc <_localeconv_r+0x4>)
20003fda:	4770      	bx	lr
20003fdc:	20007030 	.word	0x20007030

20003fe0 <localeconv>:
20003fe0:	4800      	ldr	r0, [pc, #0]	; (20003fe4 <localeconv+0x4>)
20003fe2:	4770      	bx	lr
20003fe4:	20007030 	.word	0x20007030

20003fe8 <_setlocale_r>:
20003fe8:	b570      	push	{r4, r5, r6, lr}
20003fea:	4605      	mov	r5, r0
20003fec:	460e      	mov	r6, r1
20003fee:	4614      	mov	r4, r2
20003ff0:	b172      	cbz	r2, 20004010 <_setlocale_r+0x28>
20003ff2:	f646 7154 	movw	r1, #28500	; 0x6f54
20003ff6:	4610      	mov	r0, r2
20003ff8:	f2c2 0100 	movt	r1, #8192	; 0x2000
20003ffc:	f001 fc3e 	bl	2000587c <strcmp>
20004000:	b958      	cbnz	r0, 2000401a <_setlocale_r+0x32>
20004002:	f646 7054 	movw	r0, #28500	; 0x6f54
20004006:	622c      	str	r4, [r5, #32]
20004008:	f2c2 0000 	movt	r0, #8192	; 0x2000
2000400c:	61ee      	str	r6, [r5, #28]
2000400e:	bd70      	pop	{r4, r5, r6, pc}
20004010:	f646 7054 	movw	r0, #28500	; 0x6f54
20004014:	f2c2 0000 	movt	r0, #8192	; 0x2000
20004018:	bd70      	pop	{r4, r5, r6, pc}
2000401a:	f646 7188 	movw	r1, #28552	; 0x6f88
2000401e:	4620      	mov	r0, r4
20004020:	f2c2 0100 	movt	r1, #8192	; 0x2000
20004024:	f001 fc2a 	bl	2000587c <strcmp>
20004028:	2800      	cmp	r0, #0
2000402a:	d0ea      	beq.n	20004002 <_setlocale_r+0x1a>
2000402c:	2000      	movs	r0, #0
2000402e:	bd70      	pop	{r4, r5, r6, pc}

20004030 <setlocale>:
20004030:	f247 13dc 	movw	r3, #29148	; 0x71dc
20004034:	460a      	mov	r2, r1
20004036:	f2c2 0300 	movt	r3, #8192	; 0x2000
2000403a:	4601      	mov	r1, r0
2000403c:	6818      	ldr	r0, [r3, #0]
2000403e:	e7d3      	b.n	20003fe8 <_setlocale_r>

20004040 <__smakebuf_r>:
20004040:	898b      	ldrh	r3, [r1, #12]
20004042:	b5f0      	push	{r4, r5, r6, r7, lr}
20004044:	460c      	mov	r4, r1
20004046:	b29a      	uxth	r2, r3
20004048:	b091      	sub	sp, #68	; 0x44
2000404a:	f012 0f02 	tst.w	r2, #2
2000404e:	4605      	mov	r5, r0
20004050:	d141      	bne.n	200040d6 <__smakebuf_r+0x96>
20004052:	f9b1 100e 	ldrsh.w	r1, [r1, #14]
20004056:	2900      	cmp	r1, #0
20004058:	db18      	blt.n	2000408c <__smakebuf_r+0x4c>
2000405a:	aa01      	add	r2, sp, #4
2000405c:	f001 fdd4 	bl	20005c08 <_fstat_r>
20004060:	2800      	cmp	r0, #0
20004062:	db11      	blt.n	20004088 <__smakebuf_r+0x48>
20004064:	9b02      	ldr	r3, [sp, #8]
20004066:	f403 4370 	and.w	r3, r3, #61440	; 0xf000
2000406a:	f5b3 5f00 	cmp.w	r3, #8192	; 0x2000
2000406e:	bf14      	ite	ne
20004070:	2700      	movne	r7, #0
20004072:	2701      	moveq	r7, #1
20004074:	f5b3 4f00 	cmp.w	r3, #32768	; 0x8000
20004078:	d040      	beq.n	200040fc <__smakebuf_r+0xbc>
2000407a:	89a3      	ldrh	r3, [r4, #12]
2000407c:	f44f 6680 	mov.w	r6, #1024	; 0x400
20004080:	f443 6300 	orr.w	r3, r3, #2048	; 0x800
20004084:	81a3      	strh	r3, [r4, #12]
20004086:	e00b      	b.n	200040a0 <__smakebuf_r+0x60>
20004088:	89a3      	ldrh	r3, [r4, #12]
2000408a:	b29a      	uxth	r2, r3
2000408c:	f012 0f80 	tst.w	r2, #128	; 0x80
20004090:	f443 6300 	orr.w	r3, r3, #2048	; 0x800
20004094:	bf0c      	ite	eq
20004096:	f44f 6680 	moveq.w	r6, #1024	; 0x400
2000409a:	2640      	movne	r6, #64	; 0x40
2000409c:	2700      	movs	r7, #0
2000409e:	81a3      	strh	r3, [r4, #12]
200040a0:	4628      	mov	r0, r5
200040a2:	4631      	mov	r1, r6
200040a4:	f000 f84a 	bl	2000413c <_malloc_r>
200040a8:	b170      	cbz	r0, 200040c8 <__smakebuf_r+0x88>
200040aa:	89a1      	ldrh	r1, [r4, #12]
200040ac:	f643 0211 	movw	r2, #14353	; 0x3811
200040b0:	f2c2 0200 	movt	r2, #8192	; 0x2000
200040b4:	6120      	str	r0, [r4, #16]
200040b6:	f041 0180 	orr.w	r1, r1, #128	; 0x80
200040ba:	6166      	str	r6, [r4, #20]
200040bc:	62aa      	str	r2, [r5, #40]	; 0x28
200040be:	81a1      	strh	r1, [r4, #12]
200040c0:	6020      	str	r0, [r4, #0]
200040c2:	b97f      	cbnz	r7, 200040e4 <__smakebuf_r+0xa4>
200040c4:	b011      	add	sp, #68	; 0x44
200040c6:	bdf0      	pop	{r4, r5, r6, r7, pc}
200040c8:	89a3      	ldrh	r3, [r4, #12]
200040ca:	f413 7f00 	tst.w	r3, #512	; 0x200
200040ce:	d1f9      	bne.n	200040c4 <__smakebuf_r+0x84>
200040d0:	f043 0302 	orr.w	r3, r3, #2
200040d4:	81a3      	strh	r3, [r4, #12]
200040d6:	f104 0347 	add.w	r3, r4, #71	; 0x47
200040da:	6123      	str	r3, [r4, #16]
200040dc:	6023      	str	r3, [r4, #0]
200040de:	2301      	movs	r3, #1
200040e0:	6163      	str	r3, [r4, #20]
200040e2:	e7ef      	b.n	200040c4 <__smakebuf_r+0x84>
200040e4:	4628      	mov	r0, r5
200040e6:	f9b4 100e 	ldrsh.w	r1, [r4, #14]
200040ea:	f001 fda3 	bl	20005c34 <_isatty_r>
200040ee:	2800      	cmp	r0, #0
200040f0:	d0e8      	beq.n	200040c4 <__smakebuf_r+0x84>
200040f2:	89a3      	ldrh	r3, [r4, #12]
200040f4:	f043 0301 	orr.w	r3, r3, #1
200040f8:	81a3      	strh	r3, [r4, #12]
200040fa:	e7e3      	b.n	200040c4 <__smakebuf_r+0x84>
200040fc:	f245 73f5 	movw	r3, #22517	; 0x57f5
20004100:	6ae2      	ldr	r2, [r4, #44]	; 0x2c
20004102:	f2c2 0300 	movt	r3, #8192	; 0x2000
20004106:	429a      	cmp	r2, r3
20004108:	d1b7      	bne.n	2000407a <__smakebuf_r+0x3a>
2000410a:	89a2      	ldrh	r2, [r4, #12]
2000410c:	f44f 6380 	mov.w	r3, #1024	; 0x400
20004110:	461e      	mov	r6, r3
20004112:	6523      	str	r3, [r4, #80]	; 0x50
20004114:	ea42 0303 	orr.w	r3, r2, r3
20004118:	81a3      	strh	r3, [r4, #12]
2000411a:	e7c1      	b.n	200040a0 <__smakebuf_r+0x60>

2000411c <free>:
2000411c:	f247 13dc 	movw	r3, #29148	; 0x71dc
20004120:	4601      	mov	r1, r0
20004122:	f2c2 0300 	movt	r3, #8192	; 0x2000
20004126:	6818      	ldr	r0, [r3, #0]
20004128:	f7ff bc86 	b.w	20003a38 <_free_r>

2000412c <malloc>:
2000412c:	f247 13dc 	movw	r3, #29148	; 0x71dc
20004130:	4601      	mov	r1, r0
20004132:	f2c2 0300 	movt	r3, #8192	; 0x2000
20004136:	6818      	ldr	r0, [r3, #0]
20004138:	f000 b800 	b.w	2000413c <_malloc_r>

2000413c <_malloc_r>:
2000413c:	e92d 4ff0 	stmdb	sp!, {r4, r5, r6, r7, r8, r9, sl, fp, lr}
20004140:	f101 040b 	add.w	r4, r1, #11
20004144:	2c16      	cmp	r4, #22
20004146:	b083      	sub	sp, #12
20004148:	4606      	mov	r6, r0
2000414a:	d82f      	bhi.n	200041ac <_malloc_r+0x70>
2000414c:	2300      	movs	r3, #0
2000414e:	2410      	movs	r4, #16
20004150:	428c      	cmp	r4, r1
20004152:	bf2c      	ite	cs
20004154:	4619      	movcs	r1, r3
20004156:	f043 0101 	orrcc.w	r1, r3, #1
2000415a:	2900      	cmp	r1, #0
2000415c:	d130      	bne.n	200041c0 <_malloc_r+0x84>
2000415e:	4630      	mov	r0, r6
20004160:	f000 fc86 	bl	20004a70 <__malloc_lock>
20004164:	f5b4 7ffc 	cmp.w	r4, #504	; 0x1f8
20004168:	d22e      	bcs.n	200041c8 <_malloc_r+0x8c>
2000416a:	ea4f 0ed4 	mov.w	lr, r4, lsr #3
2000416e:	f247 25d0 	movw	r5, #29392	; 0x72d0
20004172:	f2c2 0500 	movt	r5, #8192	; 0x2000
20004176:	eb05 02ce 	add.w	r2, r5, lr, lsl #3
2000417a:	68d3      	ldr	r3, [r2, #12]
2000417c:	4293      	cmp	r3, r2
2000417e:	f000 8206 	beq.w	2000458e <_malloc_r+0x452>
20004182:	685a      	ldr	r2, [r3, #4]
20004184:	f103 0508 	add.w	r5, r3, #8
20004188:	68d9      	ldr	r1, [r3, #12]
2000418a:	4630      	mov	r0, r6
2000418c:	f022 0c03 	bic.w	ip, r2, #3
20004190:	689a      	ldr	r2, [r3, #8]
20004192:	4463      	add	r3, ip
20004194:	685c      	ldr	r4, [r3, #4]
20004196:	608a      	str	r2, [r1, #8]
20004198:	f044 0401 	orr.w	r4, r4, #1
2000419c:	60d1      	str	r1, [r2, #12]
2000419e:	605c      	str	r4, [r3, #4]
200041a0:	f000 fc68 	bl	20004a74 <__malloc_unlock>
200041a4:	4628      	mov	r0, r5
200041a6:	b003      	add	sp, #12
200041a8:	e8bd 8ff0 	ldmia.w	sp!, {r4, r5, r6, r7, r8, r9, sl, fp, pc}
200041ac:	f024 0407 	bic.w	r4, r4, #7
200041b0:	0fe3      	lsrs	r3, r4, #31
200041b2:	428c      	cmp	r4, r1
200041b4:	bf2c      	ite	cs
200041b6:	4619      	movcs	r1, r3
200041b8:	f043 0101 	orrcc.w	r1, r3, #1
200041bc:	2900      	cmp	r1, #0
200041be:	d0ce      	beq.n	2000415e <_malloc_r+0x22>
200041c0:	230c      	movs	r3, #12
200041c2:	2500      	movs	r5, #0
200041c4:	6033      	str	r3, [r6, #0]
200041c6:	e7ed      	b.n	200041a4 <_malloc_r+0x68>
200041c8:	ea5f 2e54 	movs.w	lr, r4, lsr #9
200041cc:	bf04      	itt	eq
200041ce:	ea4f 0ed4 	moveq.w	lr, r4, lsr #3
200041d2:	ea4f 00ce 	moveq.w	r0, lr, lsl #3
200041d6:	f040 8090 	bne.w	200042fa <_malloc_r+0x1be>
200041da:	f247 25d0 	movw	r5, #29392	; 0x72d0
200041de:	f2c2 0500 	movt	r5, #8192	; 0x2000
200041e2:	1828      	adds	r0, r5, r0
200041e4:	68c3      	ldr	r3, [r0, #12]
200041e6:	4298      	cmp	r0, r3
200041e8:	d106      	bne.n	200041f8 <_malloc_r+0xbc>
200041ea:	e00d      	b.n	20004208 <_malloc_r+0xcc>
200041ec:	2a00      	cmp	r2, #0
200041ee:	f280 816f 	bge.w	200044d0 <_malloc_r+0x394>
200041f2:	68db      	ldr	r3, [r3, #12]
200041f4:	4298      	cmp	r0, r3
200041f6:	d007      	beq.n	20004208 <_malloc_r+0xcc>
200041f8:	6859      	ldr	r1, [r3, #4]
200041fa:	f021 0103 	bic.w	r1, r1, #3
200041fe:	1b0a      	subs	r2, r1, r4
20004200:	2a0f      	cmp	r2, #15
20004202:	ddf3      	ble.n	200041ec <_malloc_r+0xb0>
20004204:	f10e 3eff 	add.w	lr, lr, #4294967295
20004208:	f10e 0e01 	add.w	lr, lr, #1
2000420c:	f247 27d0 	movw	r7, #29392	; 0x72d0
20004210:	f2c2 0700 	movt	r7, #8192	; 0x2000
20004214:	f107 0108 	add.w	r1, r7, #8
20004218:	688b      	ldr	r3, [r1, #8]
2000421a:	4299      	cmp	r1, r3
2000421c:	bf08      	it	eq
2000421e:	687a      	ldreq	r2, [r7, #4]
20004220:	d026      	beq.n	20004270 <_malloc_r+0x134>
20004222:	685a      	ldr	r2, [r3, #4]
20004224:	f022 0c03 	bic.w	ip, r2, #3
20004228:	ebc4 020c 	rsb	r2, r4, ip
2000422c:	2a0f      	cmp	r2, #15
2000422e:	f300 8194 	bgt.w	2000455a <_malloc_r+0x41e>
20004232:	2a00      	cmp	r2, #0
20004234:	60c9      	str	r1, [r1, #12]
20004236:	6089      	str	r1, [r1, #8]
20004238:	f280 8099 	bge.w	2000436e <_malloc_r+0x232>
2000423c:	f5bc 7f00 	cmp.w	ip, #512	; 0x200
20004240:	f080 8165 	bcs.w	2000450e <_malloc_r+0x3d2>
20004244:	ea4f 0cdc 	mov.w	ip, ip, lsr #3
20004248:	f04f 0a01 	mov.w	sl, #1
2000424c:	687a      	ldr	r2, [r7, #4]
2000424e:	eb07 00cc 	add.w	r0, r7, ip, lsl #3
20004252:	ea4f 0cac 	mov.w	ip, ip, asr #2
20004256:	fa0a fc0c 	lsl.w	ip, sl, ip
2000425a:	60d8      	str	r0, [r3, #12]
2000425c:	f8d0 8008 	ldr.w	r8, [r0, #8]
20004260:	ea4c 0202 	orr.w	r2, ip, r2
20004264:	607a      	str	r2, [r7, #4]
20004266:	f8c3 8008 	str.w	r8, [r3, #8]
2000426a:	f8c8 300c 	str.w	r3, [r8, #12]
2000426e:	6083      	str	r3, [r0, #8]
20004270:	f04f 0c01 	mov.w	ip, #1
20004274:	ea4f 03ae 	mov.w	r3, lr, asr #2
20004278:	fa0c fc03 	lsl.w	ip, ip, r3
2000427c:	4594      	cmp	ip, r2
2000427e:	f200 8082 	bhi.w	20004386 <_malloc_r+0x24a>
20004282:	ea12 0f0c 	tst.w	r2, ip
20004286:	d108      	bne.n	2000429a <_malloc_r+0x15e>
20004288:	f02e 0e03 	bic.w	lr, lr, #3
2000428c:	ea4f 0c4c 	mov.w	ip, ip, lsl #1
20004290:	f10e 0e04 	add.w	lr, lr, #4
20004294:	ea12 0f0c 	tst.w	r2, ip
20004298:	d0f8      	beq.n	2000428c <_malloc_r+0x150>
2000429a:	eb07 09ce 	add.w	r9, r7, lr, lsl #3
2000429e:	46f2      	mov	sl, lr
200042a0:	46c8      	mov	r8, r9
200042a2:	f8d8 300c 	ldr.w	r3, [r8, #12]
200042a6:	4598      	cmp	r8, r3
200042a8:	d107      	bne.n	200042ba <_malloc_r+0x17e>
200042aa:	e168      	b.n	2000457e <_malloc_r+0x442>
200042ac:	2a00      	cmp	r2, #0
200042ae:	f280 8178 	bge.w	200045a2 <_malloc_r+0x466>
200042b2:	68db      	ldr	r3, [r3, #12]
200042b4:	4598      	cmp	r8, r3
200042b6:	f000 8162 	beq.w	2000457e <_malloc_r+0x442>
200042ba:	6858      	ldr	r0, [r3, #4]
200042bc:	f020 0003 	bic.w	r0, r0, #3
200042c0:	1b02      	subs	r2, r0, r4
200042c2:	2a0f      	cmp	r2, #15
200042c4:	ddf2      	ble.n	200042ac <_malloc_r+0x170>
200042c6:	461d      	mov	r5, r3
200042c8:	191f      	adds	r7, r3, r4
200042ca:	f8d3 c00c 	ldr.w	ip, [r3, #12]
200042ce:	f044 0e01 	orr.w	lr, r4, #1
200042d2:	f855 4f08 	ldr.w	r4, [r5, #8]!
200042d6:	4630      	mov	r0, r6
200042d8:	50ba      	str	r2, [r7, r2]
200042da:	f042 0201 	orr.w	r2, r2, #1
200042de:	f8c3 e004 	str.w	lr, [r3, #4]
200042e2:	f8cc 4008 	str.w	r4, [ip, #8]
200042e6:	f8c4 c00c 	str.w	ip, [r4, #12]
200042ea:	608f      	str	r7, [r1, #8]
200042ec:	60cf      	str	r7, [r1, #12]
200042ee:	607a      	str	r2, [r7, #4]
200042f0:	60b9      	str	r1, [r7, #8]
200042f2:	60f9      	str	r1, [r7, #12]
200042f4:	f000 fbbe 	bl	20004a74 <__malloc_unlock>
200042f8:	e754      	b.n	200041a4 <_malloc_r+0x68>
200042fa:	f1be 0f04 	cmp.w	lr, #4
200042fe:	bf9e      	ittt	ls
20004300:	ea4f 1e94 	movls.w	lr, r4, lsr #6
20004304:	f10e 0e38 	addls.w	lr, lr, #56	; 0x38
20004308:	ea4f 00ce 	movls.w	r0, lr, lsl #3
2000430c:	f67f af65 	bls.w	200041da <_malloc_r+0x9e>
20004310:	f1be 0f14 	cmp.w	lr, #20
20004314:	bf9c      	itt	ls
20004316:	f10e 0e5b 	addls.w	lr, lr, #91	; 0x5b
2000431a:	ea4f 00ce 	movls.w	r0, lr, lsl #3
2000431e:	f67f af5c 	bls.w	200041da <_malloc_r+0x9e>
20004322:	f1be 0f54 	cmp.w	lr, #84	; 0x54
20004326:	bf9e      	ittt	ls
20004328:	ea4f 3e14 	movls.w	lr, r4, lsr #12
2000432c:	f10e 0e6e 	addls.w	lr, lr, #110	; 0x6e
20004330:	ea4f 00ce 	movls.w	r0, lr, lsl #3
20004334:	f67f af51 	bls.w	200041da <_malloc_r+0x9e>
20004338:	f5be 7faa 	cmp.w	lr, #340	; 0x154
2000433c:	bf9e      	ittt	ls
2000433e:	ea4f 3ed4 	movls.w	lr, r4, lsr #15
20004342:	f10e 0e77 	addls.w	lr, lr, #119	; 0x77
20004346:	ea4f 00ce 	movls.w	r0, lr, lsl #3
2000434a:	f67f af46 	bls.w	200041da <_malloc_r+0x9e>
2000434e:	f240 5354 	movw	r3, #1364	; 0x554
20004352:	459e      	cmp	lr, r3
20004354:	bf95      	itete	ls
20004356:	ea4f 4e94 	movls.w	lr, r4, lsr #18
2000435a:	f44f 707c 	movhi.w	r0, #1008	; 0x3f0
2000435e:	f10e 0e7c 	addls.w	lr, lr, #124	; 0x7c
20004362:	f04f 0e7e 	movhi.w	lr, #126	; 0x7e
20004366:	bf98      	it	ls
20004368:	ea4f 00ce 	movls.w	r0, lr, lsl #3
2000436c:	e735      	b.n	200041da <_malloc_r+0x9e>
2000436e:	eb03 020c 	add.w	r2, r3, ip
20004372:	f103 0508 	add.w	r5, r3, #8
20004376:	4630      	mov	r0, r6
20004378:	6853      	ldr	r3, [r2, #4]
2000437a:	f043 0301 	orr.w	r3, r3, #1
2000437e:	6053      	str	r3, [r2, #4]
20004380:	f000 fb78 	bl	20004a74 <__malloc_unlock>
20004384:	e70e      	b.n	200041a4 <_malloc_r+0x68>
20004386:	f8d7 8008 	ldr.w	r8, [r7, #8]
2000438a:	f8d8 3004 	ldr.w	r3, [r8, #4]
2000438e:	f023 0903 	bic.w	r9, r3, #3
20004392:	ebc4 0209 	rsb	r2, r4, r9
20004396:	454c      	cmp	r4, r9
20004398:	bf94      	ite	ls
2000439a:	2300      	movls	r3, #0
2000439c:	2301      	movhi	r3, #1
2000439e:	2a0f      	cmp	r2, #15
200043a0:	bfd8      	it	le
200043a2:	f043 0301 	orrle.w	r3, r3, #1
200043a6:	2b00      	cmp	r3, #0
200043a8:	f000 80a1 	beq.w	200044ee <_malloc_r+0x3b2>
200043ac:	f247 6bec 	movw	fp, #30444	; 0x76ec
200043b0:	f8d5 2408 	ldr.w	r2, [r5, #1032]	; 0x408
200043b4:	f2c2 0b00 	movt	fp, #8192	; 0x2000
200043b8:	f8db 3000 	ldr.w	r3, [fp]
200043bc:	3310      	adds	r3, #16
200043be:	191b      	adds	r3, r3, r4
200043c0:	f1b2 3fff 	cmp.w	r2, #4294967295
200043c4:	d006      	beq.n	200043d4 <_malloc_r+0x298>
200043c6:	f503 637e 	add.w	r3, r3, #4064	; 0xfe0
200043ca:	331f      	adds	r3, #31
200043cc:	f423 637e 	bic.w	r3, r3, #4064	; 0xfe0
200043d0:	f023 031f 	bic.w	r3, r3, #31
200043d4:	4619      	mov	r1, r3
200043d6:	4630      	mov	r0, r6
200043d8:	9301      	str	r3, [sp, #4]
200043da:	f001 f9f3 	bl	200057c4 <_sbrk_r>
200043de:	9b01      	ldr	r3, [sp, #4]
200043e0:	f1b0 3fff 	cmp.w	r0, #4294967295
200043e4:	4682      	mov	sl, r0
200043e6:	f000 80f4 	beq.w	200045d2 <_malloc_r+0x496>
200043ea:	eb08 0109 	add.w	r1, r8, r9
200043ee:	4281      	cmp	r1, r0
200043f0:	f200 80ec 	bhi.w	200045cc <_malloc_r+0x490>
200043f4:	f8db 2004 	ldr.w	r2, [fp, #4]
200043f8:	189a      	adds	r2, r3, r2
200043fa:	4551      	cmp	r1, sl
200043fc:	f8cb 2004 	str.w	r2, [fp, #4]
20004400:	f000 8145 	beq.w	2000468e <_malloc_r+0x552>
20004404:	f8d5 5408 	ldr.w	r5, [r5, #1032]	; 0x408
20004408:	f247 20d0 	movw	r0, #29392	; 0x72d0
2000440c:	f2c2 0000 	movt	r0, #8192	; 0x2000
20004410:	f1b5 3fff 	cmp.w	r5, #4294967295
20004414:	bf08      	it	eq
20004416:	f8c0 a408 	streq.w	sl, [r0, #1032]	; 0x408
2000441a:	d003      	beq.n	20004424 <_malloc_r+0x2e8>
2000441c:	4452      	add	r2, sl
2000441e:	1a51      	subs	r1, r2, r1
20004420:	f8cb 1004 	str.w	r1, [fp, #4]
20004424:	f01a 0507 	ands.w	r5, sl, #7
20004428:	4630      	mov	r0, r6
2000442a:	bf17      	itett	ne
2000442c:	f1c5 0508 	rsbne	r5, r5, #8
20004430:	f44f 5580 	moveq.w	r5, #4096	; 0x1000
20004434:	44aa      	addne	sl, r5
20004436:	f505 5580 	addne.w	r5, r5, #4096	; 0x1000
2000443a:	4453      	add	r3, sl
2000443c:	051b      	lsls	r3, r3, #20
2000443e:	0d1b      	lsrs	r3, r3, #20
20004440:	1aed      	subs	r5, r5, r3
20004442:	4629      	mov	r1, r5
20004444:	f001 f9be 	bl	200057c4 <_sbrk_r>
20004448:	f1b0 3fff 	cmp.w	r0, #4294967295
2000444c:	f000 812c 	beq.w	200046a8 <_malloc_r+0x56c>
20004450:	ebca 0100 	rsb	r1, sl, r0
20004454:	1949      	adds	r1, r1, r5
20004456:	f041 0101 	orr.w	r1, r1, #1
2000445a:	f8db 2004 	ldr.w	r2, [fp, #4]
2000445e:	f247 63ec 	movw	r3, #30444	; 0x76ec
20004462:	f8c7 a008 	str.w	sl, [r7, #8]
20004466:	f2c2 0300 	movt	r3, #8192	; 0x2000
2000446a:	18aa      	adds	r2, r5, r2
2000446c:	45b8      	cmp	r8, r7
2000446e:	f8cb 2004 	str.w	r2, [fp, #4]
20004472:	f8ca 1004 	str.w	r1, [sl, #4]
20004476:	d017      	beq.n	200044a8 <_malloc_r+0x36c>
20004478:	f1b9 0f0f 	cmp.w	r9, #15
2000447c:	f240 80df 	bls.w	2000463e <_malloc_r+0x502>
20004480:	f1a9 010c 	sub.w	r1, r9, #12
20004484:	2505      	movs	r5, #5
20004486:	f021 0107 	bic.w	r1, r1, #7
2000448a:	eb08 0001 	add.w	r0, r8, r1
2000448e:	290f      	cmp	r1, #15
20004490:	6085      	str	r5, [r0, #8]
20004492:	6045      	str	r5, [r0, #4]
20004494:	f8d8 0004 	ldr.w	r0, [r8, #4]
20004498:	f000 0001 	and.w	r0, r0, #1
2000449c:	ea41 0000 	orr.w	r0, r1, r0
200044a0:	f8c8 0004 	str.w	r0, [r8, #4]
200044a4:	f200 80ac 	bhi.w	20004600 <_malloc_r+0x4c4>
200044a8:	46d0      	mov	r8, sl
200044aa:	f247 63ec 	movw	r3, #30444	; 0x76ec
200044ae:	f8db 102c 	ldr.w	r1, [fp, #44]	; 0x2c
200044b2:	f2c2 0300 	movt	r3, #8192	; 0x2000
200044b6:	428a      	cmp	r2, r1
200044b8:	f8db 1030 	ldr.w	r1, [fp, #48]	; 0x30
200044bc:	bf88      	it	hi
200044be:	62da      	strhi	r2, [r3, #44]	; 0x2c
200044c0:	f247 63ec 	movw	r3, #30444	; 0x76ec
200044c4:	f2c2 0300 	movt	r3, #8192	; 0x2000
200044c8:	428a      	cmp	r2, r1
200044ca:	bf88      	it	hi
200044cc:	631a      	strhi	r2, [r3, #48]	; 0x30
200044ce:	e082      	b.n	200045d6 <_malloc_r+0x49a>
200044d0:	185c      	adds	r4, r3, r1
200044d2:	689a      	ldr	r2, [r3, #8]
200044d4:	68d9      	ldr	r1, [r3, #12]
200044d6:	4630      	mov	r0, r6
200044d8:	6866      	ldr	r6, [r4, #4]
200044da:	f103 0508 	add.w	r5, r3, #8
200044de:	608a      	str	r2, [r1, #8]
200044e0:	f046 0301 	orr.w	r3, r6, #1
200044e4:	60d1      	str	r1, [r2, #12]
200044e6:	6063      	str	r3, [r4, #4]
200044e8:	f000 fac4 	bl	20004a74 <__malloc_unlock>
200044ec:	e65a      	b.n	200041a4 <_malloc_r+0x68>
200044ee:	eb08 0304 	add.w	r3, r8, r4
200044f2:	f042 0201 	orr.w	r2, r2, #1
200044f6:	f044 0401 	orr.w	r4, r4, #1
200044fa:	4630      	mov	r0, r6
200044fc:	f8c8 4004 	str.w	r4, [r8, #4]
20004500:	f108 0508 	add.w	r5, r8, #8
20004504:	605a      	str	r2, [r3, #4]
20004506:	60bb      	str	r3, [r7, #8]
20004508:	f000 fab4 	bl	20004a74 <__malloc_unlock>
2000450c:	e64a      	b.n	200041a4 <_malloc_r+0x68>
2000450e:	ea4f 225c 	mov.w	r2, ip, lsr #9
20004512:	2a04      	cmp	r2, #4
20004514:	d954      	bls.n	200045c0 <_malloc_r+0x484>
20004516:	2a14      	cmp	r2, #20
20004518:	f200 8089 	bhi.w	2000462e <_malloc_r+0x4f2>
2000451c:	325b      	adds	r2, #91	; 0x5b
2000451e:	ea4f 08c2 	mov.w	r8, r2, lsl #3
20004522:	44a8      	add	r8, r5
20004524:	f247 27d0 	movw	r7, #29392	; 0x72d0
20004528:	f2c2 0700 	movt	r7, #8192	; 0x2000
2000452c:	f8d8 0008 	ldr.w	r0, [r8, #8]
20004530:	4540      	cmp	r0, r8
20004532:	d103      	bne.n	2000453c <_malloc_r+0x400>
20004534:	e06f      	b.n	20004616 <_malloc_r+0x4da>
20004536:	6880      	ldr	r0, [r0, #8]
20004538:	4580      	cmp	r8, r0
2000453a:	d004      	beq.n	20004546 <_malloc_r+0x40a>
2000453c:	6842      	ldr	r2, [r0, #4]
2000453e:	f022 0203 	bic.w	r2, r2, #3
20004542:	4594      	cmp	ip, r2
20004544:	d3f7      	bcc.n	20004536 <_malloc_r+0x3fa>
20004546:	f8d0 c00c 	ldr.w	ip, [r0, #12]
2000454a:	f8c3 c00c 	str.w	ip, [r3, #12]
2000454e:	6098      	str	r0, [r3, #8]
20004550:	687a      	ldr	r2, [r7, #4]
20004552:	60c3      	str	r3, [r0, #12]
20004554:	f8cc 3008 	str.w	r3, [ip, #8]
20004558:	e68a      	b.n	20004270 <_malloc_r+0x134>
2000455a:	191f      	adds	r7, r3, r4
2000455c:	4630      	mov	r0, r6
2000455e:	f044 0401 	orr.w	r4, r4, #1
20004562:	60cf      	str	r7, [r1, #12]
20004564:	605c      	str	r4, [r3, #4]
20004566:	f103 0508 	add.w	r5, r3, #8
2000456a:	50ba      	str	r2, [r7, r2]
2000456c:	f042 0201 	orr.w	r2, r2, #1
20004570:	608f      	str	r7, [r1, #8]
20004572:	607a      	str	r2, [r7, #4]
20004574:	60b9      	str	r1, [r7, #8]
20004576:	60f9      	str	r1, [r7, #12]
20004578:	f000 fa7c 	bl	20004a74 <__malloc_unlock>
2000457c:	e612      	b.n	200041a4 <_malloc_r+0x68>
2000457e:	f10a 0a01 	add.w	sl, sl, #1
20004582:	f01a 0f03 	tst.w	sl, #3
20004586:	d05f      	beq.n	20004648 <_malloc_r+0x50c>
20004588:	f103 0808 	add.w	r8, r3, #8
2000458c:	e689      	b.n	200042a2 <_malloc_r+0x166>
2000458e:	f103 0208 	add.w	r2, r3, #8
20004592:	68d3      	ldr	r3, [r2, #12]
20004594:	429a      	cmp	r2, r3
20004596:	bf08      	it	eq
20004598:	f10e 0e02 	addeq.w	lr, lr, #2
2000459c:	f43f ae36 	beq.w	2000420c <_malloc_r+0xd0>
200045a0:	e5ef      	b.n	20004182 <_malloc_r+0x46>
200045a2:	461d      	mov	r5, r3
200045a4:	1819      	adds	r1, r3, r0
200045a6:	68da      	ldr	r2, [r3, #12]
200045a8:	4630      	mov	r0, r6
200045aa:	f855 3f08 	ldr.w	r3, [r5, #8]!
200045ae:	684c      	ldr	r4, [r1, #4]
200045b0:	6093      	str	r3, [r2, #8]
200045b2:	f044 0401 	orr.w	r4, r4, #1
200045b6:	60da      	str	r2, [r3, #12]
200045b8:	604c      	str	r4, [r1, #4]
200045ba:	f000 fa5b 	bl	20004a74 <__malloc_unlock>
200045be:	e5f1      	b.n	200041a4 <_malloc_r+0x68>
200045c0:	ea4f 129c 	mov.w	r2, ip, lsr #6
200045c4:	3238      	adds	r2, #56	; 0x38
200045c6:	ea4f 08c2 	mov.w	r8, r2, lsl #3
200045ca:	e7aa      	b.n	20004522 <_malloc_r+0x3e6>
200045cc:	45b8      	cmp	r8, r7
200045ce:	f43f af11 	beq.w	200043f4 <_malloc_r+0x2b8>
200045d2:	f8d7 8008 	ldr.w	r8, [r7, #8]
200045d6:	f8d8 2004 	ldr.w	r2, [r8, #4]
200045da:	f022 0203 	bic.w	r2, r2, #3
200045de:	4294      	cmp	r4, r2
200045e0:	bf94      	ite	ls
200045e2:	2300      	movls	r3, #0
200045e4:	2301      	movhi	r3, #1
200045e6:	1b12      	subs	r2, r2, r4
200045e8:	2a0f      	cmp	r2, #15
200045ea:	bfd8      	it	le
200045ec:	f043 0301 	orrle.w	r3, r3, #1
200045f0:	2b00      	cmp	r3, #0
200045f2:	f43f af7c 	beq.w	200044ee <_malloc_r+0x3b2>
200045f6:	4630      	mov	r0, r6
200045f8:	2500      	movs	r5, #0
200045fa:	f000 fa3b 	bl	20004a74 <__malloc_unlock>
200045fe:	e5d1      	b.n	200041a4 <_malloc_r+0x68>
20004600:	f108 0108 	add.w	r1, r8, #8
20004604:	4630      	mov	r0, r6
20004606:	9301      	str	r3, [sp, #4]
20004608:	f7ff fa16 	bl	20003a38 <_free_r>
2000460c:	9b01      	ldr	r3, [sp, #4]
2000460e:	f8d7 8008 	ldr.w	r8, [r7, #8]
20004612:	685a      	ldr	r2, [r3, #4]
20004614:	e749      	b.n	200044aa <_malloc_r+0x36e>
20004616:	f04f 0a01 	mov.w	sl, #1
2000461a:	f8d7 8004 	ldr.w	r8, [r7, #4]
2000461e:	1092      	asrs	r2, r2, #2
20004620:	4684      	mov	ip, r0
20004622:	fa0a f202 	lsl.w	r2, sl, r2
20004626:	ea48 0202 	orr.w	r2, r8, r2
2000462a:	607a      	str	r2, [r7, #4]
2000462c:	e78d      	b.n	2000454a <_malloc_r+0x40e>
2000462e:	2a54      	cmp	r2, #84	; 0x54
20004630:	d824      	bhi.n	2000467c <_malloc_r+0x540>
20004632:	ea4f 321c 	mov.w	r2, ip, lsr #12
20004636:	326e      	adds	r2, #110	; 0x6e
20004638:	ea4f 08c2 	mov.w	r8, r2, lsl #3
2000463c:	e771      	b.n	20004522 <_malloc_r+0x3e6>
2000463e:	2301      	movs	r3, #1
20004640:	46d0      	mov	r8, sl
20004642:	f8ca 3004 	str.w	r3, [sl, #4]
20004646:	e7c6      	b.n	200045d6 <_malloc_r+0x49a>
20004648:	464a      	mov	r2, r9
2000464a:	f01e 0f03 	tst.w	lr, #3
2000464e:	4613      	mov	r3, r2
20004650:	f10e 3eff 	add.w	lr, lr, #4294967295
20004654:	d033      	beq.n	200046be <_malloc_r+0x582>
20004656:	f853 2908 	ldr.w	r2, [r3], #-8
2000465a:	429a      	cmp	r2, r3
2000465c:	d0f5      	beq.n	2000464a <_malloc_r+0x50e>
2000465e:	687b      	ldr	r3, [r7, #4]
20004660:	ea4f 0c4c 	mov.w	ip, ip, lsl #1
20004664:	459c      	cmp	ip, r3
20004666:	f63f ae8e 	bhi.w	20004386 <_malloc_r+0x24a>
2000466a:	f1bc 0f00 	cmp.w	ip, #0
2000466e:	f43f ae8a 	beq.w	20004386 <_malloc_r+0x24a>
20004672:	ea1c 0f03 	tst.w	ip, r3
20004676:	d027      	beq.n	200046c8 <_malloc_r+0x58c>
20004678:	46d6      	mov	lr, sl
2000467a:	e60e      	b.n	2000429a <_malloc_r+0x15e>
2000467c:	f5b2 7faa 	cmp.w	r2, #340	; 0x154
20004680:	d815      	bhi.n	200046ae <_malloc_r+0x572>
20004682:	ea4f 32dc 	mov.w	r2, ip, lsr #15
20004686:	3277      	adds	r2, #119	; 0x77
20004688:	ea4f 08c2 	mov.w	r8, r2, lsl #3
2000468c:	e749      	b.n	20004522 <_malloc_r+0x3e6>
2000468e:	0508      	lsls	r0, r1, #20
20004690:	0d00      	lsrs	r0, r0, #20
20004692:	2800      	cmp	r0, #0
20004694:	f47f aeb6 	bne.w	20004404 <_malloc_r+0x2c8>
20004698:	f8d7 8008 	ldr.w	r8, [r7, #8]
2000469c:	444b      	add	r3, r9
2000469e:	f043 0301 	orr.w	r3, r3, #1
200046a2:	f8c8 3004 	str.w	r3, [r8, #4]
200046a6:	e700      	b.n	200044aa <_malloc_r+0x36e>
200046a8:	2101      	movs	r1, #1
200046aa:	2500      	movs	r5, #0
200046ac:	e6d5      	b.n	2000445a <_malloc_r+0x31e>
200046ae:	f240 5054 	movw	r0, #1364	; 0x554
200046b2:	4282      	cmp	r2, r0
200046b4:	d90d      	bls.n	200046d2 <_malloc_r+0x596>
200046b6:	f44f 787c 	mov.w	r8, #1008	; 0x3f0
200046ba:	227e      	movs	r2, #126	; 0x7e
200046bc:	e731      	b.n	20004522 <_malloc_r+0x3e6>
200046be:	687b      	ldr	r3, [r7, #4]
200046c0:	ea23 030c 	bic.w	r3, r3, ip
200046c4:	607b      	str	r3, [r7, #4]
200046c6:	e7cb      	b.n	20004660 <_malloc_r+0x524>
200046c8:	ea4f 0c4c 	mov.w	ip, ip, lsl #1
200046cc:	f10a 0a04 	add.w	sl, sl, #4
200046d0:	e7cf      	b.n	20004672 <_malloc_r+0x536>
200046d2:	ea4f 429c 	mov.w	r2, ip, lsr #18
200046d6:	327c      	adds	r2, #124	; 0x7c
200046d8:	ea4f 08c2 	mov.w	r8, r2, lsl #3
200046dc:	e721      	b.n	20004522 <_malloc_r+0x3e6>
200046de:	bf00      	nop

200046e0 <memchr>:
200046e0:	f010 0f03 	tst.w	r0, #3
200046e4:	b2c9      	uxtb	r1, r1
200046e6:	b410      	push	{r4}
200046e8:	d010      	beq.n	2000470c <memchr+0x2c>
200046ea:	2a00      	cmp	r2, #0
200046ec:	d02f      	beq.n	2000474e <memchr+0x6e>
200046ee:	7803      	ldrb	r3, [r0, #0]
200046f0:	428b      	cmp	r3, r1
200046f2:	d02a      	beq.n	2000474a <memchr+0x6a>
200046f4:	3a01      	subs	r2, #1
200046f6:	e005      	b.n	20004704 <memchr+0x24>
200046f8:	2a00      	cmp	r2, #0
200046fa:	d028      	beq.n	2000474e <memchr+0x6e>
200046fc:	7803      	ldrb	r3, [r0, #0]
200046fe:	3a01      	subs	r2, #1
20004700:	428b      	cmp	r3, r1
20004702:	d022      	beq.n	2000474a <memchr+0x6a>
20004704:	3001      	adds	r0, #1
20004706:	f010 0f03 	tst.w	r0, #3
2000470a:	d1f5      	bne.n	200046f8 <memchr+0x18>
2000470c:	2a03      	cmp	r2, #3
2000470e:	d911      	bls.n	20004734 <memchr+0x54>
20004710:	ea41 2401 	orr.w	r4, r1, r1, lsl #8
20004714:	ea44 4404 	orr.w	r4, r4, r4, lsl #16
20004718:	6803      	ldr	r3, [r0, #0]
2000471a:	ea84 0303 	eor.w	r3, r4, r3
2000471e:	f1a3 3c01 	sub.w	ip, r3, #16843009	; 0x1010101
20004722:	ea2c 0303 	bic.w	r3, ip, r3
20004726:	f013 3f80 	tst.w	r3, #2155905152	; 0x80808080
2000472a:	d103      	bne.n	20004734 <memchr+0x54>
2000472c:	3a04      	subs	r2, #4
2000472e:	3004      	adds	r0, #4
20004730:	2a03      	cmp	r2, #3
20004732:	d8f1      	bhi.n	20004718 <memchr+0x38>
20004734:	b15a      	cbz	r2, 2000474e <memchr+0x6e>
20004736:	7803      	ldrb	r3, [r0, #0]
20004738:	428b      	cmp	r3, r1
2000473a:	d006      	beq.n	2000474a <memchr+0x6a>
2000473c:	3a01      	subs	r2, #1
2000473e:	b132      	cbz	r2, 2000474e <memchr+0x6e>
20004740:	f810 3f01 	ldrb.w	r3, [r0, #1]!
20004744:	3a01      	subs	r2, #1
20004746:	428b      	cmp	r3, r1
20004748:	d1f9      	bne.n	2000473e <memchr+0x5e>
2000474a:	bc10      	pop	{r4}
2000474c:	4770      	bx	lr
2000474e:	2000      	movs	r0, #0
20004750:	e7fb      	b.n	2000474a <memchr+0x6a>
20004752:	bf00      	nop

20004754 <memcpy>:
20004754:	2a03      	cmp	r2, #3
20004756:	e92d 07f0 	stmdb	sp!, {r4, r5, r6, r7, r8, r9, sl}
2000475a:	d80b      	bhi.n	20004774 <memcpy+0x20>
2000475c:	b13a      	cbz	r2, 2000476e <memcpy+0x1a>
2000475e:	2300      	movs	r3, #0
20004760:	f811 c003 	ldrb.w	ip, [r1, r3]
20004764:	f800 c003 	strb.w	ip, [r0, r3]
20004768:	3301      	adds	r3, #1
2000476a:	4293      	cmp	r3, r2
2000476c:	d1f8      	bne.n	20004760 <memcpy+0xc>
2000476e:	e8bd 07f0 	ldmia.w	sp!, {r4, r5, r6, r7, r8, r9, sl}
20004772:	4770      	bx	lr
20004774:	1882      	adds	r2, r0, r2
20004776:	460c      	mov	r4, r1
20004778:	4603      	mov	r3, r0
2000477a:	e003      	b.n	20004784 <memcpy+0x30>
2000477c:	f814 1c01 	ldrb.w	r1, [r4, #-1]
20004780:	f803 1c01 	strb.w	r1, [r3, #-1]
20004784:	f003 0603 	and.w	r6, r3, #3
20004788:	4619      	mov	r1, r3
2000478a:	46a4      	mov	ip, r4
2000478c:	3301      	adds	r3, #1
2000478e:	3401      	adds	r4, #1
20004790:	2e00      	cmp	r6, #0
20004792:	d1f3      	bne.n	2000477c <memcpy+0x28>
20004794:	f01c 0403 	ands.w	r4, ip, #3
20004798:	4663      	mov	r3, ip
2000479a:	bf08      	it	eq
2000479c:	ebc1 0c02 	rsbeq	ip, r1, r2
200047a0:	d068      	beq.n	20004874 <memcpy+0x120>
200047a2:	4265      	negs	r5, r4
200047a4:	f1c4 0a04 	rsb	sl, r4, #4
200047a8:	eb0c 0705 	add.w	r7, ip, r5
200047ac:	4633      	mov	r3, r6
200047ae:	ea4f 0aca 	mov.w	sl, sl, lsl #3
200047b2:	f85c 6005 	ldr.w	r6, [ip, r5]
200047b6:	ea4f 08c4 	mov.w	r8, r4, lsl #3
200047ba:	1a55      	subs	r5, r2, r1
200047bc:	e008      	b.n	200047d0 <memcpy+0x7c>
200047be:	f857 4f04 	ldr.w	r4, [r7, #4]!
200047c2:	4626      	mov	r6, r4
200047c4:	fa04 f40a 	lsl.w	r4, r4, sl
200047c8:	ea49 0404 	orr.w	r4, r9, r4
200047cc:	50cc      	str	r4, [r1, r3]
200047ce:	3304      	adds	r3, #4
200047d0:	185c      	adds	r4, r3, r1
200047d2:	2d03      	cmp	r5, #3
200047d4:	fa26 f908 	lsr.w	r9, r6, r8
200047d8:	f1a5 0504 	sub.w	r5, r5, #4
200047dc:	eb0c 0603 	add.w	r6, ip, r3
200047e0:	dced      	bgt.n	200047be <memcpy+0x6a>
200047e2:	2300      	movs	r3, #0
200047e4:	e002      	b.n	200047ec <memcpy+0x98>
200047e6:	5cf1      	ldrb	r1, [r6, r3]
200047e8:	54e1      	strb	r1, [r4, r3]
200047ea:	3301      	adds	r3, #1
200047ec:	1919      	adds	r1, r3, r4
200047ee:	4291      	cmp	r1, r2
200047f0:	d3f9      	bcc.n	200047e6 <memcpy+0x92>
200047f2:	e7bc      	b.n	2000476e <memcpy+0x1a>
200047f4:	f853 4c40 	ldr.w	r4, [r3, #-64]
200047f8:	f841 4c40 	str.w	r4, [r1, #-64]
200047fc:	f853 4c3c 	ldr.w	r4, [r3, #-60]
20004800:	f841 4c3c 	str.w	r4, [r1, #-60]
20004804:	f853 4c38 	ldr.w	r4, [r3, #-56]
20004808:	f841 4c38 	str.w	r4, [r1, #-56]
2000480c:	f853 4c34 	ldr.w	r4, [r3, #-52]
20004810:	f841 4c34 	str.w	r4, [r1, #-52]
20004814:	f853 4c30 	ldr.w	r4, [r3, #-48]
20004818:	f841 4c30 	str.w	r4, [r1, #-48]
2000481c:	f853 4c2c 	ldr.w	r4, [r3, #-44]
20004820:	f841 4c2c 	str.w	r4, [r1, #-44]
20004824:	f853 4c28 	ldr.w	r4, [r3, #-40]
20004828:	f841 4c28 	str.w	r4, [r1, #-40]
2000482c:	f853 4c24 	ldr.w	r4, [r3, #-36]
20004830:	f841 4c24 	str.w	r4, [r1, #-36]
20004834:	f853 4c20 	ldr.w	r4, [r3, #-32]
20004838:	f841 4c20 	str.w	r4, [r1, #-32]
2000483c:	f853 4c1c 	ldr.w	r4, [r3, #-28]
20004840:	f841 4c1c 	str.w	r4, [r1, #-28]
20004844:	f853 4c18 	ldr.w	r4, [r3, #-24]
20004848:	f841 4c18 	str.w	r4, [r1, #-24]
2000484c:	f853 4c14 	ldr.w	r4, [r3, #-20]
20004850:	f841 4c14 	str.w	r4, [r1, #-20]
20004854:	f853 4c10 	ldr.w	r4, [r3, #-16]
20004858:	f841 4c10 	str.w	r4, [r1, #-16]
2000485c:	f853 4c0c 	ldr.w	r4, [r3, #-12]
20004860:	f841 4c0c 	str.w	r4, [r1, #-12]
20004864:	f853 4c08 	ldr.w	r4, [r3, #-8]
20004868:	f841 4c08 	str.w	r4, [r1, #-8]
2000486c:	f853 4c04 	ldr.w	r4, [r3, #-4]
20004870:	f841 4c04 	str.w	r4, [r1, #-4]
20004874:	461c      	mov	r4, r3
20004876:	460d      	mov	r5, r1
20004878:	3340      	adds	r3, #64	; 0x40
2000487a:	3140      	adds	r1, #64	; 0x40
2000487c:	f1bc 0f3f 	cmp.w	ip, #63	; 0x3f
20004880:	f1ac 0c40 	sub.w	ip, ip, #64	; 0x40
20004884:	dcb6      	bgt.n	200047f4 <memcpy+0xa0>
20004886:	4621      	mov	r1, r4
20004888:	462b      	mov	r3, r5
2000488a:	1b54      	subs	r4, r2, r5
2000488c:	e00f      	b.n	200048ae <memcpy+0x15a>
2000488e:	f851 5c10 	ldr.w	r5, [r1, #-16]
20004892:	f843 5c10 	str.w	r5, [r3, #-16]
20004896:	f851 5c0c 	ldr.w	r5, [r1, #-12]
2000489a:	f843 5c0c 	str.w	r5, [r3, #-12]
2000489e:	f851 5c08 	ldr.w	r5, [r1, #-8]
200048a2:	f843 5c08 	str.w	r5, [r3, #-8]
200048a6:	f851 5c04 	ldr.w	r5, [r1, #-4]
200048aa:	f843 5c04 	str.w	r5, [r3, #-4]
200048ae:	2c0f      	cmp	r4, #15
200048b0:	460d      	mov	r5, r1
200048b2:	469c      	mov	ip, r3
200048b4:	f101 0110 	add.w	r1, r1, #16
200048b8:	f103 0310 	add.w	r3, r3, #16
200048bc:	f1a4 0410 	sub.w	r4, r4, #16
200048c0:	dce5      	bgt.n	2000488e <memcpy+0x13a>
200048c2:	ebcc 0102 	rsb	r1, ip, r2
200048c6:	2300      	movs	r3, #0
200048c8:	e003      	b.n	200048d2 <memcpy+0x17e>
200048ca:	58ec      	ldr	r4, [r5, r3]
200048cc:	f84c 4003 	str.w	r4, [ip, r3]
200048d0:	3304      	adds	r3, #4
200048d2:	195e      	adds	r6, r3, r5
200048d4:	2903      	cmp	r1, #3
200048d6:	eb03 040c 	add.w	r4, r3, ip
200048da:	f1a1 0104 	sub.w	r1, r1, #4
200048de:	dcf4      	bgt.n	200048ca <memcpy+0x176>
200048e0:	e77f      	b.n	200047e2 <memcpy+0x8e>
200048e2:	bf00      	nop

200048e4 <memmove>:
200048e4:	4288      	cmp	r0, r1
200048e6:	468c      	mov	ip, r1
200048e8:	b470      	push	{r4, r5, r6}
200048ea:	4605      	mov	r5, r0
200048ec:	4614      	mov	r4, r2
200048ee:	d90e      	bls.n	2000490e <memmove+0x2a>
200048f0:	188b      	adds	r3, r1, r2
200048f2:	4298      	cmp	r0, r3
200048f4:	d20b      	bcs.n	2000490e <memmove+0x2a>
200048f6:	b142      	cbz	r2, 2000490a <memmove+0x26>
200048f8:	ebc2 0c03 	rsb	ip, r2, r3
200048fc:	4601      	mov	r1, r0
200048fe:	1e53      	subs	r3, r2, #1
20004900:	f81c 2003 	ldrb.w	r2, [ip, r3]
20004904:	54ca      	strb	r2, [r1, r3]
20004906:	3b01      	subs	r3, #1
20004908:	d2fa      	bcs.n	20004900 <memmove+0x1c>
2000490a:	bc70      	pop	{r4, r5, r6}
2000490c:	4770      	bx	lr
2000490e:	2a0f      	cmp	r2, #15
20004910:	d809      	bhi.n	20004926 <memmove+0x42>
20004912:	2c00      	cmp	r4, #0
20004914:	d0f9      	beq.n	2000490a <memmove+0x26>
20004916:	2300      	movs	r3, #0
20004918:	f81c 2003 	ldrb.w	r2, [ip, r3]
2000491c:	54ea      	strb	r2, [r5, r3]
2000491e:	3301      	adds	r3, #1
20004920:	42a3      	cmp	r3, r4
20004922:	d1f9      	bne.n	20004918 <memmove+0x34>
20004924:	e7f1      	b.n	2000490a <memmove+0x26>
20004926:	ea41 0300 	orr.w	r3, r1, r0
2000492a:	f013 0f03 	tst.w	r3, #3
2000492e:	d1f0      	bne.n	20004912 <memmove+0x2e>
20004930:	4694      	mov	ip, r2
20004932:	460c      	mov	r4, r1
20004934:	4603      	mov	r3, r0
20004936:	6825      	ldr	r5, [r4, #0]
20004938:	f1ac 0c10 	sub.w	ip, ip, #16
2000493c:	601d      	str	r5, [r3, #0]
2000493e:	6865      	ldr	r5, [r4, #4]
20004940:	605d      	str	r5, [r3, #4]
20004942:	68a5      	ldr	r5, [r4, #8]
20004944:	609d      	str	r5, [r3, #8]
20004946:	68e5      	ldr	r5, [r4, #12]
20004948:	3410      	adds	r4, #16
2000494a:	60dd      	str	r5, [r3, #12]
2000494c:	3310      	adds	r3, #16
2000494e:	f1bc 0f0f 	cmp.w	ip, #15
20004952:	d8f0      	bhi.n	20004936 <memmove+0x52>
20004954:	3a10      	subs	r2, #16
20004956:	ea4f 1c12 	mov.w	ip, r2, lsr #4
2000495a:	f10c 0501 	add.w	r5, ip, #1
2000495e:	ebcc 7c0c 	rsb	ip, ip, ip, lsl #28
20004962:	012d      	lsls	r5, r5, #4
20004964:	eb02 160c 	add.w	r6, r2, ip, lsl #4
20004968:	eb01 0c05 	add.w	ip, r1, r5
2000496c:	1945      	adds	r5, r0, r5
2000496e:	2e03      	cmp	r6, #3
20004970:	4634      	mov	r4, r6
20004972:	d9ce      	bls.n	20004912 <memmove+0x2e>
20004974:	2300      	movs	r3, #0
20004976:	f85c 2003 	ldr.w	r2, [ip, r3]
2000497a:	50ea      	str	r2, [r5, r3]
2000497c:	3304      	adds	r3, #4
2000497e:	1af2      	subs	r2, r6, r3
20004980:	2a03      	cmp	r2, #3
20004982:	d8f8      	bhi.n	20004976 <memmove+0x92>
20004984:	3e04      	subs	r6, #4
20004986:	08b3      	lsrs	r3, r6, #2
20004988:	1c5a      	adds	r2, r3, #1
2000498a:	ebc3 7383 	rsb	r3, r3, r3, lsl #30
2000498e:	0092      	lsls	r2, r2, #2
20004990:	4494      	add	ip, r2
20004992:	eb06 0483 	add.w	r4, r6, r3, lsl #2
20004996:	18ad      	adds	r5, r5, r2
20004998:	e7bb      	b.n	20004912 <memmove+0x2e>
2000499a:	bf00      	nop

2000499c <memset>:
2000499c:	2a03      	cmp	r2, #3
2000499e:	b2c9      	uxtb	r1, r1
200049a0:	b430      	push	{r4, r5}
200049a2:	d807      	bhi.n	200049b4 <memset+0x18>
200049a4:	b122      	cbz	r2, 200049b0 <memset+0x14>
200049a6:	2300      	movs	r3, #0
200049a8:	54c1      	strb	r1, [r0, r3]
200049aa:	3301      	adds	r3, #1
200049ac:	4293      	cmp	r3, r2
200049ae:	d1fb      	bne.n	200049a8 <memset+0xc>
200049b0:	bc30      	pop	{r4, r5}
200049b2:	4770      	bx	lr
200049b4:	eb00 0c02 	add.w	ip, r0, r2
200049b8:	4603      	mov	r3, r0
200049ba:	e001      	b.n	200049c0 <memset+0x24>
200049bc:	f803 1c01 	strb.w	r1, [r3, #-1]
200049c0:	f003 0403 	and.w	r4, r3, #3
200049c4:	461a      	mov	r2, r3
200049c6:	3301      	adds	r3, #1
200049c8:	2c00      	cmp	r4, #0
200049ca:	d1f7      	bne.n	200049bc <memset+0x20>
200049cc:	f04f 3301 	mov.w	r3, #16843009	; 0x1010101
200049d0:	ebc2 040c 	rsb	r4, r2, ip
200049d4:	fb03 f301 	mul.w	r3, r3, r1
200049d8:	e01f      	b.n	20004a1a <memset+0x7e>
200049da:	f842 3c40 	str.w	r3, [r2, #-64]
200049de:	f842 3c3c 	str.w	r3, [r2, #-60]
200049e2:	f842 3c38 	str.w	r3, [r2, #-56]
200049e6:	f842 3c34 	str.w	r3, [r2, #-52]
200049ea:	f842 3c30 	str.w	r3, [r2, #-48]
200049ee:	f842 3c2c 	str.w	r3, [r2, #-44]
200049f2:	f842 3c28 	str.w	r3, [r2, #-40]
200049f6:	f842 3c24 	str.w	r3, [r2, #-36]
200049fa:	f842 3c20 	str.w	r3, [r2, #-32]
200049fe:	f842 3c1c 	str.w	r3, [r2, #-28]
20004a02:	f842 3c18 	str.w	r3, [r2, #-24]
20004a06:	f842 3c14 	str.w	r3, [r2, #-20]
20004a0a:	f842 3c10 	str.w	r3, [r2, #-16]
20004a0e:	f842 3c0c 	str.w	r3, [r2, #-12]
20004a12:	f842 3c08 	str.w	r3, [r2, #-8]
20004a16:	f842 3c04 	str.w	r3, [r2, #-4]
20004a1a:	4615      	mov	r5, r2
20004a1c:	3240      	adds	r2, #64	; 0x40
20004a1e:	2c3f      	cmp	r4, #63	; 0x3f
20004a20:	f1a4 0440 	sub.w	r4, r4, #64	; 0x40
20004a24:	dcd9      	bgt.n	200049da <memset+0x3e>
20004a26:	462a      	mov	r2, r5
20004a28:	ebc5 040c 	rsb	r4, r5, ip
20004a2c:	e007      	b.n	20004a3e <memset+0xa2>
20004a2e:	f842 3c10 	str.w	r3, [r2, #-16]
20004a32:	f842 3c0c 	str.w	r3, [r2, #-12]
20004a36:	f842 3c08 	str.w	r3, [r2, #-8]
20004a3a:	f842 3c04 	str.w	r3, [r2, #-4]
20004a3e:	4615      	mov	r5, r2
20004a40:	3210      	adds	r2, #16
20004a42:	2c0f      	cmp	r4, #15
20004a44:	f1a4 0410 	sub.w	r4, r4, #16
20004a48:	dcf1      	bgt.n	20004a2e <memset+0x92>
20004a4a:	462a      	mov	r2, r5
20004a4c:	ebc5 050c 	rsb	r5, r5, ip
20004a50:	e001      	b.n	20004a56 <memset+0xba>
20004a52:	f842 3c04 	str.w	r3, [r2, #-4]
20004a56:	4614      	mov	r4, r2
20004a58:	3204      	adds	r2, #4
20004a5a:	2d03      	cmp	r5, #3
20004a5c:	f1a5 0504 	sub.w	r5, r5, #4
20004a60:	dcf7      	bgt.n	20004a52 <memset+0xb6>
20004a62:	e001      	b.n	20004a68 <memset+0xcc>
20004a64:	f804 1b01 	strb.w	r1, [r4], #1
20004a68:	4564      	cmp	r4, ip
20004a6a:	d3fb      	bcc.n	20004a64 <memset+0xc8>
20004a6c:	e7a0      	b.n	200049b0 <memset+0x14>
20004a6e:	bf00      	nop

20004a70 <__malloc_lock>:
20004a70:	4770      	bx	lr
20004a72:	bf00      	nop

20004a74 <__malloc_unlock>:
20004a74:	4770      	bx	lr
20004a76:	bf00      	nop

20004a78 <__hi0bits>:
20004a78:	0c02      	lsrs	r2, r0, #16
20004a7a:	4603      	mov	r3, r0
20004a7c:	0412      	lsls	r2, r2, #16
20004a7e:	b1b2      	cbz	r2, 20004aae <__hi0bits+0x36>
20004a80:	2000      	movs	r0, #0
20004a82:	f013 4f7f 	tst.w	r3, #4278190080	; 0xff000000
20004a86:	d101      	bne.n	20004a8c <__hi0bits+0x14>
20004a88:	3008      	adds	r0, #8
20004a8a:	021b      	lsls	r3, r3, #8
20004a8c:	f013 4f70 	tst.w	r3, #4026531840	; 0xf0000000
20004a90:	d101      	bne.n	20004a96 <__hi0bits+0x1e>
20004a92:	3004      	adds	r0, #4
20004a94:	011b      	lsls	r3, r3, #4
20004a96:	f013 4f40 	tst.w	r3, #3221225472	; 0xc0000000
20004a9a:	d101      	bne.n	20004aa0 <__hi0bits+0x28>
20004a9c:	3002      	adds	r0, #2
20004a9e:	009b      	lsls	r3, r3, #2
20004aa0:	2b00      	cmp	r3, #0
20004aa2:	db03      	blt.n	20004aac <__hi0bits+0x34>
20004aa4:	f013 4f80 	tst.w	r3, #1073741824	; 0x40000000
20004aa8:	d004      	beq.n	20004ab4 <__hi0bits+0x3c>
20004aaa:	3001      	adds	r0, #1
20004aac:	4770      	bx	lr
20004aae:	0403      	lsls	r3, r0, #16
20004ab0:	2010      	movs	r0, #16
20004ab2:	e7e6      	b.n	20004a82 <__hi0bits+0xa>
20004ab4:	2020      	movs	r0, #32
20004ab6:	4770      	bx	lr

20004ab8 <__lo0bits>:
20004ab8:	6803      	ldr	r3, [r0, #0]
20004aba:	4602      	mov	r2, r0
20004abc:	f013 0007 	ands.w	r0, r3, #7
20004ac0:	d009      	beq.n	20004ad6 <__lo0bits+0x1e>
20004ac2:	f013 0f01 	tst.w	r3, #1
20004ac6:	d121      	bne.n	20004b0c <__lo0bits+0x54>
20004ac8:	f013 0f02 	tst.w	r3, #2
20004acc:	d122      	bne.n	20004b14 <__lo0bits+0x5c>
20004ace:	089b      	lsrs	r3, r3, #2
20004ad0:	2002      	movs	r0, #2
20004ad2:	6013      	str	r3, [r2, #0]
20004ad4:	4770      	bx	lr
20004ad6:	b299      	uxth	r1, r3
20004ad8:	b909      	cbnz	r1, 20004ade <__lo0bits+0x26>
20004ada:	0c1b      	lsrs	r3, r3, #16
20004adc:	2010      	movs	r0, #16
20004ade:	f013 0fff 	tst.w	r3, #255	; 0xff
20004ae2:	d101      	bne.n	20004ae8 <__lo0bits+0x30>
20004ae4:	3008      	adds	r0, #8
20004ae6:	0a1b      	lsrs	r3, r3, #8
20004ae8:	f013 0f0f 	tst.w	r3, #15
20004aec:	d101      	bne.n	20004af2 <__lo0bits+0x3a>
20004aee:	3004      	adds	r0, #4
20004af0:	091b      	lsrs	r3, r3, #4
20004af2:	f013 0f03 	tst.w	r3, #3
20004af6:	d101      	bne.n	20004afc <__lo0bits+0x44>
20004af8:	3002      	adds	r0, #2
20004afa:	089b      	lsrs	r3, r3, #2
20004afc:	f013 0f01 	tst.w	r3, #1
20004b00:	d102      	bne.n	20004b08 <__lo0bits+0x50>
20004b02:	085b      	lsrs	r3, r3, #1
20004b04:	d004      	beq.n	20004b10 <__lo0bits+0x58>
20004b06:	3001      	adds	r0, #1
20004b08:	6013      	str	r3, [r2, #0]
20004b0a:	4770      	bx	lr
20004b0c:	2000      	movs	r0, #0
20004b0e:	4770      	bx	lr
20004b10:	2020      	movs	r0, #32
20004b12:	4770      	bx	lr
20004b14:	085b      	lsrs	r3, r3, #1
20004b16:	2001      	movs	r0, #1
20004b18:	6013      	str	r3, [r2, #0]
20004b1a:	4770      	bx	lr

20004b1c <__mcmp>:
20004b1c:	4603      	mov	r3, r0
20004b1e:	690a      	ldr	r2, [r1, #16]
20004b20:	6900      	ldr	r0, [r0, #16]
20004b22:	b410      	push	{r4}
20004b24:	1a80      	subs	r0, r0, r2
20004b26:	d111      	bne.n	20004b4c <__mcmp+0x30>
20004b28:	3204      	adds	r2, #4
20004b2a:	f103 0c14 	add.w	ip, r3, #20
20004b2e:	0092      	lsls	r2, r2, #2
20004b30:	189b      	adds	r3, r3, r2
20004b32:	1889      	adds	r1, r1, r2
20004b34:	3104      	adds	r1, #4
20004b36:	3304      	adds	r3, #4
20004b38:	f853 4c04 	ldr.w	r4, [r3, #-4]
20004b3c:	3b04      	subs	r3, #4
20004b3e:	f851 2c04 	ldr.w	r2, [r1, #-4]
20004b42:	3904      	subs	r1, #4
20004b44:	4294      	cmp	r4, r2
20004b46:	d103      	bne.n	20004b50 <__mcmp+0x34>
20004b48:	459c      	cmp	ip, r3
20004b4a:	d3f5      	bcc.n	20004b38 <__mcmp+0x1c>
20004b4c:	bc10      	pop	{r4}
20004b4e:	4770      	bx	lr
20004b50:	bf38      	it	cc
20004b52:	f04f 30ff 	movcc.w	r0, #4294967295
20004b56:	d3f9      	bcc.n	20004b4c <__mcmp+0x30>
20004b58:	2001      	movs	r0, #1
20004b5a:	e7f7      	b.n	20004b4c <__mcmp+0x30>

20004b5c <__ulp>:
20004b5c:	f240 0300 	movw	r3, #0
20004b60:	f6c7 73f0 	movt	r3, #32752	; 0x7ff0
20004b64:	ea01 0303 	and.w	r3, r1, r3
20004b68:	f1a3 7350 	sub.w	r3, r3, #54525952	; 0x3400000
20004b6c:	2b00      	cmp	r3, #0
20004b6e:	dd02      	ble.n	20004b76 <__ulp+0x1a>
20004b70:	4619      	mov	r1, r3
20004b72:	2000      	movs	r0, #0
20004b74:	4770      	bx	lr
20004b76:	425b      	negs	r3, r3
20004b78:	151b      	asrs	r3, r3, #20
20004b7a:	2b13      	cmp	r3, #19
20004b7c:	dd0e      	ble.n	20004b9c <__ulp+0x40>
20004b7e:	3b14      	subs	r3, #20
20004b80:	2b1e      	cmp	r3, #30
20004b82:	dd03      	ble.n	20004b8c <__ulp+0x30>
20004b84:	2301      	movs	r3, #1
20004b86:	2100      	movs	r1, #0
20004b88:	4618      	mov	r0, r3
20004b8a:	4770      	bx	lr
20004b8c:	2201      	movs	r2, #1
20004b8e:	f1c3 031f 	rsb	r3, r3, #31
20004b92:	2100      	movs	r1, #0
20004b94:	fa12 f303 	lsls.w	r3, r2, r3
20004b98:	4618      	mov	r0, r3
20004b9a:	4770      	bx	lr
20004b9c:	f44f 2200 	mov.w	r2, #524288	; 0x80000
20004ba0:	2000      	movs	r0, #0
20004ba2:	fa52 f103 	asrs.w	r1, r2, r3
20004ba6:	4770      	bx	lr

20004ba8 <__b2d>:
20004ba8:	e92d 41f0 	stmdb	sp!, {r4, r5, r6, r7, r8, lr}
20004bac:	6904      	ldr	r4, [r0, #16]
20004bae:	f100 0614 	add.w	r6, r0, #20
20004bb2:	460f      	mov	r7, r1
20004bb4:	3404      	adds	r4, #4
20004bb6:	f850 5024 	ldr.w	r5, [r0, r4, lsl #2]
20004bba:	eb00 0484 	add.w	r4, r0, r4, lsl #2
20004bbe:	46a0      	mov	r8, r4
20004bc0:	4628      	mov	r0, r5
20004bc2:	f7ff ff59 	bl	20004a78 <__hi0bits>
20004bc6:	280a      	cmp	r0, #10
20004bc8:	f1c0 0320 	rsb	r3, r0, #32
20004bcc:	603b      	str	r3, [r7, #0]
20004bce:	dc14      	bgt.n	20004bfa <__b2d+0x52>
20004bd0:	42a6      	cmp	r6, r4
20004bd2:	f1c0 030b 	rsb	r3, r0, #11
20004bd6:	d237      	bcs.n	20004c48 <__b2d+0xa0>
20004bd8:	f854 1c04 	ldr.w	r1, [r4, #-4]
20004bdc:	40d9      	lsrs	r1, r3
20004bde:	fa25 fc03 	lsr.w	ip, r5, r3
20004be2:	3015      	adds	r0, #21
20004be4:	f04c 537e 	orr.w	r3, ip, #1065353216	; 0x3f800000
20004be8:	4085      	lsls	r5, r0
20004bea:	f443 03e0 	orr.w	r3, r3, #7340032	; 0x700000
20004bee:	ea41 0205 	orr.w	r2, r1, r5
20004bf2:	4610      	mov	r0, r2
20004bf4:	4619      	mov	r1, r3
20004bf6:	e8bd 81f0 	ldmia.w	sp!, {r4, r5, r6, r7, r8, pc}
20004bfa:	42a6      	cmp	r6, r4
20004bfc:	d320      	bcc.n	20004c40 <__b2d+0x98>
20004bfe:	2100      	movs	r1, #0
20004c00:	380b      	subs	r0, #11
20004c02:	bf02      	ittt	eq
20004c04:	f045 537e 	orreq.w	r3, r5, #1065353216	; 0x3f800000
20004c08:	460a      	moveq	r2, r1
20004c0a:	f443 03e0 	orreq.w	r3, r3, #7340032	; 0x700000
20004c0e:	d0f0      	beq.n	20004bf2 <__b2d+0x4a>
20004c10:	42b4      	cmp	r4, r6
20004c12:	f1c0 0320 	rsb	r3, r0, #32
20004c16:	d919      	bls.n	20004c4c <__b2d+0xa4>
20004c18:	f854 4c04 	ldr.w	r4, [r4, #-4]
20004c1c:	40dc      	lsrs	r4, r3
20004c1e:	4085      	lsls	r5, r0
20004c20:	fa21 fc03 	lsr.w	ip, r1, r3
20004c24:	f045 557e 	orr.w	r5, r5, #1065353216	; 0x3f800000
20004c28:	fa11 f000 	lsls.w	r0, r1, r0
20004c2c:	f445 05e0 	orr.w	r5, r5, #7340032	; 0x700000
20004c30:	ea44 0200 	orr.w	r2, r4, r0
20004c34:	ea45 030c 	orr.w	r3, r5, ip
20004c38:	4610      	mov	r0, r2
20004c3a:	4619      	mov	r1, r3
20004c3c:	e8bd 81f0 	ldmia.w	sp!, {r4, r5, r6, r7, r8, pc}
20004c40:	f854 1c04 	ldr.w	r1, [r4, #-4]
20004c44:	3c04      	subs	r4, #4
20004c46:	e7db      	b.n	20004c00 <__b2d+0x58>
20004c48:	2100      	movs	r1, #0
20004c4a:	e7c8      	b.n	20004bde <__b2d+0x36>
20004c4c:	2400      	movs	r4, #0
20004c4e:	e7e6      	b.n	20004c1e <__b2d+0x76>

20004c50 <__ratio>:
20004c50:	e92d 43f0 	stmdb	sp!, {r4, r5, r6, r7, r8, r9, lr}
20004c54:	b083      	sub	sp, #12
20004c56:	460e      	mov	r6, r1
20004c58:	a901      	add	r1, sp, #4
20004c5a:	4607      	mov	r7, r0
20004c5c:	f7ff ffa4 	bl	20004ba8 <__b2d>
20004c60:	460d      	mov	r5, r1
20004c62:	4604      	mov	r4, r0
20004c64:	4669      	mov	r1, sp
20004c66:	4630      	mov	r0, r6
20004c68:	f7ff ff9e 	bl	20004ba8 <__b2d>
20004c6c:	f8dd c004 	ldr.w	ip, [sp, #4]
20004c70:	46a9      	mov	r9, r5
20004c72:	46a0      	mov	r8, r4
20004c74:	460b      	mov	r3, r1
20004c76:	4602      	mov	r2, r0
20004c78:	6931      	ldr	r1, [r6, #16]
20004c7a:	4616      	mov	r6, r2
20004c7c:	6938      	ldr	r0, [r7, #16]
20004c7e:	461f      	mov	r7, r3
20004c80:	1a40      	subs	r0, r0, r1
20004c82:	9900      	ldr	r1, [sp, #0]
20004c84:	ebc1 010c 	rsb	r1, r1, ip
20004c88:	eb01 1140 	add.w	r1, r1, r0, lsl #5
20004c8c:	2900      	cmp	r1, #0
20004c8e:	bfc9      	itett	gt
20004c90:	eb05 5901 	addgt.w	r9, r5, r1, lsl #20
20004c94:	eba3 5701 	suble.w	r7, r3, r1, lsl #20
20004c98:	4624      	movgt	r4, r4
20004c9a:	464d      	movgt	r5, r9
20004c9c:	bfdc      	itt	le
20004c9e:	4612      	movle	r2, r2
20004ca0:	463b      	movle	r3, r7
20004ca2:	4620      	mov	r0, r4
20004ca4:	4629      	mov	r1, r5
20004ca6:	f001 fc27 	bl	200064f8 <__aeabi_ddiv>
20004caa:	b003      	add	sp, #12
20004cac:	e8bd 83f0 	ldmia.w	sp!, {r4, r5, r6, r7, r8, r9, pc}

20004cb0 <_mprec_log10>:
20004cb0:	2817      	cmp	r0, #23
20004cb2:	b510      	push	{r4, lr}
20004cb4:	4604      	mov	r4, r0
20004cb6:	dd0e      	ble.n	20004cd6 <_mprec_log10+0x26>
20004cb8:	f240 0100 	movw	r1, #0
20004cbc:	2000      	movs	r0, #0
20004cbe:	f6c3 71f0 	movt	r1, #16368	; 0x3ff0
20004cc2:	f240 0300 	movw	r3, #0
20004cc6:	2200      	movs	r2, #0
20004cc8:	f2c4 0324 	movt	r3, #16420	; 0x4024
20004ccc:	f001 faea 	bl	200062a4 <__aeabi_dmul>
20004cd0:	3c01      	subs	r4, #1
20004cd2:	d1f6      	bne.n	20004cc2 <_mprec_log10+0x12>
20004cd4:	bd10      	pop	{r4, pc}
20004cd6:	f247 0370 	movw	r3, #28784	; 0x7070
20004cda:	f2c2 0300 	movt	r3, #8192	; 0x2000
20004cde:	eb03 03c0 	add.w	r3, r3, r0, lsl #3
20004ce2:	e9d3 0100 	ldrd	r0, r1, [r3]
20004ce6:	bd10      	pop	{r4, pc}

20004ce8 <__copybits>:
20004ce8:	6913      	ldr	r3, [r2, #16]
20004cea:	3901      	subs	r1, #1
20004cec:	f102 0c14 	add.w	ip, r2, #20
20004cf0:	b410      	push	{r4}
20004cf2:	eb02 0283 	add.w	r2, r2, r3, lsl #2
20004cf6:	114c      	asrs	r4, r1, #5
20004cf8:	3214      	adds	r2, #20
20004cfa:	3401      	adds	r4, #1
20004cfc:	4594      	cmp	ip, r2
20004cfe:	eb00 0484 	add.w	r4, r0, r4, lsl #2
20004d02:	d20f      	bcs.n	20004d24 <__copybits+0x3c>
20004d04:	2300      	movs	r3, #0
20004d06:	f85c 1003 	ldr.w	r1, [ip, r3]
20004d0a:	50c1      	str	r1, [r0, r3]
20004d0c:	3304      	adds	r3, #4
20004d0e:	eb03 010c 	add.w	r1, r3, ip
20004d12:	428a      	cmp	r2, r1
20004d14:	d8f7      	bhi.n	20004d06 <__copybits+0x1e>
20004d16:	ea6f 0c0c 	mvn.w	ip, ip
20004d1a:	4462      	add	r2, ip
20004d1c:	f022 0203 	bic.w	r2, r2, #3
20004d20:	3204      	adds	r2, #4
20004d22:	1880      	adds	r0, r0, r2
20004d24:	4284      	cmp	r4, r0
20004d26:	d904      	bls.n	20004d32 <__copybits+0x4a>
20004d28:	2300      	movs	r3, #0
20004d2a:	f840 3b04 	str.w	r3, [r0], #4
20004d2e:	4284      	cmp	r4, r0
20004d30:	d8fb      	bhi.n	20004d2a <__copybits+0x42>
20004d32:	bc10      	pop	{r4}
20004d34:	4770      	bx	lr
20004d36:	bf00      	nop

20004d38 <__any_on>:
20004d38:	6902      	ldr	r2, [r0, #16]
20004d3a:	114b      	asrs	r3, r1, #5
20004d3c:	429a      	cmp	r2, r3
20004d3e:	db10      	blt.n	20004d62 <__any_on+0x2a>
20004d40:	dd0e      	ble.n	20004d60 <__any_on+0x28>
20004d42:	f011 011f 	ands.w	r1, r1, #31
20004d46:	d00b      	beq.n	20004d60 <__any_on+0x28>
20004d48:	461a      	mov	r2, r3
20004d4a:	eb00 0383 	add.w	r3, r0, r3, lsl #2
20004d4e:	695b      	ldr	r3, [r3, #20]
20004d50:	fa23 fc01 	lsr.w	ip, r3, r1
20004d54:	fa0c f101 	lsl.w	r1, ip, r1
20004d58:	4299      	cmp	r1, r3
20004d5a:	d002      	beq.n	20004d62 <__any_on+0x2a>
20004d5c:	2001      	movs	r0, #1
20004d5e:	4770      	bx	lr
20004d60:	461a      	mov	r2, r3
20004d62:	3204      	adds	r2, #4
20004d64:	f100 0114 	add.w	r1, r0, #20
20004d68:	eb00 0382 	add.w	r3, r0, r2, lsl #2
20004d6c:	f103 0c04 	add.w	ip, r3, #4
20004d70:	4561      	cmp	r1, ip
20004d72:	d20b      	bcs.n	20004d8c <__any_on+0x54>
20004d74:	f850 2022 	ldr.w	r2, [r0, r2, lsl #2]
20004d78:	2a00      	cmp	r2, #0
20004d7a:	d1ef      	bne.n	20004d5c <__any_on+0x24>
20004d7c:	4299      	cmp	r1, r3
20004d7e:	d205      	bcs.n	20004d8c <__any_on+0x54>
20004d80:	f853 2d04 	ldr.w	r2, [r3, #-4]!
20004d84:	2a00      	cmp	r2, #0
20004d86:	d1e9      	bne.n	20004d5c <__any_on+0x24>
20004d88:	4299      	cmp	r1, r3
20004d8a:	d3f9      	bcc.n	20004d80 <__any_on+0x48>
20004d8c:	2000      	movs	r0, #0
20004d8e:	4770      	bx	lr

20004d90 <_Bfree>:
20004d90:	b530      	push	{r4, r5, lr}
20004d92:	6a45      	ldr	r5, [r0, #36]	; 0x24
20004d94:	b083      	sub	sp, #12
20004d96:	4604      	mov	r4, r0
20004d98:	b155      	cbz	r5, 20004db0 <_Bfree+0x20>
20004d9a:	b139      	cbz	r1, 20004dac <_Bfree+0x1c>
20004d9c:	6a63      	ldr	r3, [r4, #36]	; 0x24
20004d9e:	684a      	ldr	r2, [r1, #4]
20004da0:	68db      	ldr	r3, [r3, #12]
20004da2:	f853 0022 	ldr.w	r0, [r3, r2, lsl #2]
20004da6:	6008      	str	r0, [r1, #0]
20004da8:	f843 1022 	str.w	r1, [r3, r2, lsl #2]
20004dac:	b003      	add	sp, #12
20004dae:	bd30      	pop	{r4, r5, pc}
20004db0:	2010      	movs	r0, #16
20004db2:	9101      	str	r1, [sp, #4]
20004db4:	f7ff f9ba 	bl	2000412c <malloc>
20004db8:	9901      	ldr	r1, [sp, #4]
20004dba:	6260      	str	r0, [r4, #36]	; 0x24
20004dbc:	60c5      	str	r5, [r0, #12]
20004dbe:	6045      	str	r5, [r0, #4]
20004dc0:	6085      	str	r5, [r0, #8]
20004dc2:	6005      	str	r5, [r0, #0]
20004dc4:	e7e9      	b.n	20004d9a <_Bfree+0xa>
20004dc6:	bf00      	nop

20004dc8 <_Balloc>:
20004dc8:	b570      	push	{r4, r5, r6, lr}
20004dca:	6a44      	ldr	r4, [r0, #36]	; 0x24
20004dcc:	4606      	mov	r6, r0
20004dce:	460d      	mov	r5, r1
20004dd0:	b164      	cbz	r4, 20004dec <_Balloc+0x24>
20004dd2:	68e2      	ldr	r2, [r4, #12]
20004dd4:	b1a2      	cbz	r2, 20004e00 <_Balloc+0x38>
20004dd6:	f852 3025 	ldr.w	r3, [r2, r5, lsl #2]
20004dda:	b1eb      	cbz	r3, 20004e18 <_Balloc+0x50>
20004ddc:	6819      	ldr	r1, [r3, #0]
20004dde:	f842 1025 	str.w	r1, [r2, r5, lsl #2]
20004de2:	2200      	movs	r2, #0
20004de4:	60da      	str	r2, [r3, #12]
20004de6:	611a      	str	r2, [r3, #16]
20004de8:	4618      	mov	r0, r3
20004dea:	bd70      	pop	{r4, r5, r6, pc}
20004dec:	2010      	movs	r0, #16
20004dee:	f7ff f99d 	bl	2000412c <malloc>
20004df2:	2300      	movs	r3, #0
20004df4:	4604      	mov	r4, r0
20004df6:	6270      	str	r0, [r6, #36]	; 0x24
20004df8:	60c3      	str	r3, [r0, #12]
20004dfa:	6043      	str	r3, [r0, #4]
20004dfc:	6083      	str	r3, [r0, #8]
20004dfe:	6003      	str	r3, [r0, #0]
20004e00:	2210      	movs	r2, #16
20004e02:	4630      	mov	r0, r6
20004e04:	2104      	movs	r1, #4
20004e06:	f000 fe57 	bl	20005ab8 <_calloc_r>
20004e0a:	6a73      	ldr	r3, [r6, #36]	; 0x24
20004e0c:	60e0      	str	r0, [r4, #12]
20004e0e:	68da      	ldr	r2, [r3, #12]
20004e10:	2a00      	cmp	r2, #0
20004e12:	d1e0      	bne.n	20004dd6 <_Balloc+0xe>
20004e14:	4613      	mov	r3, r2
20004e16:	e7e7      	b.n	20004de8 <_Balloc+0x20>
20004e18:	2401      	movs	r4, #1
20004e1a:	4630      	mov	r0, r6
20004e1c:	4621      	mov	r1, r4
20004e1e:	40ac      	lsls	r4, r5
20004e20:	1d62      	adds	r2, r4, #5
20004e22:	0092      	lsls	r2, r2, #2
20004e24:	f000 fe48 	bl	20005ab8 <_calloc_r>
20004e28:	4603      	mov	r3, r0
20004e2a:	2800      	cmp	r0, #0
20004e2c:	d0dc      	beq.n	20004de8 <_Balloc+0x20>
20004e2e:	6045      	str	r5, [r0, #4]
20004e30:	6084      	str	r4, [r0, #8]
20004e32:	e7d6      	b.n	20004de2 <_Balloc+0x1a>

20004e34 <__d2b>:
20004e34:	e92d 45f0 	stmdb	sp!, {r4, r5, r6, r7, r8, sl, lr}
20004e38:	b083      	sub	sp, #12
20004e3a:	2101      	movs	r1, #1
20004e3c:	461d      	mov	r5, r3
20004e3e:	4614      	mov	r4, r2
20004e40:	9f0a      	ldr	r7, [sp, #40]	; 0x28
20004e42:	9e0b      	ldr	r6, [sp, #44]	; 0x2c
20004e44:	f7ff ffc0 	bl	20004dc8 <_Balloc>
20004e48:	f025 4200 	bic.w	r2, r5, #2147483648	; 0x80000000
20004e4c:	f025 437f 	bic.w	r3, r5, #4278190080	; 0xff000000
20004e50:	f423 0370 	bic.w	r3, r3, #15728640	; 0xf00000
20004e54:	4615      	mov	r5, r2
20004e56:	ea5f 5a12 	movs.w	sl, r2, lsr #20
20004e5a:	9300      	str	r3, [sp, #0]
20004e5c:	bf1c      	itt	ne
20004e5e:	f443 1380 	orrne.w	r3, r3, #1048576	; 0x100000
20004e62:	9300      	strne	r3, [sp, #0]
20004e64:	4680      	mov	r8, r0
20004e66:	2c00      	cmp	r4, #0
20004e68:	d023      	beq.n	20004eb2 <__d2b+0x7e>
20004e6a:	a802      	add	r0, sp, #8
20004e6c:	f840 4d04 	str.w	r4, [r0, #-4]!
20004e70:	f7ff fe22 	bl	20004ab8 <__lo0bits>
20004e74:	4603      	mov	r3, r0
20004e76:	2800      	cmp	r0, #0
20004e78:	d137      	bne.n	20004eea <__d2b+0xb6>
20004e7a:	9901      	ldr	r1, [sp, #4]
20004e7c:	9a00      	ldr	r2, [sp, #0]
20004e7e:	f8c8 1014 	str.w	r1, [r8, #20]
20004e82:	2a00      	cmp	r2, #0
20004e84:	bf14      	ite	ne
20004e86:	2402      	movne	r4, #2
20004e88:	2401      	moveq	r4, #1
20004e8a:	f8c8 2018 	str.w	r2, [r8, #24]
20004e8e:	f8c8 4010 	str.w	r4, [r8, #16]
20004e92:	f1ba 0f00 	cmp.w	sl, #0
20004e96:	d01b      	beq.n	20004ed0 <__d2b+0x9c>
20004e98:	f5aa 6a86 	sub.w	sl, sl, #1072	; 0x430
20004e9c:	f1c3 0235 	rsb	r2, r3, #53	; 0x35
20004ea0:	f1aa 0a03 	sub.w	sl, sl, #3
20004ea4:	4453      	add	r3, sl
20004ea6:	603b      	str	r3, [r7, #0]
20004ea8:	6032      	str	r2, [r6, #0]
20004eaa:	4640      	mov	r0, r8
20004eac:	b003      	add	sp, #12
20004eae:	e8bd 85f0 	ldmia.w	sp!, {r4, r5, r6, r7, r8, sl, pc}
20004eb2:	4668      	mov	r0, sp
20004eb4:	f7ff fe00 	bl	20004ab8 <__lo0bits>
20004eb8:	2301      	movs	r3, #1
20004eba:	461c      	mov	r4, r3
20004ebc:	f8c8 3010 	str.w	r3, [r8, #16]
20004ec0:	9b00      	ldr	r3, [sp, #0]
20004ec2:	f8c8 3014 	str.w	r3, [r8, #20]
20004ec6:	f100 0320 	add.w	r3, r0, #32
20004eca:	f1ba 0f00 	cmp.w	sl, #0
20004ece:	d1e3      	bne.n	20004e98 <__d2b+0x64>
20004ed0:	eb08 0284 	add.w	r2, r8, r4, lsl #2
20004ed4:	f5a3 6386 	sub.w	r3, r3, #1072	; 0x430
20004ed8:	3b02      	subs	r3, #2
20004eda:	603b      	str	r3, [r7, #0]
20004edc:	6910      	ldr	r0, [r2, #16]
20004ede:	f7ff fdcb 	bl	20004a78 <__hi0bits>
20004ee2:	ebc0 1044 	rsb	r0, r0, r4, lsl #5
20004ee6:	6030      	str	r0, [r6, #0]
20004ee8:	e7df      	b.n	20004eaa <__d2b+0x76>
20004eea:	9a00      	ldr	r2, [sp, #0]
20004eec:	f1c0 0120 	rsb	r1, r0, #32
20004ef0:	fa12 f101 	lsls.w	r1, r2, r1
20004ef4:	40c2      	lsrs	r2, r0
20004ef6:	9801      	ldr	r0, [sp, #4]
20004ef8:	4301      	orrs	r1, r0
20004efa:	f8c8 1014 	str.w	r1, [r8, #20]
20004efe:	9200      	str	r2, [sp, #0]
20004f00:	e7bf      	b.n	20004e82 <__d2b+0x4e>
20004f02:	bf00      	nop

20004f04 <__mdiff>:
20004f04:	e92d 4ff8 	stmdb	sp!, {r3, r4, r5, r6, r7, r8, r9, sl, fp, lr}
20004f08:	6913      	ldr	r3, [r2, #16]
20004f0a:	690f      	ldr	r7, [r1, #16]
20004f0c:	460c      	mov	r4, r1
20004f0e:	4615      	mov	r5, r2
20004f10:	1aff      	subs	r7, r7, r3
20004f12:	2f00      	cmp	r7, #0
20004f14:	d04f      	beq.n	20004fb6 <__mdiff+0xb2>
20004f16:	db6a      	blt.n	20004fee <__mdiff+0xea>
20004f18:	2700      	movs	r7, #0
20004f1a:	f101 0614 	add.w	r6, r1, #20
20004f1e:	6861      	ldr	r1, [r4, #4]
20004f20:	f7ff ff52 	bl	20004dc8 <_Balloc>
20004f24:	f8d5 8010 	ldr.w	r8, [r5, #16]
20004f28:	f8d4 c010 	ldr.w	ip, [r4, #16]
20004f2c:	f105 0114 	add.w	r1, r5, #20
20004f30:	2200      	movs	r2, #0
20004f32:	eb05 0588 	add.w	r5, r5, r8, lsl #2
20004f36:	eb04 048c 	add.w	r4, r4, ip, lsl #2
20004f3a:	f105 0814 	add.w	r8, r5, #20
20004f3e:	3414      	adds	r4, #20
20004f40:	f100 0314 	add.w	r3, r0, #20
20004f44:	60c7      	str	r7, [r0, #12]
20004f46:	f851 7b04 	ldr.w	r7, [r1], #4
20004f4a:	f856 5b04 	ldr.w	r5, [r6], #4
20004f4e:	46bb      	mov	fp, r7
20004f50:	fa1f fa87 	uxth.w	sl, r7
20004f54:	0c3f      	lsrs	r7, r7, #16
20004f56:	fa1f f985 	uxth.w	r9, r5
20004f5a:	ebc7 4715 	rsb	r7, r7, r5, lsr #16
20004f5e:	ebca 0a09 	rsb	sl, sl, r9
20004f62:	4452      	add	r2, sl
20004f64:	eb07 4722 	add.w	r7, r7, r2, asr #16
20004f68:	b292      	uxth	r2, r2
20004f6a:	ea42 4207 	orr.w	r2, r2, r7, lsl #16
20004f6e:	f843 2b04 	str.w	r2, [r3], #4
20004f72:	143a      	asrs	r2, r7, #16
20004f74:	4588      	cmp	r8, r1
20004f76:	d8e6      	bhi.n	20004f46 <__mdiff+0x42>
20004f78:	42a6      	cmp	r6, r4
20004f7a:	d20e      	bcs.n	20004f9a <__mdiff+0x96>
20004f7c:	f856 1b04 	ldr.w	r1, [r6], #4
20004f80:	b28d      	uxth	r5, r1
20004f82:	0c09      	lsrs	r1, r1, #16
20004f84:	1952      	adds	r2, r2, r5
20004f86:	eb01 4122 	add.w	r1, r1, r2, asr #16
20004f8a:	b292      	uxth	r2, r2
20004f8c:	ea42 4201 	orr.w	r2, r2, r1, lsl #16
20004f90:	f843 2b04 	str.w	r2, [r3], #4
20004f94:	140a      	asrs	r2, r1, #16
20004f96:	42b4      	cmp	r4, r6
20004f98:	d8f0      	bhi.n	20004f7c <__mdiff+0x78>
20004f9a:	f853 2c04 	ldr.w	r2, [r3, #-4]
20004f9e:	b932      	cbnz	r2, 20004fae <__mdiff+0xaa>
20004fa0:	f853 2c08 	ldr.w	r2, [r3, #-8]
20004fa4:	f10c 3cff 	add.w	ip, ip, #4294967295
20004fa8:	3b04      	subs	r3, #4
20004faa:	2a00      	cmp	r2, #0
20004fac:	d0f8      	beq.n	20004fa0 <__mdiff+0x9c>
20004fae:	f8c0 c010 	str.w	ip, [r0, #16]
20004fb2:	e8bd 8ff8 	ldmia.w	sp!, {r3, r4, r5, r6, r7, r8, r9, sl, fp, pc}
20004fb6:	3304      	adds	r3, #4
20004fb8:	f101 0614 	add.w	r6, r1, #20
20004fbc:	009b      	lsls	r3, r3, #2
20004fbe:	18d2      	adds	r2, r2, r3
20004fc0:	18cb      	adds	r3, r1, r3
20004fc2:	3304      	adds	r3, #4
20004fc4:	3204      	adds	r2, #4
20004fc6:	f853 cc04 	ldr.w	ip, [r3, #-4]
20004fca:	3b04      	subs	r3, #4
20004fcc:	f852 1c04 	ldr.w	r1, [r2, #-4]
20004fd0:	3a04      	subs	r2, #4
20004fd2:	458c      	cmp	ip, r1
20004fd4:	d10a      	bne.n	20004fec <__mdiff+0xe8>
20004fd6:	429e      	cmp	r6, r3
20004fd8:	d3f5      	bcc.n	20004fc6 <__mdiff+0xc2>
20004fda:	2100      	movs	r1, #0
20004fdc:	f7ff fef4 	bl	20004dc8 <_Balloc>
20004fe0:	2301      	movs	r3, #1
20004fe2:	6103      	str	r3, [r0, #16]
20004fe4:	2300      	movs	r3, #0
20004fe6:	6143      	str	r3, [r0, #20]
20004fe8:	e8bd 8ff8 	ldmia.w	sp!, {r3, r4, r5, r6, r7, r8, r9, sl, fp, pc}
20004fec:	d297      	bcs.n	20004f1e <__mdiff+0x1a>
20004fee:	4623      	mov	r3, r4
20004ff0:	462c      	mov	r4, r5
20004ff2:	2701      	movs	r7, #1
20004ff4:	461d      	mov	r5, r3
20004ff6:	f104 0614 	add.w	r6, r4, #20
20004ffa:	e790      	b.n	20004f1e <__mdiff+0x1a>

20004ffc <__lshift>:
20004ffc:	e92d 45f8 	stmdb	sp!, {r3, r4, r5, r6, r7, r8, sl, lr}
20005000:	690d      	ldr	r5, [r1, #16]
20005002:	688b      	ldr	r3, [r1, #8]
20005004:	1156      	asrs	r6, r2, #5
20005006:	3501      	adds	r5, #1
20005008:	460c      	mov	r4, r1
2000500a:	19ad      	adds	r5, r5, r6
2000500c:	4690      	mov	r8, r2
2000500e:	429d      	cmp	r5, r3
20005010:	4682      	mov	sl, r0
20005012:	6849      	ldr	r1, [r1, #4]
20005014:	dd03      	ble.n	2000501e <__lshift+0x22>
20005016:	005b      	lsls	r3, r3, #1
20005018:	3101      	adds	r1, #1
2000501a:	429d      	cmp	r5, r3
2000501c:	dcfb      	bgt.n	20005016 <__lshift+0x1a>
2000501e:	4650      	mov	r0, sl
20005020:	f7ff fed2 	bl	20004dc8 <_Balloc>
20005024:	2e00      	cmp	r6, #0
20005026:	4607      	mov	r7, r0
20005028:	f100 0214 	add.w	r2, r0, #20
2000502c:	dd0a      	ble.n	20005044 <__lshift+0x48>
2000502e:	2300      	movs	r3, #0
20005030:	4619      	mov	r1, r3
20005032:	f842 1023 	str.w	r1, [r2, r3, lsl #2]
20005036:	3301      	adds	r3, #1
20005038:	42b3      	cmp	r3, r6
2000503a:	d1fa      	bne.n	20005032 <__lshift+0x36>
2000503c:	eb07 0383 	add.w	r3, r7, r3, lsl #2
20005040:	f103 0214 	add.w	r2, r3, #20
20005044:	6920      	ldr	r0, [r4, #16]
20005046:	f104 0314 	add.w	r3, r4, #20
2000504a:	eb04 0080 	add.w	r0, r4, r0, lsl #2
2000504e:	3014      	adds	r0, #20
20005050:	f018 081f 	ands.w	r8, r8, #31
20005054:	d01b      	beq.n	2000508e <__lshift+0x92>
20005056:	f1c8 0e20 	rsb	lr, r8, #32
2000505a:	2100      	movs	r1, #0
2000505c:	681e      	ldr	r6, [r3, #0]
2000505e:	fa06 fc08 	lsl.w	ip, r6, r8
20005062:	ea41 010c 	orr.w	r1, r1, ip
20005066:	f842 1b04 	str.w	r1, [r2], #4
2000506a:	f853 1b04 	ldr.w	r1, [r3], #4
2000506e:	4298      	cmp	r0, r3
20005070:	fa21 f10e 	lsr.w	r1, r1, lr
20005074:	d8f2      	bhi.n	2000505c <__lshift+0x60>
20005076:	6011      	str	r1, [r2, #0]
20005078:	b101      	cbz	r1, 2000507c <__lshift+0x80>
2000507a:	3501      	adds	r5, #1
2000507c:	4650      	mov	r0, sl
2000507e:	3d01      	subs	r5, #1
20005080:	4621      	mov	r1, r4
20005082:	613d      	str	r5, [r7, #16]
20005084:	f7ff fe84 	bl	20004d90 <_Bfree>
20005088:	4638      	mov	r0, r7
2000508a:	e8bd 85f8 	ldmia.w	sp!, {r3, r4, r5, r6, r7, r8, sl, pc}
2000508e:	f853 1008 	ldr.w	r1, [r3, r8]
20005092:	f842 1008 	str.w	r1, [r2, r8]
20005096:	f108 0804 	add.w	r8, r8, #4
2000509a:	eb08 0103 	add.w	r1, r8, r3
2000509e:	4288      	cmp	r0, r1
200050a0:	d9ec      	bls.n	2000507c <__lshift+0x80>
200050a2:	f853 1008 	ldr.w	r1, [r3, r8]
200050a6:	f842 1008 	str.w	r1, [r2, r8]
200050aa:	f108 0804 	add.w	r8, r8, #4
200050ae:	eb08 0103 	add.w	r1, r8, r3
200050b2:	4288      	cmp	r0, r1
200050b4:	d8eb      	bhi.n	2000508e <__lshift+0x92>
200050b6:	e7e1      	b.n	2000507c <__lshift+0x80>

200050b8 <__multiply>:
200050b8:	e92d 4ff0 	stmdb	sp!, {r4, r5, r6, r7, r8, r9, sl, fp, lr}
200050bc:	f8d1 8010 	ldr.w	r8, [r1, #16]
200050c0:	6917      	ldr	r7, [r2, #16]
200050c2:	460d      	mov	r5, r1
200050c4:	4616      	mov	r6, r2
200050c6:	b087      	sub	sp, #28
200050c8:	45b8      	cmp	r8, r7
200050ca:	bfb5      	itete	lt
200050cc:	4615      	movlt	r5, r2
200050ce:	463b      	movge	r3, r7
200050d0:	460b      	movlt	r3, r1
200050d2:	4647      	movge	r7, r8
200050d4:	bfb4      	ite	lt
200050d6:	461e      	movlt	r6, r3
200050d8:	4698      	movge	r8, r3
200050da:	68ab      	ldr	r3, [r5, #8]
200050dc:	eb08 0407 	add.w	r4, r8, r7
200050e0:	6869      	ldr	r1, [r5, #4]
200050e2:	429c      	cmp	r4, r3
200050e4:	bfc8      	it	gt
200050e6:	3101      	addgt	r1, #1
200050e8:	f7ff fe6e 	bl	20004dc8 <_Balloc>
200050ec:	eb00 0384 	add.w	r3, r0, r4, lsl #2
200050f0:	f100 0b14 	add.w	fp, r0, #20
200050f4:	3314      	adds	r3, #20
200050f6:	9003      	str	r0, [sp, #12]
200050f8:	459b      	cmp	fp, r3
200050fa:	9304      	str	r3, [sp, #16]
200050fc:	d206      	bcs.n	2000510c <__multiply+0x54>
200050fe:	9904      	ldr	r1, [sp, #16]
20005100:	465b      	mov	r3, fp
20005102:	2200      	movs	r2, #0
20005104:	f843 2b04 	str.w	r2, [r3], #4
20005108:	4299      	cmp	r1, r3
2000510a:	d8fb      	bhi.n	20005104 <__multiply+0x4c>
2000510c:	eb06 0888 	add.w	r8, r6, r8, lsl #2
20005110:	f106 0914 	add.w	r9, r6, #20
20005114:	f108 0814 	add.w	r8, r8, #20
20005118:	eb05 0c87 	add.w	ip, r5, r7, lsl #2
2000511c:	3514      	adds	r5, #20
2000511e:	45c1      	cmp	r9, r8
20005120:	f8cd 8004 	str.w	r8, [sp, #4]
20005124:	f10c 0c14 	add.w	ip, ip, #20
20005128:	9502      	str	r5, [sp, #8]
2000512a:	d24b      	bcs.n	200051c4 <__multiply+0x10c>
2000512c:	f04f 0a00 	mov.w	sl, #0
20005130:	9405      	str	r4, [sp, #20]
20005132:	f859 400a 	ldr.w	r4, [r9, sl]
20005136:	eb0a 080b 	add.w	r8, sl, fp
2000513a:	b2a0      	uxth	r0, r4
2000513c:	b1d8      	cbz	r0, 20005176 <__multiply+0xbe>
2000513e:	9a02      	ldr	r2, [sp, #8]
20005140:	4643      	mov	r3, r8
20005142:	2400      	movs	r4, #0
20005144:	f852 5b04 	ldr.w	r5, [r2], #4
20005148:	6819      	ldr	r1, [r3, #0]
2000514a:	b2af      	uxth	r7, r5
2000514c:	0c2d      	lsrs	r5, r5, #16
2000514e:	b28e      	uxth	r6, r1
20005150:	0c09      	lsrs	r1, r1, #16
20005152:	fb00 6607 	mla	r6, r0, r7, r6
20005156:	fb00 1105 	mla	r1, r0, r5, r1
2000515a:	1936      	adds	r6, r6, r4
2000515c:	eb01 4116 	add.w	r1, r1, r6, lsr #16
20005160:	b2b6      	uxth	r6, r6
20005162:	0c0c      	lsrs	r4, r1, #16
20005164:	4594      	cmp	ip, r2
20005166:	ea46 4601 	orr.w	r6, r6, r1, lsl #16
2000516a:	f843 6b04 	str.w	r6, [r3], #4
2000516e:	d8e9      	bhi.n	20005144 <__multiply+0x8c>
20005170:	601c      	str	r4, [r3, #0]
20005172:	f859 400a 	ldr.w	r4, [r9, sl]
20005176:	0c24      	lsrs	r4, r4, #16
20005178:	d01c      	beq.n	200051b4 <__multiply+0xfc>
2000517a:	f85b 200a 	ldr.w	r2, [fp, sl]
2000517e:	4641      	mov	r1, r8
20005180:	9b02      	ldr	r3, [sp, #8]
20005182:	2500      	movs	r5, #0
20005184:	4610      	mov	r0, r2
20005186:	881e      	ldrh	r6, [r3, #0]
20005188:	b297      	uxth	r7, r2
2000518a:	fb06 5504 	mla	r5, r6, r4, r5
2000518e:	eb05 4510 	add.w	r5, r5, r0, lsr #16
20005192:	ea47 4705 	orr.w	r7, r7, r5, lsl #16
20005196:	600f      	str	r7, [r1, #0]
20005198:	f851 0f04 	ldr.w	r0, [r1, #4]!
2000519c:	f853 2b04 	ldr.w	r2, [r3], #4
200051a0:	b286      	uxth	r6, r0
200051a2:	0c12      	lsrs	r2, r2, #16
200051a4:	fb02 6204 	mla	r2, r2, r4, r6
200051a8:	eb02 4215 	add.w	r2, r2, r5, lsr #16
200051ac:	0c15      	lsrs	r5, r2, #16
200051ae:	459c      	cmp	ip, r3
200051b0:	d8e9      	bhi.n	20005186 <__multiply+0xce>
200051b2:	600a      	str	r2, [r1, #0]
200051b4:	f10a 0a04 	add.w	sl, sl, #4
200051b8:	9a01      	ldr	r2, [sp, #4]
200051ba:	eb0a 0309 	add.w	r3, sl, r9
200051be:	429a      	cmp	r2, r3
200051c0:	d8b7      	bhi.n	20005132 <__multiply+0x7a>
200051c2:	9c05      	ldr	r4, [sp, #20]
200051c4:	2c00      	cmp	r4, #0
200051c6:	dd0b      	ble.n	200051e0 <__multiply+0x128>
200051c8:	9a04      	ldr	r2, [sp, #16]
200051ca:	f852 3c04 	ldr.w	r3, [r2, #-4]
200051ce:	b93b      	cbnz	r3, 200051e0 <__multiply+0x128>
200051d0:	4613      	mov	r3, r2
200051d2:	e003      	b.n	200051dc <__multiply+0x124>
200051d4:	f853 2c08 	ldr.w	r2, [r3, #-8]
200051d8:	3b04      	subs	r3, #4
200051da:	b90a      	cbnz	r2, 200051e0 <__multiply+0x128>
200051dc:	3c01      	subs	r4, #1
200051de:	d1f9      	bne.n	200051d4 <__multiply+0x11c>
200051e0:	9b03      	ldr	r3, [sp, #12]
200051e2:	4618      	mov	r0, r3
200051e4:	611c      	str	r4, [r3, #16]
200051e6:	b007      	add	sp, #28
200051e8:	e8bd 8ff0 	ldmia.w	sp!, {r4, r5, r6, r7, r8, r9, sl, fp, pc}

200051ec <__i2b>:
200051ec:	b510      	push	{r4, lr}
200051ee:	460c      	mov	r4, r1
200051f0:	2101      	movs	r1, #1
200051f2:	f7ff fde9 	bl	20004dc8 <_Balloc>
200051f6:	2201      	movs	r2, #1
200051f8:	6144      	str	r4, [r0, #20]
200051fa:	6102      	str	r2, [r0, #16]
200051fc:	bd10      	pop	{r4, pc}
200051fe:	bf00      	nop

20005200 <__multadd>:
20005200:	e92d 45f0 	stmdb	sp!, {r4, r5, r6, r7, r8, sl, lr}
20005204:	460d      	mov	r5, r1
20005206:	2100      	movs	r1, #0
20005208:	4606      	mov	r6, r0
2000520a:	692c      	ldr	r4, [r5, #16]
2000520c:	b083      	sub	sp, #12
2000520e:	f105 0814 	add.w	r8, r5, #20
20005212:	4608      	mov	r0, r1
20005214:	f858 7001 	ldr.w	r7, [r8, r1]
20005218:	3001      	adds	r0, #1
2000521a:	fa1f fa87 	uxth.w	sl, r7
2000521e:	ea4f 4c17 	mov.w	ip, r7, lsr #16
20005222:	fb0a 3302 	mla	r3, sl, r2, r3
20005226:	fb0c fc02 	mul.w	ip, ip, r2
2000522a:	eb0c 4c13 	add.w	ip, ip, r3, lsr #16
2000522e:	b29b      	uxth	r3, r3
20005230:	eb03 430c 	add.w	r3, r3, ip, lsl #16
20005234:	f848 3001 	str.w	r3, [r8, r1]
20005238:	3104      	adds	r1, #4
2000523a:	4284      	cmp	r4, r0
2000523c:	ea4f 431c 	mov.w	r3, ip, lsr #16
20005240:	dce8      	bgt.n	20005214 <__multadd+0x14>
20005242:	b13b      	cbz	r3, 20005254 <__multadd+0x54>
20005244:	68aa      	ldr	r2, [r5, #8]
20005246:	4294      	cmp	r4, r2
20005248:	da08      	bge.n	2000525c <__multadd+0x5c>
2000524a:	eb05 0284 	add.w	r2, r5, r4, lsl #2
2000524e:	3401      	adds	r4, #1
20005250:	612c      	str	r4, [r5, #16]
20005252:	6153      	str	r3, [r2, #20]
20005254:	4628      	mov	r0, r5
20005256:	b003      	add	sp, #12
20005258:	e8bd 85f0 	ldmia.w	sp!, {r4, r5, r6, r7, r8, sl, pc}
2000525c:	6869      	ldr	r1, [r5, #4]
2000525e:	4630      	mov	r0, r6
20005260:	9301      	str	r3, [sp, #4]
20005262:	3101      	adds	r1, #1
20005264:	f7ff fdb0 	bl	20004dc8 <_Balloc>
20005268:	692a      	ldr	r2, [r5, #16]
2000526a:	f105 010c 	add.w	r1, r5, #12
2000526e:	3202      	adds	r2, #2
20005270:	0092      	lsls	r2, r2, #2
20005272:	4607      	mov	r7, r0
20005274:	300c      	adds	r0, #12
20005276:	f7ff fa6d 	bl	20004754 <memcpy>
2000527a:	4629      	mov	r1, r5
2000527c:	4630      	mov	r0, r6
2000527e:	463d      	mov	r5, r7
20005280:	f7ff fd86 	bl	20004d90 <_Bfree>
20005284:	9b01      	ldr	r3, [sp, #4]
20005286:	e7e0      	b.n	2000524a <__multadd+0x4a>

20005288 <__pow5mult>:
20005288:	e92d 41f0 	stmdb	sp!, {r4, r5, r6, r7, r8, lr}
2000528c:	4615      	mov	r5, r2
2000528e:	f012 0203 	ands.w	r2, r2, #3
20005292:	4604      	mov	r4, r0
20005294:	4688      	mov	r8, r1
20005296:	d12c      	bne.n	200052f2 <__pow5mult+0x6a>
20005298:	10ad      	asrs	r5, r5, #2
2000529a:	d01e      	beq.n	200052da <__pow5mult+0x52>
2000529c:	6a66      	ldr	r6, [r4, #36]	; 0x24
2000529e:	2e00      	cmp	r6, #0
200052a0:	d034      	beq.n	2000530c <__pow5mult+0x84>
200052a2:	68b7      	ldr	r7, [r6, #8]
200052a4:	2f00      	cmp	r7, #0
200052a6:	d03b      	beq.n	20005320 <__pow5mult+0x98>
200052a8:	f015 0f01 	tst.w	r5, #1
200052ac:	d108      	bne.n	200052c0 <__pow5mult+0x38>
200052ae:	106d      	asrs	r5, r5, #1
200052b0:	d013      	beq.n	200052da <__pow5mult+0x52>
200052b2:	683e      	ldr	r6, [r7, #0]
200052b4:	b1a6      	cbz	r6, 200052e0 <__pow5mult+0x58>
200052b6:	4630      	mov	r0, r6
200052b8:	4607      	mov	r7, r0
200052ba:	f015 0f01 	tst.w	r5, #1
200052be:	d0f6      	beq.n	200052ae <__pow5mult+0x26>
200052c0:	4641      	mov	r1, r8
200052c2:	463a      	mov	r2, r7
200052c4:	4620      	mov	r0, r4
200052c6:	f7ff fef7 	bl	200050b8 <__multiply>
200052ca:	4641      	mov	r1, r8
200052cc:	4606      	mov	r6, r0
200052ce:	4620      	mov	r0, r4
200052d0:	f7ff fd5e 	bl	20004d90 <_Bfree>
200052d4:	106d      	asrs	r5, r5, #1
200052d6:	46b0      	mov	r8, r6
200052d8:	d1eb      	bne.n	200052b2 <__pow5mult+0x2a>
200052da:	4640      	mov	r0, r8
200052dc:	e8bd 81f0 	ldmia.w	sp!, {r4, r5, r6, r7, r8, pc}
200052e0:	4639      	mov	r1, r7
200052e2:	463a      	mov	r2, r7
200052e4:	4620      	mov	r0, r4
200052e6:	f7ff fee7 	bl	200050b8 <__multiply>
200052ea:	6038      	str	r0, [r7, #0]
200052ec:	4607      	mov	r7, r0
200052ee:	6006      	str	r6, [r0, #0]
200052f0:	e7e3      	b.n	200052ba <__pow5mult+0x32>
200052f2:	f247 0c70 	movw	ip, #28784	; 0x7070
200052f6:	2300      	movs	r3, #0
200052f8:	f2c2 0c00 	movt	ip, #8192	; 0x2000
200052fc:	eb0c 0282 	add.w	r2, ip, r2, lsl #2
20005300:	f8d2 20c4 	ldr.w	r2, [r2, #196]	; 0xc4
20005304:	f7ff ff7c 	bl	20005200 <__multadd>
20005308:	4680      	mov	r8, r0
2000530a:	e7c5      	b.n	20005298 <__pow5mult+0x10>
2000530c:	2010      	movs	r0, #16
2000530e:	f7fe ff0d 	bl	2000412c <malloc>
20005312:	2300      	movs	r3, #0
20005314:	4606      	mov	r6, r0
20005316:	6260      	str	r0, [r4, #36]	; 0x24
20005318:	60c3      	str	r3, [r0, #12]
2000531a:	6043      	str	r3, [r0, #4]
2000531c:	6083      	str	r3, [r0, #8]
2000531e:	6003      	str	r3, [r0, #0]
20005320:	4620      	mov	r0, r4
20005322:	f240 2171 	movw	r1, #625	; 0x271
20005326:	f7ff ff61 	bl	200051ec <__i2b>
2000532a:	2300      	movs	r3, #0
2000532c:	60b0      	str	r0, [r6, #8]
2000532e:	4607      	mov	r7, r0
20005330:	6003      	str	r3, [r0, #0]
20005332:	e7b9      	b.n	200052a8 <__pow5mult+0x20>

20005334 <__s2b>:
20005334:	e92d 45f8 	stmdb	sp!, {r3, r4, r5, r6, r7, r8, sl, lr}
20005338:	461e      	mov	r6, r3
2000533a:	f648 6339 	movw	r3, #36409	; 0x8e39
2000533e:	f106 0c08 	add.w	ip, r6, #8
20005342:	f6c3 03e3 	movt	r3, #14563	; 0x38e3
20005346:	4688      	mov	r8, r1
20005348:	4605      	mov	r5, r0
2000534a:	4617      	mov	r7, r2
2000534c:	fb83 130c 	smull	r1, r3, r3, ip
20005350:	ea4f 7cec 	mov.w	ip, ip, asr #31
20005354:	ebcc 0c63 	rsb	ip, ip, r3, asr #1
20005358:	f1bc 0f01 	cmp.w	ip, #1
2000535c:	dd35      	ble.n	200053ca <__s2b+0x96>
2000535e:	2100      	movs	r1, #0
20005360:	2201      	movs	r2, #1
20005362:	0052      	lsls	r2, r2, #1
20005364:	3101      	adds	r1, #1
20005366:	4594      	cmp	ip, r2
20005368:	dcfb      	bgt.n	20005362 <__s2b+0x2e>
2000536a:	4628      	mov	r0, r5
2000536c:	f7ff fd2c 	bl	20004dc8 <_Balloc>
20005370:	9b08      	ldr	r3, [sp, #32]
20005372:	6143      	str	r3, [r0, #20]
20005374:	2301      	movs	r3, #1
20005376:	2f09      	cmp	r7, #9
20005378:	6103      	str	r3, [r0, #16]
2000537a:	dd22      	ble.n	200053c2 <__s2b+0x8e>
2000537c:	f108 0a09 	add.w	sl, r8, #9
20005380:	2409      	movs	r4, #9
20005382:	f818 3004 	ldrb.w	r3, [r8, r4]
20005386:	4601      	mov	r1, r0
20005388:	220a      	movs	r2, #10
2000538a:	3401      	adds	r4, #1
2000538c:	3b30      	subs	r3, #48	; 0x30
2000538e:	4628      	mov	r0, r5
20005390:	f7ff ff36 	bl	20005200 <__multadd>
20005394:	42a7      	cmp	r7, r4
20005396:	dcf4      	bgt.n	20005382 <__s2b+0x4e>
20005398:	eb0a 0807 	add.w	r8, sl, r7
2000539c:	f1a8 0808 	sub.w	r8, r8, #8
200053a0:	42be      	cmp	r6, r7
200053a2:	dd0c      	ble.n	200053be <__s2b+0x8a>
200053a4:	2400      	movs	r4, #0
200053a6:	f818 3004 	ldrb.w	r3, [r8, r4]
200053aa:	4601      	mov	r1, r0
200053ac:	3401      	adds	r4, #1
200053ae:	220a      	movs	r2, #10
200053b0:	3b30      	subs	r3, #48	; 0x30
200053b2:	4628      	mov	r0, r5
200053b4:	f7ff ff24 	bl	20005200 <__multadd>
200053b8:	19e3      	adds	r3, r4, r7
200053ba:	429e      	cmp	r6, r3
200053bc:	dcf3      	bgt.n	200053a6 <__s2b+0x72>
200053be:	e8bd 85f8 	ldmia.w	sp!, {r3, r4, r5, r6, r7, r8, sl, pc}
200053c2:	f108 080a 	add.w	r8, r8, #10
200053c6:	2709      	movs	r7, #9
200053c8:	e7ea      	b.n	200053a0 <__s2b+0x6c>
200053ca:	2100      	movs	r1, #0
200053cc:	e7cd      	b.n	2000536a <__s2b+0x36>
200053ce:	bf00      	nop

200053d0 <_realloc_r>:
200053d0:	e92d 4ff0 	stmdb	sp!, {r4, r5, r6, r7, r8, r9, sl, fp, lr}
200053d4:	4691      	mov	r9, r2
200053d6:	b083      	sub	sp, #12
200053d8:	4607      	mov	r7, r0
200053da:	460e      	mov	r6, r1
200053dc:	2900      	cmp	r1, #0
200053de:	f000 813a 	beq.w	20005656 <_realloc_r+0x286>
200053e2:	f1a1 0808 	sub.w	r8, r1, #8
200053e6:	f109 040b 	add.w	r4, r9, #11
200053ea:	f7ff fb41 	bl	20004a70 <__malloc_lock>
200053ee:	2c16      	cmp	r4, #22
200053f0:	f8d8 1004 	ldr.w	r1, [r8, #4]
200053f4:	460b      	mov	r3, r1
200053f6:	f200 80a0 	bhi.w	2000553a <_realloc_r+0x16a>
200053fa:	2210      	movs	r2, #16
200053fc:	2500      	movs	r5, #0
200053fe:	4614      	mov	r4, r2
20005400:	454c      	cmp	r4, r9
20005402:	bf38      	it	cc
20005404:	f045 0501 	orrcc.w	r5, r5, #1
20005408:	2d00      	cmp	r5, #0
2000540a:	f040 812a 	bne.w	20005662 <_realloc_r+0x292>
2000540e:	f021 0a03 	bic.w	sl, r1, #3
20005412:	4592      	cmp	sl, r2
20005414:	bfa2      	ittt	ge
20005416:	4640      	movge	r0, r8
20005418:	4655      	movge	r5, sl
2000541a:	f108 0808 	addge.w	r8, r8, #8
2000541e:	da75      	bge.n	2000550c <_realloc_r+0x13c>
20005420:	f247 23d0 	movw	r3, #29392	; 0x72d0
20005424:	eb08 000a 	add.w	r0, r8, sl
20005428:	f2c2 0300 	movt	r3, #8192	; 0x2000
2000542c:	f8d3 e008 	ldr.w	lr, [r3, #8]
20005430:	4586      	cmp	lr, r0
20005432:	f000 811a 	beq.w	2000566a <_realloc_r+0x29a>
20005436:	f8d0 c004 	ldr.w	ip, [r0, #4]
2000543a:	f02c 0b01 	bic.w	fp, ip, #1
2000543e:	4483      	add	fp, r0
20005440:	f8db b004 	ldr.w	fp, [fp, #4]
20005444:	f01b 0f01 	tst.w	fp, #1
20005448:	d07c      	beq.n	20005544 <_realloc_r+0x174>
2000544a:	46ac      	mov	ip, r5
2000544c:	4628      	mov	r0, r5
2000544e:	f011 0f01 	tst.w	r1, #1
20005452:	f040 809b 	bne.w	2000558c <_realloc_r+0x1bc>
20005456:	f856 1c08 	ldr.w	r1, [r6, #-8]
2000545a:	ebc1 0b08 	rsb	fp, r1, r8
2000545e:	f8db 5004 	ldr.w	r5, [fp, #4]
20005462:	f025 0503 	bic.w	r5, r5, #3
20005466:	2800      	cmp	r0, #0
20005468:	f000 80dd 	beq.w	20005626 <_realloc_r+0x256>
2000546c:	4570      	cmp	r0, lr
2000546e:	f000 811f 	beq.w	200056b0 <_realloc_r+0x2e0>
20005472:	eb05 030a 	add.w	r3, r5, sl
20005476:	eb0c 0503 	add.w	r5, ip, r3
2000547a:	4295      	cmp	r5, r2
2000547c:	bfb8      	it	lt
2000547e:	461d      	movlt	r5, r3
20005480:	f2c0 80d2 	blt.w	20005628 <_realloc_r+0x258>
20005484:	6881      	ldr	r1, [r0, #8]
20005486:	465b      	mov	r3, fp
20005488:	68c0      	ldr	r0, [r0, #12]
2000548a:	f1aa 0204 	sub.w	r2, sl, #4
2000548e:	2a24      	cmp	r2, #36	; 0x24
20005490:	6081      	str	r1, [r0, #8]
20005492:	60c8      	str	r0, [r1, #12]
20005494:	f853 1f08 	ldr.w	r1, [r3, #8]!
20005498:	f8db 000c 	ldr.w	r0, [fp, #12]
2000549c:	6081      	str	r1, [r0, #8]
2000549e:	60c8      	str	r0, [r1, #12]
200054a0:	f200 80d0 	bhi.w	20005644 <_realloc_r+0x274>
200054a4:	2a13      	cmp	r2, #19
200054a6:	469c      	mov	ip, r3
200054a8:	d921      	bls.n	200054ee <_realloc_r+0x11e>
200054aa:	4631      	mov	r1, r6
200054ac:	f10b 0c10 	add.w	ip, fp, #16
200054b0:	f851 0b04 	ldr.w	r0, [r1], #4
200054b4:	f8cb 0008 	str.w	r0, [fp, #8]
200054b8:	6870      	ldr	r0, [r6, #4]
200054ba:	1d0e      	adds	r6, r1, #4
200054bc:	2a1b      	cmp	r2, #27
200054be:	f8cb 000c 	str.w	r0, [fp, #12]
200054c2:	d914      	bls.n	200054ee <_realloc_r+0x11e>
200054c4:	6848      	ldr	r0, [r1, #4]
200054c6:	1d31      	adds	r1, r6, #4
200054c8:	f10b 0c18 	add.w	ip, fp, #24
200054cc:	f8cb 0010 	str.w	r0, [fp, #16]
200054d0:	6870      	ldr	r0, [r6, #4]
200054d2:	1d0e      	adds	r6, r1, #4
200054d4:	2a24      	cmp	r2, #36	; 0x24
200054d6:	f8cb 0014 	str.w	r0, [fp, #20]
200054da:	d108      	bne.n	200054ee <_realloc_r+0x11e>
200054dc:	684a      	ldr	r2, [r1, #4]
200054de:	f10b 0c20 	add.w	ip, fp, #32
200054e2:	f8cb 2018 	str.w	r2, [fp, #24]
200054e6:	6872      	ldr	r2, [r6, #4]
200054e8:	3608      	adds	r6, #8
200054ea:	f8cb 201c 	str.w	r2, [fp, #28]
200054ee:	4631      	mov	r1, r6
200054f0:	4698      	mov	r8, r3
200054f2:	4662      	mov	r2, ip
200054f4:	4658      	mov	r0, fp
200054f6:	f851 3b04 	ldr.w	r3, [r1], #4
200054fa:	f842 3b04 	str.w	r3, [r2], #4
200054fe:	6873      	ldr	r3, [r6, #4]
20005500:	f8cc 3004 	str.w	r3, [ip, #4]
20005504:	684b      	ldr	r3, [r1, #4]
20005506:	6053      	str	r3, [r2, #4]
20005508:	f8db 3004 	ldr.w	r3, [fp, #4]
2000550c:	ebc4 0c05 	rsb	ip, r4, r5
20005510:	f1bc 0f0f 	cmp.w	ip, #15
20005514:	d826      	bhi.n	20005564 <_realloc_r+0x194>
20005516:	1942      	adds	r2, r0, r5
20005518:	f003 0301 	and.w	r3, r3, #1
2000551c:	ea43 0505 	orr.w	r5, r3, r5
20005520:	6045      	str	r5, [r0, #4]
20005522:	6853      	ldr	r3, [r2, #4]
20005524:	f043 0301 	orr.w	r3, r3, #1
20005528:	6053      	str	r3, [r2, #4]
2000552a:	4638      	mov	r0, r7
2000552c:	4645      	mov	r5, r8
2000552e:	f7ff faa1 	bl	20004a74 <__malloc_unlock>
20005532:	4628      	mov	r0, r5
20005534:	b003      	add	sp, #12
20005536:	e8bd 8ff0 	ldmia.w	sp!, {r4, r5, r6, r7, r8, r9, sl, fp, pc}
2000553a:	f024 0407 	bic.w	r4, r4, #7
2000553e:	4622      	mov	r2, r4
20005540:	0fe5      	lsrs	r5, r4, #31
20005542:	e75d      	b.n	20005400 <_realloc_r+0x30>
20005544:	f02c 0c03 	bic.w	ip, ip, #3
20005548:	eb0c 050a 	add.w	r5, ip, sl
2000554c:	4295      	cmp	r5, r2
2000554e:	f6ff af7e 	blt.w	2000544e <_realloc_r+0x7e>
20005552:	6882      	ldr	r2, [r0, #8]
20005554:	460b      	mov	r3, r1
20005556:	68c1      	ldr	r1, [r0, #12]
20005558:	4640      	mov	r0, r8
2000555a:	f108 0808 	add.w	r8, r8, #8
2000555e:	608a      	str	r2, [r1, #8]
20005560:	60d1      	str	r1, [r2, #12]
20005562:	e7d3      	b.n	2000550c <_realloc_r+0x13c>
20005564:	1901      	adds	r1, r0, r4
20005566:	f003 0301 	and.w	r3, r3, #1
2000556a:	eb01 020c 	add.w	r2, r1, ip
2000556e:	ea43 0404 	orr.w	r4, r3, r4
20005572:	f04c 0301 	orr.w	r3, ip, #1
20005576:	6044      	str	r4, [r0, #4]
20005578:	604b      	str	r3, [r1, #4]
2000557a:	4638      	mov	r0, r7
2000557c:	6853      	ldr	r3, [r2, #4]
2000557e:	3108      	adds	r1, #8
20005580:	f043 0301 	orr.w	r3, r3, #1
20005584:	6053      	str	r3, [r2, #4]
20005586:	f7fe fa57 	bl	20003a38 <_free_r>
2000558a:	e7ce      	b.n	2000552a <_realloc_r+0x15a>
2000558c:	4649      	mov	r1, r9
2000558e:	4638      	mov	r0, r7
20005590:	f7fe fdd4 	bl	2000413c <_malloc_r>
20005594:	4605      	mov	r5, r0
20005596:	2800      	cmp	r0, #0
20005598:	d041      	beq.n	2000561e <_realloc_r+0x24e>
2000559a:	f8d8 3004 	ldr.w	r3, [r8, #4]
2000559e:	f1a0 0208 	sub.w	r2, r0, #8
200055a2:	f023 0101 	bic.w	r1, r3, #1
200055a6:	4441      	add	r1, r8
200055a8:	428a      	cmp	r2, r1
200055aa:	f000 80d7 	beq.w	2000575c <_realloc_r+0x38c>
200055ae:	f1aa 0204 	sub.w	r2, sl, #4
200055b2:	4631      	mov	r1, r6
200055b4:	2a24      	cmp	r2, #36	; 0x24
200055b6:	d878      	bhi.n	200056aa <_realloc_r+0x2da>
200055b8:	2a13      	cmp	r2, #19
200055ba:	4603      	mov	r3, r0
200055bc:	d921      	bls.n	20005602 <_realloc_r+0x232>
200055be:	4634      	mov	r4, r6
200055c0:	f854 3b04 	ldr.w	r3, [r4], #4
200055c4:	1d21      	adds	r1, r4, #4
200055c6:	f840 3b04 	str.w	r3, [r0], #4
200055ca:	1d03      	adds	r3, r0, #4
200055cc:	f8d6 c004 	ldr.w	ip, [r6, #4]
200055d0:	2a1b      	cmp	r2, #27
200055d2:	f8c5 c004 	str.w	ip, [r5, #4]
200055d6:	d914      	bls.n	20005602 <_realloc_r+0x232>
200055d8:	f8d4 e004 	ldr.w	lr, [r4, #4]
200055dc:	1d1c      	adds	r4, r3, #4
200055de:	f101 0c04 	add.w	ip, r1, #4
200055e2:	f8c0 e004 	str.w	lr, [r0, #4]
200055e6:	6848      	ldr	r0, [r1, #4]
200055e8:	f10c 0104 	add.w	r1, ip, #4
200055ec:	6058      	str	r0, [r3, #4]
200055ee:	1d23      	adds	r3, r4, #4
200055f0:	2a24      	cmp	r2, #36	; 0x24
200055f2:	d106      	bne.n	20005602 <_realloc_r+0x232>
200055f4:	f8dc 2004 	ldr.w	r2, [ip, #4]
200055f8:	6062      	str	r2, [r4, #4]
200055fa:	684a      	ldr	r2, [r1, #4]
200055fc:	3108      	adds	r1, #8
200055fe:	605a      	str	r2, [r3, #4]
20005600:	3308      	adds	r3, #8
20005602:	4608      	mov	r0, r1
20005604:	461a      	mov	r2, r3
20005606:	f850 4b04 	ldr.w	r4, [r0], #4
2000560a:	f842 4b04 	str.w	r4, [r2], #4
2000560e:	6849      	ldr	r1, [r1, #4]
20005610:	6059      	str	r1, [r3, #4]
20005612:	6843      	ldr	r3, [r0, #4]
20005614:	6053      	str	r3, [r2, #4]
20005616:	4631      	mov	r1, r6
20005618:	4638      	mov	r0, r7
2000561a:	f7fe fa0d 	bl	20003a38 <_free_r>
2000561e:	4638      	mov	r0, r7
20005620:	f7ff fa28 	bl	20004a74 <__malloc_unlock>
20005624:	e785      	b.n	20005532 <_realloc_r+0x162>
20005626:	4455      	add	r5, sl
20005628:	4295      	cmp	r5, r2
2000562a:	dbaf      	blt.n	2000558c <_realloc_r+0x1bc>
2000562c:	465b      	mov	r3, fp
2000562e:	f8db 000c 	ldr.w	r0, [fp, #12]
20005632:	f1aa 0204 	sub.w	r2, sl, #4
20005636:	f853 1f08 	ldr.w	r1, [r3, #8]!
2000563a:	2a24      	cmp	r2, #36	; 0x24
2000563c:	6081      	str	r1, [r0, #8]
2000563e:	60c8      	str	r0, [r1, #12]
20005640:	f67f af30 	bls.w	200054a4 <_realloc_r+0xd4>
20005644:	4618      	mov	r0, r3
20005646:	4631      	mov	r1, r6
20005648:	4698      	mov	r8, r3
2000564a:	f7ff f94b 	bl	200048e4 <memmove>
2000564e:	4658      	mov	r0, fp
20005650:	f8db 3004 	ldr.w	r3, [fp, #4]
20005654:	e75a      	b.n	2000550c <_realloc_r+0x13c>
20005656:	4611      	mov	r1, r2
20005658:	b003      	add	sp, #12
2000565a:	e8bd 4ff0 	ldmia.w	sp!, {r4, r5, r6, r7, r8, r9, sl, fp, lr}
2000565e:	f7fe bd6d 	b.w	2000413c <_malloc_r>
20005662:	230c      	movs	r3, #12
20005664:	2500      	movs	r5, #0
20005666:	603b      	str	r3, [r7, #0]
20005668:	e763      	b.n	20005532 <_realloc_r+0x162>
2000566a:	f8de 5004 	ldr.w	r5, [lr, #4]
2000566e:	f104 0b10 	add.w	fp, r4, #16
20005672:	f025 0c03 	bic.w	ip, r5, #3
20005676:	eb0c 000a 	add.w	r0, ip, sl
2000567a:	4558      	cmp	r0, fp
2000567c:	bfb8      	it	lt
2000567e:	4670      	movlt	r0, lr
20005680:	f6ff aee5 	blt.w	2000544e <_realloc_r+0x7e>
20005684:	eb08 0204 	add.w	r2, r8, r4
20005688:	1b01      	subs	r1, r0, r4
2000568a:	f041 0101 	orr.w	r1, r1, #1
2000568e:	609a      	str	r2, [r3, #8]
20005690:	6051      	str	r1, [r2, #4]
20005692:	4638      	mov	r0, r7
20005694:	f8d8 1004 	ldr.w	r1, [r8, #4]
20005698:	4635      	mov	r5, r6
2000569a:	f001 0301 	and.w	r3, r1, #1
2000569e:	431c      	orrs	r4, r3
200056a0:	f8c8 4004 	str.w	r4, [r8, #4]
200056a4:	f7ff f9e6 	bl	20004a74 <__malloc_unlock>
200056a8:	e743      	b.n	20005532 <_realloc_r+0x162>
200056aa:	f7ff f91b 	bl	200048e4 <memmove>
200056ae:	e7b2      	b.n	20005616 <_realloc_r+0x246>
200056b0:	4455      	add	r5, sl
200056b2:	f104 0110 	add.w	r1, r4, #16
200056b6:	44ac      	add	ip, r5
200056b8:	458c      	cmp	ip, r1
200056ba:	dbb5      	blt.n	20005628 <_realloc_r+0x258>
200056bc:	465d      	mov	r5, fp
200056be:	f8db 000c 	ldr.w	r0, [fp, #12]
200056c2:	f1aa 0204 	sub.w	r2, sl, #4
200056c6:	f855 1f08 	ldr.w	r1, [r5, #8]!
200056ca:	2a24      	cmp	r2, #36	; 0x24
200056cc:	6081      	str	r1, [r0, #8]
200056ce:	60c8      	str	r0, [r1, #12]
200056d0:	d84c      	bhi.n	2000576c <_realloc_r+0x39c>
200056d2:	2a13      	cmp	r2, #19
200056d4:	4628      	mov	r0, r5
200056d6:	d924      	bls.n	20005722 <_realloc_r+0x352>
200056d8:	4631      	mov	r1, r6
200056da:	f10b 0010 	add.w	r0, fp, #16
200056de:	f851 eb04 	ldr.w	lr, [r1], #4
200056e2:	f8cb e008 	str.w	lr, [fp, #8]
200056e6:	f8d6 e004 	ldr.w	lr, [r6, #4]
200056ea:	1d0e      	adds	r6, r1, #4
200056ec:	2a1b      	cmp	r2, #27
200056ee:	f8cb e00c 	str.w	lr, [fp, #12]
200056f2:	d916      	bls.n	20005722 <_realloc_r+0x352>
200056f4:	f8d1 e004 	ldr.w	lr, [r1, #4]
200056f8:	1d31      	adds	r1, r6, #4
200056fa:	f10b 0018 	add.w	r0, fp, #24
200056fe:	f8cb e010 	str.w	lr, [fp, #16]
20005702:	f8d6 e004 	ldr.w	lr, [r6, #4]
20005706:	1d0e      	adds	r6, r1, #4
20005708:	2a24      	cmp	r2, #36	; 0x24
2000570a:	f8cb e014 	str.w	lr, [fp, #20]
2000570e:	d108      	bne.n	20005722 <_realloc_r+0x352>
20005710:	684a      	ldr	r2, [r1, #4]
20005712:	f10b 0020 	add.w	r0, fp, #32
20005716:	f8cb 2018 	str.w	r2, [fp, #24]
2000571a:	6872      	ldr	r2, [r6, #4]
2000571c:	3608      	adds	r6, #8
2000571e:	f8cb 201c 	str.w	r2, [fp, #28]
20005722:	4631      	mov	r1, r6
20005724:	4602      	mov	r2, r0
20005726:	f851 eb04 	ldr.w	lr, [r1], #4
2000572a:	f842 eb04 	str.w	lr, [r2], #4
2000572e:	6876      	ldr	r6, [r6, #4]
20005730:	6046      	str	r6, [r0, #4]
20005732:	6849      	ldr	r1, [r1, #4]
20005734:	6051      	str	r1, [r2, #4]
20005736:	eb0b 0204 	add.w	r2, fp, r4
2000573a:	ebc4 010c 	rsb	r1, r4, ip
2000573e:	f041 0101 	orr.w	r1, r1, #1
20005742:	609a      	str	r2, [r3, #8]
20005744:	6051      	str	r1, [r2, #4]
20005746:	4638      	mov	r0, r7
20005748:	f8db 1004 	ldr.w	r1, [fp, #4]
2000574c:	f001 0301 	and.w	r3, r1, #1
20005750:	431c      	orrs	r4, r3
20005752:	f8cb 4004 	str.w	r4, [fp, #4]
20005756:	f7ff f98d 	bl	20004a74 <__malloc_unlock>
2000575a:	e6ea      	b.n	20005532 <_realloc_r+0x162>
2000575c:	6855      	ldr	r5, [r2, #4]
2000575e:	4640      	mov	r0, r8
20005760:	f108 0808 	add.w	r8, r8, #8
20005764:	f025 0503 	bic.w	r5, r5, #3
20005768:	4455      	add	r5, sl
2000576a:	e6cf      	b.n	2000550c <_realloc_r+0x13c>
2000576c:	4631      	mov	r1, r6
2000576e:	4628      	mov	r0, r5
20005770:	9300      	str	r3, [sp, #0]
20005772:	f8cd c004 	str.w	ip, [sp, #4]
20005776:	f7ff f8b5 	bl	200048e4 <memmove>
2000577a:	f8dd c004 	ldr.w	ip, [sp, #4]
2000577e:	9b00      	ldr	r3, [sp, #0]
20005780:	e7d9      	b.n	20005736 <_realloc_r+0x366>
20005782:	bf00      	nop

20005784 <__isinfd>:
20005784:	4602      	mov	r2, r0
20005786:	4240      	negs	r0, r0
20005788:	ea40 0302 	orr.w	r3, r0, r2
2000578c:	f021 4100 	bic.w	r1, r1, #2147483648	; 0x80000000
20005790:	ea41 73d3 	orr.w	r3, r1, r3, lsr #31
20005794:	f1c3 43fe 	rsb	r3, r3, #2130706432	; 0x7f000000
20005798:	f503 0370 	add.w	r3, r3, #15728640	; 0xf00000
2000579c:	4258      	negs	r0, r3
2000579e:	ea40 0303 	orr.w	r3, r0, r3
200057a2:	17d8      	asrs	r0, r3, #31
200057a4:	3001      	adds	r0, #1
200057a6:	4770      	bx	lr

200057a8 <__isnand>:
200057a8:	4602      	mov	r2, r0
200057aa:	4240      	negs	r0, r0
200057ac:	4310      	orrs	r0, r2
200057ae:	f021 4100 	bic.w	r1, r1, #2147483648	; 0x80000000
200057b2:	ea41 70d0 	orr.w	r0, r1, r0, lsr #31
200057b6:	f1c0 40fe 	rsb	r0, r0, #2130706432	; 0x7f000000
200057ba:	f500 0070 	add.w	r0, r0, #15728640	; 0xf00000
200057be:	0fc0      	lsrs	r0, r0, #31
200057c0:	4770      	bx	lr
200057c2:	bf00      	nop

200057c4 <_sbrk_r>:
200057c4:	b538      	push	{r3, r4, r5, lr}
200057c6:	f247 7470 	movw	r4, #30576	; 0x7770
200057ca:	f2c2 0400 	movt	r4, #8192	; 0x2000
200057ce:	4605      	mov	r5, r0
200057d0:	4608      	mov	r0, r1
200057d2:	2300      	movs	r3, #0
200057d4:	6023      	str	r3, [r4, #0]
200057d6:	f7fa ff5d 	bl	20000694 <_sbrk>
200057da:	f1b0 3fff 	cmp.w	r0, #4294967295
200057de:	d000      	beq.n	200057e2 <_sbrk_r+0x1e>
200057e0:	bd38      	pop	{r3, r4, r5, pc}
200057e2:	6823      	ldr	r3, [r4, #0]
200057e4:	2b00      	cmp	r3, #0
200057e6:	d0fb      	beq.n	200057e0 <_sbrk_r+0x1c>
200057e8:	602b      	str	r3, [r5, #0]
200057ea:	bd38      	pop	{r3, r4, r5, pc}

200057ec <__sclose>:
200057ec:	f9b1 100e 	ldrsh.w	r1, [r1, #14]
200057f0:	f000 b990 	b.w	20005b14 <_close_r>

200057f4 <__sseek>:
200057f4:	b510      	push	{r4, lr}
200057f6:	460c      	mov	r4, r1
200057f8:	f9b1 100e 	ldrsh.w	r1, [r1, #14]
200057fc:	f000 fa2e 	bl	20005c5c <_lseek_r>
20005800:	89a3      	ldrh	r3, [r4, #12]
20005802:	f1b0 3fff 	cmp.w	r0, #4294967295
20005806:	bf15      	itete	ne
20005808:	6560      	strne	r0, [r4, #84]	; 0x54
2000580a:	f423 5380 	biceq.w	r3, r3, #4096	; 0x1000
2000580e:	f443 5380 	orrne.w	r3, r3, #4096	; 0x1000
20005812:	81a3      	strheq	r3, [r4, #12]
20005814:	bf18      	it	ne
20005816:	81a3      	strhne	r3, [r4, #12]
20005818:	bd10      	pop	{r4, pc}
2000581a:	bf00      	nop

2000581c <__swrite>:
2000581c:	e92d 41f0 	stmdb	sp!, {r4, r5, r6, r7, r8, lr}
20005820:	461d      	mov	r5, r3
20005822:	898b      	ldrh	r3, [r1, #12]
20005824:	460c      	mov	r4, r1
20005826:	4616      	mov	r6, r2
20005828:	4607      	mov	r7, r0
2000582a:	f413 7f80 	tst.w	r3, #256	; 0x100
2000582e:	d006      	beq.n	2000583e <__swrite+0x22>
20005830:	2302      	movs	r3, #2
20005832:	f9b1 100e 	ldrsh.w	r1, [r1, #14]
20005836:	2200      	movs	r2, #0
20005838:	f000 fa10 	bl	20005c5c <_lseek_r>
2000583c:	89a3      	ldrh	r3, [r4, #12]
2000583e:	f423 5380 	bic.w	r3, r3, #4096	; 0x1000
20005842:	4638      	mov	r0, r7
20005844:	81a3      	strh	r3, [r4, #12]
20005846:	4632      	mov	r2, r6
20005848:	f9b4 100e 	ldrsh.w	r1, [r4, #14]
2000584c:	462b      	mov	r3, r5
2000584e:	e8bd 41f0 	ldmia.w	sp!, {r4, r5, r6, r7, r8, lr}
20005852:	f7fa befb 	b.w	2000064c <_write_r>
20005856:	bf00      	nop

20005858 <__sread>:
20005858:	b510      	push	{r4, lr}
2000585a:	460c      	mov	r4, r1
2000585c:	f9b1 100e 	ldrsh.w	r1, [r1, #14]
20005860:	f000 fa12 	bl	20005c88 <_read_r>
20005864:	2800      	cmp	r0, #0
20005866:	db03      	blt.n	20005870 <__sread+0x18>
20005868:	6d63      	ldr	r3, [r4, #84]	; 0x54
2000586a:	181b      	adds	r3, r3, r0
2000586c:	6563      	str	r3, [r4, #84]	; 0x54
2000586e:	bd10      	pop	{r4, pc}
20005870:	89a3      	ldrh	r3, [r4, #12]
20005872:	f423 5380 	bic.w	r3, r3, #4096	; 0x1000
20005876:	81a3      	strh	r3, [r4, #12]
20005878:	bd10      	pop	{r4, pc}
2000587a:	bf00      	nop

2000587c <strcmp>:
2000587c:	ea80 0201 	eor.w	r2, r0, r1
20005880:	f012 0f03 	tst.w	r2, #3
20005884:	d13a      	bne.n	200058fc <strcmp_unaligned>
20005886:	f010 0203 	ands.w	r2, r0, #3
2000588a:	f020 0003 	bic.w	r0, r0, #3
2000588e:	f021 0103 	bic.w	r1, r1, #3
20005892:	f850 cb04 	ldr.w	ip, [r0], #4
20005896:	bf08      	it	eq
20005898:	f851 3b04 	ldreq.w	r3, [r1], #4
2000589c:	d00d      	beq.n	200058ba <strcmp+0x3e>
2000589e:	f082 0203 	eor.w	r2, r2, #3
200058a2:	ea4f 02c2 	mov.w	r2, r2, lsl #3
200058a6:	f06f 437f 	mvn.w	r3, #4278190080	; 0xff000000
200058aa:	fa23 f202 	lsr.w	r2, r3, r2
200058ae:	f851 3b04 	ldr.w	r3, [r1], #4
200058b2:	ea4c 0c02 	orr.w	ip, ip, r2
200058b6:	ea43 0302 	orr.w	r3, r3, r2
200058ba:	bf00      	nop
200058bc:	f1ac 3201 	sub.w	r2, ip, #16843009	; 0x1010101
200058c0:	459c      	cmp	ip, r3
200058c2:	bf01      	itttt	eq
200058c4:	ea22 020c 	biceq.w	r2, r2, ip
200058c8:	f012 3f80 	tsteq.w	r2, #2155905152	; 0x80808080
200058cc:	f850 cb04 	ldreq.w	ip, [r0], #4
200058d0:	f851 3b04 	ldreq.w	r3, [r1], #4
200058d4:	d0f2      	beq.n	200058bc <strcmp+0x40>
200058d6:	ea4f 600c 	mov.w	r0, ip, lsl #24
200058da:	ea4f 2c1c 	mov.w	ip, ip, lsr #8
200058de:	2801      	cmp	r0, #1
200058e0:	bf28      	it	cs
200058e2:	ebb0 6f03 	cmpcs.w	r0, r3, lsl #24
200058e6:	bf08      	it	eq
200058e8:	0a1b      	lsreq	r3, r3, #8
200058ea:	d0f4      	beq.n	200058d6 <strcmp+0x5a>
200058ec:	f003 03ff 	and.w	r3, r3, #255	; 0xff
200058f0:	ea4f 6010 	mov.w	r0, r0, lsr #24
200058f4:	eba0 0003 	sub.w	r0, r0, r3
200058f8:	4770      	bx	lr
200058fa:	bf00      	nop

200058fc <strcmp_unaligned>:
200058fc:	f010 0f03 	tst.w	r0, #3
20005900:	d00a      	beq.n	20005918 <strcmp_unaligned+0x1c>
20005902:	f810 2b01 	ldrb.w	r2, [r0], #1
20005906:	f811 3b01 	ldrb.w	r3, [r1], #1
2000590a:	2a01      	cmp	r2, #1
2000590c:	bf28      	it	cs
2000590e:	429a      	cmpcs	r2, r3
20005910:	d0f4      	beq.n	200058fc <strcmp_unaligned>
20005912:	eba2 0003 	sub.w	r0, r2, r3
20005916:	4770      	bx	lr
20005918:	f84d 5d04 	str.w	r5, [sp, #-4]!
2000591c:	f84d 4d04 	str.w	r4, [sp, #-4]!
20005920:	f04f 0201 	mov.w	r2, #1
20005924:	ea42 2202 	orr.w	r2, r2, r2, lsl #8
20005928:	ea42 4202 	orr.w	r2, r2, r2, lsl #16
2000592c:	f001 0c03 	and.w	ip, r1, #3
20005930:	f021 0103 	bic.w	r1, r1, #3
20005934:	f850 4b04 	ldr.w	r4, [r0], #4
20005938:	f851 5b04 	ldr.w	r5, [r1], #4
2000593c:	f1bc 0f02 	cmp.w	ip, #2
20005940:	d026      	beq.n	20005990 <strcmp_unaligned+0x94>
20005942:	d84b      	bhi.n	200059dc <strcmp_unaligned+0xe0>
20005944:	f024 4c7f 	bic.w	ip, r4, #4278190080	; 0xff000000
20005948:	ebbc 2f15 	cmp.w	ip, r5, lsr #8
2000594c:	eba4 0302 	sub.w	r3, r4, r2
20005950:	ea23 0304 	bic.w	r3, r3, r4
20005954:	d10d      	bne.n	20005972 <strcmp_unaligned+0x76>
20005956:	ea13 13c2 	ands.w	r3, r3, r2, lsl #7
2000595a:	bf08      	it	eq
2000595c:	f851 5b04 	ldreq.w	r5, [r1], #4
20005960:	d10a      	bne.n	20005978 <strcmp_unaligned+0x7c>
20005962:	ea8c 0c04 	eor.w	ip, ip, r4
20005966:	ebbc 6f05 	cmp.w	ip, r5, lsl #24
2000596a:	d10c      	bne.n	20005986 <strcmp_unaligned+0x8a>
2000596c:	f850 4b04 	ldr.w	r4, [r0], #4
20005970:	e7e8      	b.n	20005944 <strcmp_unaligned+0x48>
20005972:	ea4f 2515 	mov.w	r5, r5, lsr #8
20005976:	e05c      	b.n	20005a32 <strcmp_unaligned+0x136>
20005978:	f033 437f 	bics.w	r3, r3, #4278190080	; 0xff000000
2000597c:	d152      	bne.n	20005a24 <strcmp_unaligned+0x128>
2000597e:	780d      	ldrb	r5, [r1, #0]
20005980:	ea4f 6c14 	mov.w	ip, r4, lsr #24
20005984:	e055      	b.n	20005a32 <strcmp_unaligned+0x136>
20005986:	ea4f 6c14 	mov.w	ip, r4, lsr #24
2000598a:	f005 05ff 	and.w	r5, r5, #255	; 0xff
2000598e:	e050      	b.n	20005a32 <strcmp_unaligned+0x136>
20005990:	ea4f 4c04 	mov.w	ip, r4, lsl #16
20005994:	eba4 0302 	sub.w	r3, r4, r2
20005998:	ea4f 4c1c 	mov.w	ip, ip, lsr #16
2000599c:	ea23 0304 	bic.w	r3, r3, r4
200059a0:	ebbc 4f15 	cmp.w	ip, r5, lsr #16
200059a4:	d117      	bne.n	200059d6 <strcmp_unaligned+0xda>
200059a6:	ea13 13c2 	ands.w	r3, r3, r2, lsl #7
200059aa:	bf08      	it	eq
200059ac:	f851 5b04 	ldreq.w	r5, [r1], #4
200059b0:	d107      	bne.n	200059c2 <strcmp_unaligned+0xc6>
200059b2:	ea8c 0c04 	eor.w	ip, ip, r4
200059b6:	ebbc 4f05 	cmp.w	ip, r5, lsl #16
200059ba:	d108      	bne.n	200059ce <strcmp_unaligned+0xd2>
200059bc:	f850 4b04 	ldr.w	r4, [r0], #4
200059c0:	e7e6      	b.n	20005990 <strcmp_unaligned+0x94>
200059c2:	041b      	lsls	r3, r3, #16
200059c4:	d12e      	bne.n	20005a24 <strcmp_unaligned+0x128>
200059c6:	880d      	ldrh	r5, [r1, #0]
200059c8:	ea4f 4c14 	mov.w	ip, r4, lsr #16
200059cc:	e031      	b.n	20005a32 <strcmp_unaligned+0x136>
200059ce:	ea4f 4505 	mov.w	r5, r5, lsl #16
200059d2:	ea4f 4c14 	mov.w	ip, r4, lsr #16
200059d6:	ea4f 4515 	mov.w	r5, r5, lsr #16
200059da:	e02a      	b.n	20005a32 <strcmp_unaligned+0x136>
200059dc:	f004 0cff 	and.w	ip, r4, #255	; 0xff
200059e0:	ebbc 6f15 	cmp.w	ip, r5, lsr #24
200059e4:	eba4 0302 	sub.w	r3, r4, r2
200059e8:	ea23 0304 	bic.w	r3, r3, r4
200059ec:	d10d      	bne.n	20005a0a <strcmp_unaligned+0x10e>
200059ee:	ea13 13c2 	ands.w	r3, r3, r2, lsl #7
200059f2:	bf08      	it	eq
200059f4:	f851 5b04 	ldreq.w	r5, [r1], #4
200059f8:	d10a      	bne.n	20005a10 <strcmp_unaligned+0x114>
200059fa:	ea8c 0c04 	eor.w	ip, ip, r4
200059fe:	ebbc 2f05 	cmp.w	ip, r5, lsl #8
20005a02:	d10a      	bne.n	20005a1a <strcmp_unaligned+0x11e>
20005a04:	f850 4b04 	ldr.w	r4, [r0], #4
20005a08:	e7e8      	b.n	200059dc <strcmp_unaligned+0xe0>
20005a0a:	ea4f 6515 	mov.w	r5, r5, lsr #24
20005a0e:	e010      	b.n	20005a32 <strcmp_unaligned+0x136>
20005a10:	f014 0fff 	tst.w	r4, #255	; 0xff
20005a14:	d006      	beq.n	20005a24 <strcmp_unaligned+0x128>
20005a16:	f851 5b04 	ldr.w	r5, [r1], #4
20005a1a:	ea4f 2c14 	mov.w	ip, r4, lsr #8
20005a1e:	f025 457f 	bic.w	r5, r5, #4278190080	; 0xff000000
20005a22:	e006      	b.n	20005a32 <strcmp_unaligned+0x136>
20005a24:	f04f 0000 	mov.w	r0, #0
20005a28:	f85d 4b04 	ldr.w	r4, [sp], #4
20005a2c:	f85d 5b04 	ldr.w	r5, [sp], #4
20005a30:	4770      	bx	lr
20005a32:	f00c 02ff 	and.w	r2, ip, #255	; 0xff
20005a36:	f005 00ff 	and.w	r0, r5, #255	; 0xff
20005a3a:	2801      	cmp	r0, #1
20005a3c:	bf28      	it	cs
20005a3e:	4290      	cmpcs	r0, r2
20005a40:	bf04      	itt	eq
20005a42:	ea4f 2c1c 	moveq.w	ip, ip, lsr #8
20005a46:	0a2d      	lsreq	r5, r5, #8
20005a48:	d0f3      	beq.n	20005a32 <strcmp_unaligned+0x136>
20005a4a:	eba2 0000 	sub.w	r0, r2, r0
20005a4e:	f85d 4b04 	ldr.w	r4, [sp], #4
20005a52:	f85d 5b04 	ldr.w	r5, [sp], #4
20005a56:	4770      	bx	lr

20005a58 <strlen>:
20005a58:	f020 0103 	bic.w	r1, r0, #3
20005a5c:	f010 0003 	ands.w	r0, r0, #3
20005a60:	f1c0 0000 	rsb	r0, r0, #0
20005a64:	f851 3b04 	ldr.w	r3, [r1], #4
20005a68:	f100 0c04 	add.w	ip, r0, #4
20005a6c:	ea4f 0ccc 	mov.w	ip, ip, lsl #3
20005a70:	f06f 0200 	mvn.w	r2, #0
20005a74:	bf1c      	itt	ne
20005a76:	fa22 f20c 	lsrne.w	r2, r2, ip
20005a7a:	4313      	orrne	r3, r2
20005a7c:	f04f 0c01 	mov.w	ip, #1
20005a80:	ea4c 2c0c 	orr.w	ip, ip, ip, lsl #8
20005a84:	ea4c 4c0c 	orr.w	ip, ip, ip, lsl #16
20005a88:	eba3 020c 	sub.w	r2, r3, ip
20005a8c:	ea22 0203 	bic.w	r2, r2, r3
20005a90:	ea12 12cc 	ands.w	r2, r2, ip, lsl #7
20005a94:	bf04      	itt	eq
20005a96:	f851 3b04 	ldreq.w	r3, [r1], #4
20005a9a:	3004      	addeq	r0, #4
20005a9c:	d0f4      	beq.n	20005a88 <strlen+0x30>
20005a9e:	f013 0fff 	tst.w	r3, #255	; 0xff
20005aa2:	bf1f      	itttt	ne
20005aa4:	3001      	addne	r0, #1
20005aa6:	f413 4f7f 	tstne.w	r3, #65280	; 0xff00
20005aaa:	3001      	addne	r0, #1
20005aac:	f413 0f7f 	tstne.w	r3, #16711680	; 0xff0000
20005ab0:	bf18      	it	ne
20005ab2:	3001      	addne	r0, #1
20005ab4:	4770      	bx	lr
20005ab6:	bf00      	nop

20005ab8 <_calloc_r>:
20005ab8:	b538      	push	{r3, r4, r5, lr}
20005aba:	fb01 f102 	mul.w	r1, r1, r2
20005abe:	f7fe fb3d 	bl	2000413c <_malloc_r>
20005ac2:	4604      	mov	r4, r0
20005ac4:	b1f8      	cbz	r0, 20005b06 <_calloc_r+0x4e>
20005ac6:	f850 2c04 	ldr.w	r2, [r0, #-4]
20005aca:	f022 0203 	bic.w	r2, r2, #3
20005ace:	3a04      	subs	r2, #4
20005ad0:	2a24      	cmp	r2, #36	; 0x24
20005ad2:	d81a      	bhi.n	20005b0a <_calloc_r+0x52>
20005ad4:	2a13      	cmp	r2, #19
20005ad6:	4603      	mov	r3, r0
20005ad8:	d90f      	bls.n	20005afa <_calloc_r+0x42>
20005ada:	2100      	movs	r1, #0
20005adc:	f840 1b04 	str.w	r1, [r0], #4
20005ae0:	1d03      	adds	r3, r0, #4
20005ae2:	2a1b      	cmp	r2, #27
20005ae4:	6061      	str	r1, [r4, #4]
20005ae6:	d908      	bls.n	20005afa <_calloc_r+0x42>
20005ae8:	1d1d      	adds	r5, r3, #4
20005aea:	6041      	str	r1, [r0, #4]
20005aec:	6059      	str	r1, [r3, #4]
20005aee:	1d2b      	adds	r3, r5, #4
20005af0:	2a24      	cmp	r2, #36	; 0x24
20005af2:	bf02      	ittt	eq
20005af4:	6069      	streq	r1, [r5, #4]
20005af6:	6059      	streq	r1, [r3, #4]
20005af8:	3308      	addeq	r3, #8
20005afa:	461a      	mov	r2, r3
20005afc:	2100      	movs	r1, #0
20005afe:	f842 1b04 	str.w	r1, [r2], #4
20005b02:	6059      	str	r1, [r3, #4]
20005b04:	6051      	str	r1, [r2, #4]
20005b06:	4620      	mov	r0, r4
20005b08:	bd38      	pop	{r3, r4, r5, pc}
20005b0a:	2100      	movs	r1, #0
20005b0c:	f7fe ff46 	bl	2000499c <memset>
20005b10:	4620      	mov	r0, r4
20005b12:	bd38      	pop	{r3, r4, r5, pc}

20005b14 <_close_r>:
20005b14:	b538      	push	{r3, r4, r5, lr}
20005b16:	f247 7470 	movw	r4, #30576	; 0x7770
20005b1a:	f2c2 0400 	movt	r4, #8192	; 0x2000
20005b1e:	4605      	mov	r5, r0
20005b20:	4608      	mov	r0, r1
20005b22:	2300      	movs	r3, #0
20005b24:	6023      	str	r3, [r4, #0]
20005b26:	f7fa fd79 	bl	2000061c <_close>
20005b2a:	f1b0 3fff 	cmp.w	r0, #4294967295
20005b2e:	d000      	beq.n	20005b32 <_close_r+0x1e>
20005b30:	bd38      	pop	{r3, r4, r5, pc}
20005b32:	6823      	ldr	r3, [r4, #0]
20005b34:	2b00      	cmp	r3, #0
20005b36:	d0fb      	beq.n	20005b30 <_close_r+0x1c>
20005b38:	602b      	str	r3, [r5, #0]
20005b3a:	bd38      	pop	{r3, r4, r5, pc}

20005b3c <_fclose_r>:
20005b3c:	b570      	push	{r4, r5, r6, lr}
20005b3e:	4605      	mov	r5, r0
20005b40:	460c      	mov	r4, r1
20005b42:	2900      	cmp	r1, #0
20005b44:	d04b      	beq.n	20005bde <_fclose_r+0xa2>
20005b46:	f7fd fe3f 	bl	200037c8 <__sfp_lock_acquire>
20005b4a:	b115      	cbz	r5, 20005b52 <_fclose_r+0x16>
20005b4c:	69ab      	ldr	r3, [r5, #24]
20005b4e:	2b00      	cmp	r3, #0
20005b50:	d048      	beq.n	20005be4 <_fclose_r+0xa8>
20005b52:	f646 73cc 	movw	r3, #28620	; 0x6fcc
20005b56:	f2c2 0300 	movt	r3, #8192	; 0x2000
20005b5a:	429c      	cmp	r4, r3
20005b5c:	bf08      	it	eq
20005b5e:	686c      	ldreq	r4, [r5, #4]
20005b60:	d00e      	beq.n	20005b80 <_fclose_r+0x44>
20005b62:	f646 73ec 	movw	r3, #28652	; 0x6fec
20005b66:	f2c2 0300 	movt	r3, #8192	; 0x2000
20005b6a:	429c      	cmp	r4, r3
20005b6c:	bf08      	it	eq
20005b6e:	68ac      	ldreq	r4, [r5, #8]
20005b70:	d006      	beq.n	20005b80 <_fclose_r+0x44>
20005b72:	f247 030c 	movw	r3, #28684	; 0x700c
20005b76:	f2c2 0300 	movt	r3, #8192	; 0x2000
20005b7a:	429c      	cmp	r4, r3
20005b7c:	bf08      	it	eq
20005b7e:	68ec      	ldreq	r4, [r5, #12]
20005b80:	f9b4 600c 	ldrsh.w	r6, [r4, #12]
20005b84:	b33e      	cbz	r6, 20005bd6 <_fclose_r+0x9a>
20005b86:	4628      	mov	r0, r5
20005b88:	4621      	mov	r1, r4
20005b8a:	f7fd fd61 	bl	20003650 <_fflush_r>
20005b8e:	6b23      	ldr	r3, [r4, #48]	; 0x30
20005b90:	4606      	mov	r6, r0
20005b92:	b13b      	cbz	r3, 20005ba4 <_fclose_r+0x68>
20005b94:	4628      	mov	r0, r5
20005b96:	6a21      	ldr	r1, [r4, #32]
20005b98:	4798      	blx	r3
20005b9a:	ea36 0620 	bics.w	r6, r6, r0, asr #32
20005b9e:	bf28      	it	cs
20005ba0:	f04f 36ff 	movcs.w	r6, #4294967295
20005ba4:	89a3      	ldrh	r3, [r4, #12]
20005ba6:	f013 0f80 	tst.w	r3, #128	; 0x80
20005baa:	d11f      	bne.n	20005bec <_fclose_r+0xb0>
20005bac:	6b61      	ldr	r1, [r4, #52]	; 0x34
20005bae:	b141      	cbz	r1, 20005bc2 <_fclose_r+0x86>
20005bb0:	f104 0344 	add.w	r3, r4, #68	; 0x44
20005bb4:	4299      	cmp	r1, r3
20005bb6:	d002      	beq.n	20005bbe <_fclose_r+0x82>
20005bb8:	4628      	mov	r0, r5
20005bba:	f7fd ff3d 	bl	20003a38 <_free_r>
20005bbe:	2300      	movs	r3, #0
20005bc0:	6363      	str	r3, [r4, #52]	; 0x34
20005bc2:	6ca1      	ldr	r1, [r4, #72]	; 0x48
20005bc4:	b121      	cbz	r1, 20005bd0 <_fclose_r+0x94>
20005bc6:	4628      	mov	r0, r5
20005bc8:	f7fd ff36 	bl	20003a38 <_free_r>
20005bcc:	2300      	movs	r3, #0
20005bce:	64a3      	str	r3, [r4, #72]	; 0x48
20005bd0:	f04f 0300 	mov.w	r3, #0
20005bd4:	81a3      	strh	r3, [r4, #12]
20005bd6:	f7fd fdf9 	bl	200037cc <__sfp_lock_release>
20005bda:	4630      	mov	r0, r6
20005bdc:	bd70      	pop	{r4, r5, r6, pc}
20005bde:	460e      	mov	r6, r1
20005be0:	4630      	mov	r0, r6
20005be2:	bd70      	pop	{r4, r5, r6, pc}
20005be4:	4628      	mov	r0, r5
20005be6:	f7fd fea3 	bl	20003930 <__sinit>
20005bea:	e7b2      	b.n	20005b52 <_fclose_r+0x16>
20005bec:	4628      	mov	r0, r5
20005bee:	6921      	ldr	r1, [r4, #16]
20005bf0:	f7fd ff22 	bl	20003a38 <_free_r>
20005bf4:	e7da      	b.n	20005bac <_fclose_r+0x70>
20005bf6:	bf00      	nop

20005bf8 <fclose>:
20005bf8:	f247 13dc 	movw	r3, #29148	; 0x71dc
20005bfc:	4601      	mov	r1, r0
20005bfe:	f2c2 0300 	movt	r3, #8192	; 0x2000
20005c02:	6818      	ldr	r0, [r3, #0]
20005c04:	e79a      	b.n	20005b3c <_fclose_r>
20005c06:	bf00      	nop

20005c08 <_fstat_r>:
20005c08:	b538      	push	{r3, r4, r5, lr}
20005c0a:	f247 7470 	movw	r4, #30576	; 0x7770
20005c0e:	f2c2 0400 	movt	r4, #8192	; 0x2000
20005c12:	4605      	mov	r5, r0
20005c14:	4608      	mov	r0, r1
20005c16:	4611      	mov	r1, r2
20005c18:	2300      	movs	r3, #0
20005c1a:	6023      	str	r3, [r4, #0]
20005c1c:	f7fa fd04 	bl	20000628 <_fstat>
20005c20:	f1b0 3fff 	cmp.w	r0, #4294967295
20005c24:	d000      	beq.n	20005c28 <_fstat_r+0x20>
20005c26:	bd38      	pop	{r3, r4, r5, pc}
20005c28:	6823      	ldr	r3, [r4, #0]
20005c2a:	2b00      	cmp	r3, #0
20005c2c:	d0fb      	beq.n	20005c26 <_fstat_r+0x1e>
20005c2e:	602b      	str	r3, [r5, #0]
20005c30:	bd38      	pop	{r3, r4, r5, pc}
20005c32:	bf00      	nop

20005c34 <_isatty_r>:
20005c34:	b538      	push	{r3, r4, r5, lr}
20005c36:	f247 7470 	movw	r4, #30576	; 0x7770
20005c3a:	f2c2 0400 	movt	r4, #8192	; 0x2000
20005c3e:	4605      	mov	r5, r0
20005c40:	4608      	mov	r0, r1
20005c42:	2300      	movs	r3, #0
20005c44:	6023      	str	r3, [r4, #0]
20005c46:	f7fa fcf5 	bl	20000634 <_isatty>
20005c4a:	f1b0 3fff 	cmp.w	r0, #4294967295
20005c4e:	d000      	beq.n	20005c52 <_isatty_r+0x1e>
20005c50:	bd38      	pop	{r3, r4, r5, pc}
20005c52:	6823      	ldr	r3, [r4, #0]
20005c54:	2b00      	cmp	r3, #0
20005c56:	d0fb      	beq.n	20005c50 <_isatty_r+0x1c>
20005c58:	602b      	str	r3, [r5, #0]
20005c5a:	bd38      	pop	{r3, r4, r5, pc}

20005c5c <_lseek_r>:
20005c5c:	b538      	push	{r3, r4, r5, lr}
20005c5e:	f247 7470 	movw	r4, #30576	; 0x7770
20005c62:	f2c2 0400 	movt	r4, #8192	; 0x2000
20005c66:	4605      	mov	r5, r0
20005c68:	4608      	mov	r0, r1
20005c6a:	4611      	mov	r1, r2
20005c6c:	461a      	mov	r2, r3
20005c6e:	2300      	movs	r3, #0
20005c70:	6023      	str	r3, [r4, #0]
20005c72:	f7fa fce3 	bl	2000063c <_lseek>
20005c76:	f1b0 3fff 	cmp.w	r0, #4294967295
20005c7a:	d000      	beq.n	20005c7e <_lseek_r+0x22>
20005c7c:	bd38      	pop	{r3, r4, r5, pc}
20005c7e:	6823      	ldr	r3, [r4, #0]
20005c80:	2b00      	cmp	r3, #0
20005c82:	d0fb      	beq.n	20005c7c <_lseek_r+0x20>
20005c84:	602b      	str	r3, [r5, #0]
20005c86:	bd38      	pop	{r3, r4, r5, pc}

20005c88 <_read_r>:
20005c88:	b538      	push	{r3, r4, r5, lr}
20005c8a:	f247 7470 	movw	r4, #30576	; 0x7770
20005c8e:	f2c2 0400 	movt	r4, #8192	; 0x2000
20005c92:	4605      	mov	r5, r0
20005c94:	4608      	mov	r0, r1
20005c96:	4611      	mov	r1, r2
20005c98:	461a      	mov	r2, r3
20005c9a:	2300      	movs	r3, #0
20005c9c:	6023      	str	r3, [r4, #0]
20005c9e:	f7fa fcd1 	bl	20000644 <_read>
20005ca2:	f1b0 3fff 	cmp.w	r0, #4294967295
20005ca6:	d000      	beq.n	20005caa <_read_r+0x22>
20005ca8:	bd38      	pop	{r3, r4, r5, pc}
20005caa:	6823      	ldr	r3, [r4, #0]
20005cac:	2b00      	cmp	r3, #0
20005cae:	d0fb      	beq.n	20005ca8 <_read_r+0x20>
20005cb0:	602b      	str	r3, [r5, #0]
20005cb2:	bd38      	pop	{r3, r4, r5, pc}
20005cb4:	0000      	lsls	r0, r0, #0
	...

20005cb8 <__aeabi_uidiv>:
20005cb8:	1e4a      	subs	r2, r1, #1
20005cba:	bf08      	it	eq
20005cbc:	4770      	bxeq	lr
20005cbe:	f0c0 8124 	bcc.w	20005f0a <__aeabi_uidiv+0x252>
20005cc2:	4288      	cmp	r0, r1
20005cc4:	f240 8116 	bls.w	20005ef4 <__aeabi_uidiv+0x23c>
20005cc8:	4211      	tst	r1, r2
20005cca:	f000 8117 	beq.w	20005efc <__aeabi_uidiv+0x244>
20005cce:	fab0 f380 	clz	r3, r0
20005cd2:	fab1 f281 	clz	r2, r1
20005cd6:	eba2 0303 	sub.w	r3, r2, r3
20005cda:	f1c3 031f 	rsb	r3, r3, #31
20005cde:	a204      	add	r2, pc, #16	; (adr r2, 20005cf0 <__aeabi_uidiv+0x38>)
20005ce0:	eb02 1303 	add.w	r3, r2, r3, lsl #4
20005ce4:	f04f 0200 	mov.w	r2, #0
20005ce8:	469f      	mov	pc, r3
20005cea:	bf00      	nop
20005cec:	f3af 8000 	nop.w
20005cf0:	ebb0 7fc1 	cmp.w	r0, r1, lsl #31
20005cf4:	bf00      	nop
20005cf6:	eb42 0202 	adc.w	r2, r2, r2
20005cfa:	bf28      	it	cs
20005cfc:	eba0 70c1 	subcs.w	r0, r0, r1, lsl #31
20005d00:	ebb0 7f81 	cmp.w	r0, r1, lsl #30
20005d04:	bf00      	nop
20005d06:	eb42 0202 	adc.w	r2, r2, r2
20005d0a:	bf28      	it	cs
20005d0c:	eba0 7081 	subcs.w	r0, r0, r1, lsl #30
20005d10:	ebb0 7f41 	cmp.w	r0, r1, lsl #29
20005d14:	bf00      	nop
20005d16:	eb42 0202 	adc.w	r2, r2, r2
20005d1a:	bf28      	it	cs
20005d1c:	eba0 7041 	subcs.w	r0, r0, r1, lsl #29
20005d20:	ebb0 7f01 	cmp.w	r0, r1, lsl #28
20005d24:	bf00      	nop
20005d26:	eb42 0202 	adc.w	r2, r2, r2
20005d2a:	bf28      	it	cs
20005d2c:	eba0 7001 	subcs.w	r0, r0, r1, lsl #28
20005d30:	ebb0 6fc1 	cmp.w	r0, r1, lsl #27
20005d34:	bf00      	nop
20005d36:	eb42 0202 	adc.w	r2, r2, r2
20005d3a:	bf28      	it	cs
20005d3c:	eba0 60c1 	subcs.w	r0, r0, r1, lsl #27
20005d40:	ebb0 6f81 	cmp.w	r0, r1, lsl #26
20005d44:	bf00      	nop
20005d46:	eb42 0202 	adc.w	r2, r2, r2
20005d4a:	bf28      	it	cs
20005d4c:	eba0 6081 	subcs.w	r0, r0, r1, lsl #26
20005d50:	ebb0 6f41 	cmp.w	r0, r1, lsl #25
20005d54:	bf00      	nop
20005d56:	eb42 0202 	adc.w	r2, r2, r2
20005d5a:	bf28      	it	cs
20005d5c:	eba0 6041 	subcs.w	r0, r0, r1, lsl #25
20005d60:	ebb0 6f01 	cmp.w	r0, r1, lsl #24
20005d64:	bf00      	nop
20005d66:	eb42 0202 	adc.w	r2, r2, r2
20005d6a:	bf28      	it	cs
20005d6c:	eba0 6001 	subcs.w	r0, r0, r1, lsl #24
20005d70:	ebb0 5fc1 	cmp.w	r0, r1, lsl #23
20005d74:	bf00      	nop
20005d76:	eb42 0202 	adc.w	r2, r2, r2
20005d7a:	bf28      	it	cs
20005d7c:	eba0 50c1 	subcs.w	r0, r0, r1, lsl #23
20005d80:	ebb0 5f81 	cmp.w	r0, r1, lsl #22
20005d84:	bf00      	nop
20005d86:	eb42 0202 	adc.w	r2, r2, r2
20005d8a:	bf28      	it	cs
20005d8c:	eba0 5081 	subcs.w	r0, r0, r1, lsl #22
20005d90:	ebb0 5f41 	cmp.w	r0, r1, lsl #21
20005d94:	bf00      	nop
20005d96:	eb42 0202 	adc.w	r2, r2, r2
20005d9a:	bf28      	it	cs
20005d9c:	eba0 5041 	subcs.w	r0, r0, r1, lsl #21
20005da0:	ebb0 5f01 	cmp.w	r0, r1, lsl #20
20005da4:	bf00      	nop
20005da6:	eb42 0202 	adc.w	r2, r2, r2
20005daa:	bf28      	it	cs
20005dac:	eba0 5001 	subcs.w	r0, r0, r1, lsl #20
20005db0:	ebb0 4fc1 	cmp.w	r0, r1, lsl #19
20005db4:	bf00      	nop
20005db6:	eb42 0202 	adc.w	r2, r2, r2
20005dba:	bf28      	it	cs
20005dbc:	eba0 40c1 	subcs.w	r0, r0, r1, lsl #19
20005dc0:	ebb0 4f81 	cmp.w	r0, r1, lsl #18
20005dc4:	bf00      	nop
20005dc6:	eb42 0202 	adc.w	r2, r2, r2
20005dca:	bf28      	it	cs
20005dcc:	eba0 4081 	subcs.w	r0, r0, r1, lsl #18
20005dd0:	ebb0 4f41 	cmp.w	r0, r1, lsl #17
20005dd4:	bf00      	nop
20005dd6:	eb42 0202 	adc.w	r2, r2, r2
20005dda:	bf28      	it	cs
20005ddc:	eba0 4041 	subcs.w	r0, r0, r1, lsl #17
20005de0:	ebb0 4f01 	cmp.w	r0, r1, lsl #16
20005de4:	bf00      	nop
20005de6:	eb42 0202 	adc.w	r2, r2, r2
20005dea:	bf28      	it	cs
20005dec:	eba0 4001 	subcs.w	r0, r0, r1, lsl #16
20005df0:	ebb0 3fc1 	cmp.w	r0, r1, lsl #15
20005df4:	bf00      	nop
20005df6:	eb42 0202 	adc.w	r2, r2, r2
20005dfa:	bf28      	it	cs
20005dfc:	eba0 30c1 	subcs.w	r0, r0, r1, lsl #15
20005e00:	ebb0 3f81 	cmp.w	r0, r1, lsl #14
20005e04:	bf00      	nop
20005e06:	eb42 0202 	adc.w	r2, r2, r2
20005e0a:	bf28      	it	cs
20005e0c:	eba0 3081 	subcs.w	r0, r0, r1, lsl #14
20005e10:	ebb0 3f41 	cmp.w	r0, r1, lsl #13
20005e14:	bf00      	nop
20005e16:	eb42 0202 	adc.w	r2, r2, r2
20005e1a:	bf28      	it	cs
20005e1c:	eba0 3041 	subcs.w	r0, r0, r1, lsl #13
20005e20:	ebb0 3f01 	cmp.w	r0, r1, lsl #12
20005e24:	bf00      	nop
20005e26:	eb42 0202 	adc.w	r2, r2, r2
20005e2a:	bf28      	it	cs
20005e2c:	eba0 3001 	subcs.w	r0, r0, r1, lsl #12
20005e30:	ebb0 2fc1 	cmp.w	r0, r1, lsl #11
20005e34:	bf00      	nop
20005e36:	eb42 0202 	adc.w	r2, r2, r2
20005e3a:	bf28      	it	cs
20005e3c:	eba0 20c1 	subcs.w	r0, r0, r1, lsl #11
20005e40:	ebb0 2f81 	cmp.w	r0, r1, lsl #10
20005e44:	bf00      	nop
20005e46:	eb42 0202 	adc.w	r2, r2, r2
20005e4a:	bf28      	it	cs
20005e4c:	eba0 2081 	subcs.w	r0, r0, r1, lsl #10
20005e50:	ebb0 2f41 	cmp.w	r0, r1, lsl #9
20005e54:	bf00      	nop
20005e56:	eb42 0202 	adc.w	r2, r2, r2
20005e5a:	bf28      	it	cs
20005e5c:	eba0 2041 	subcs.w	r0, r0, r1, lsl #9
20005e60:	ebb0 2f01 	cmp.w	r0, r1, lsl #8
20005e64:	bf00      	nop
20005e66:	eb42 0202 	adc.w	r2, r2, r2
20005e6a:	bf28      	it	cs
20005e6c:	eba0 2001 	subcs.w	r0, r0, r1, lsl #8
20005e70:	ebb0 1fc1 	cmp.w	r0, r1, lsl #7
20005e74:	bf00      	nop
20005e76:	eb42 0202 	adc.w	r2, r2, r2
20005e7a:	bf28      	it	cs
20005e7c:	eba0 10c1 	subcs.w	r0, r0, r1, lsl #7
20005e80:	ebb0 1f81 	cmp.w	r0, r1, lsl #6
20005e84:	bf00      	nop
20005e86:	eb42 0202 	adc.w	r2, r2, r2
20005e8a:	bf28      	it	cs
20005e8c:	eba0 1081 	subcs.w	r0, r0, r1, lsl #6
20005e90:	ebb0 1f41 	cmp.w	r0, r1, lsl #5
20005e94:	bf00      	nop
20005e96:	eb42 0202 	adc.w	r2, r2, r2
20005e9a:	bf28      	it	cs
20005e9c:	eba0 1041 	subcs.w	r0, r0, r1, lsl #5
20005ea0:	ebb0 1f01 	cmp.w	r0, r1, lsl #4
20005ea4:	bf00      	nop
20005ea6:	eb42 0202 	adc.w	r2, r2, r2
20005eaa:	bf28      	it	cs
20005eac:	eba0 1001 	subcs.w	r0, r0, r1, lsl #4
20005eb0:	ebb0 0fc1 	cmp.w	r0, r1, lsl #3
20005eb4:	bf00      	nop
20005eb6:	eb42 0202 	adc.w	r2, r2, r2
20005eba:	bf28      	it	cs
20005ebc:	eba0 00c1 	subcs.w	r0, r0, r1, lsl #3
20005ec0:	ebb0 0f81 	cmp.w	r0, r1, lsl #2
20005ec4:	bf00      	nop
20005ec6:	eb42 0202 	adc.w	r2, r2, r2
20005eca:	bf28      	it	cs
20005ecc:	eba0 0081 	subcs.w	r0, r0, r1, lsl #2
20005ed0:	ebb0 0f41 	cmp.w	r0, r1, lsl #1
20005ed4:	bf00      	nop
20005ed6:	eb42 0202 	adc.w	r2, r2, r2
20005eda:	bf28      	it	cs
20005edc:	eba0 0041 	subcs.w	r0, r0, r1, lsl #1
20005ee0:	ebb0 0f01 	cmp.w	r0, r1
20005ee4:	bf00      	nop
20005ee6:	eb42 0202 	adc.w	r2, r2, r2
20005eea:	bf28      	it	cs
20005eec:	eba0 0001 	subcs.w	r0, r0, r1
20005ef0:	4610      	mov	r0, r2
20005ef2:	4770      	bx	lr
20005ef4:	bf0c      	ite	eq
20005ef6:	2001      	moveq	r0, #1
20005ef8:	2000      	movne	r0, #0
20005efa:	4770      	bx	lr
20005efc:	fab1 f281 	clz	r2, r1
20005f00:	f1c2 021f 	rsb	r2, r2, #31
20005f04:	fa20 f002 	lsr.w	r0, r0, r2
20005f08:	4770      	bx	lr
20005f0a:	b108      	cbz	r0, 20005f10 <__aeabi_uidiv+0x258>
20005f0c:	f04f 30ff 	mov.w	r0, #4294967295
20005f10:	f000 b80e 	b.w	20005f30 <__aeabi_idiv0>

20005f14 <__aeabi_uidivmod>:
20005f14:	2900      	cmp	r1, #0
20005f16:	d0f8      	beq.n	20005f0a <__aeabi_uidiv+0x252>
20005f18:	e92d 4003 	stmdb	sp!, {r0, r1, lr}
20005f1c:	f7ff fecc 	bl	20005cb8 <__aeabi_uidiv>
20005f20:	e8bd 4006 	ldmia.w	sp!, {r1, r2, lr}
20005f24:	fb02 f300 	mul.w	r3, r2, r0
20005f28:	eba1 0103 	sub.w	r1, r1, r3
20005f2c:	4770      	bx	lr
20005f2e:	bf00      	nop

20005f30 <__aeabi_idiv0>:
20005f30:	4770      	bx	lr
20005f32:	bf00      	nop

20005f34 <__aeabi_drsub>:
20005f34:	f081 4100 	eor.w	r1, r1, #2147483648	; 0x80000000
20005f38:	e002      	b.n	20005f40 <__adddf3>
20005f3a:	bf00      	nop

20005f3c <__aeabi_dsub>:
20005f3c:	f083 4300 	eor.w	r3, r3, #2147483648	; 0x80000000

20005f40 <__adddf3>:
20005f40:	b530      	push	{r4, r5, lr}
20005f42:	ea4f 0441 	mov.w	r4, r1, lsl #1
20005f46:	ea4f 0543 	mov.w	r5, r3, lsl #1
20005f4a:	ea94 0f05 	teq	r4, r5
20005f4e:	bf08      	it	eq
20005f50:	ea90 0f02 	teqeq	r0, r2
20005f54:	bf1f      	itttt	ne
20005f56:	ea54 0c00 	orrsne.w	ip, r4, r0
20005f5a:	ea55 0c02 	orrsne.w	ip, r5, r2
20005f5e:	ea7f 5c64 	mvnsne.w	ip, r4, asr #21
20005f62:	ea7f 5c65 	mvnsne.w	ip, r5, asr #21
20005f66:	f000 80e2 	beq.w	2000612e <__adddf3+0x1ee>
20005f6a:	ea4f 5454 	mov.w	r4, r4, lsr #21
20005f6e:	ebd4 5555 	rsbs	r5, r4, r5, lsr #21
20005f72:	bfb8      	it	lt
20005f74:	426d      	neglt	r5, r5
20005f76:	dd0c      	ble.n	20005f92 <__adddf3+0x52>
20005f78:	442c      	add	r4, r5
20005f7a:	ea80 0202 	eor.w	r2, r0, r2
20005f7e:	ea81 0303 	eor.w	r3, r1, r3
20005f82:	ea82 0000 	eor.w	r0, r2, r0
20005f86:	ea83 0101 	eor.w	r1, r3, r1
20005f8a:	ea80 0202 	eor.w	r2, r0, r2
20005f8e:	ea81 0303 	eor.w	r3, r1, r3
20005f92:	2d36      	cmp	r5, #54	; 0x36
20005f94:	bf88      	it	hi
20005f96:	bd30      	pophi	{r4, r5, pc}
20005f98:	f011 4f00 	tst.w	r1, #2147483648	; 0x80000000
20005f9c:	ea4f 3101 	mov.w	r1, r1, lsl #12
20005fa0:	f44f 1c80 	mov.w	ip, #1048576	; 0x100000
20005fa4:	ea4c 3111 	orr.w	r1, ip, r1, lsr #12
20005fa8:	d002      	beq.n	20005fb0 <__adddf3+0x70>
20005faa:	4240      	negs	r0, r0
20005fac:	eb61 0141 	sbc.w	r1, r1, r1, lsl #1
20005fb0:	f013 4f00 	tst.w	r3, #2147483648	; 0x80000000
20005fb4:	ea4f 3303 	mov.w	r3, r3, lsl #12
20005fb8:	ea4c 3313 	orr.w	r3, ip, r3, lsr #12
20005fbc:	d002      	beq.n	20005fc4 <__adddf3+0x84>
20005fbe:	4252      	negs	r2, r2
20005fc0:	eb63 0343 	sbc.w	r3, r3, r3, lsl #1
20005fc4:	ea94 0f05 	teq	r4, r5
20005fc8:	f000 80a7 	beq.w	2000611a <__adddf3+0x1da>
20005fcc:	f1a4 0401 	sub.w	r4, r4, #1
20005fd0:	f1d5 0e20 	rsbs	lr, r5, #32
20005fd4:	db0d      	blt.n	20005ff2 <__adddf3+0xb2>
20005fd6:	fa02 fc0e 	lsl.w	ip, r2, lr
20005fda:	fa22 f205 	lsr.w	r2, r2, r5
20005fde:	1880      	adds	r0, r0, r2
20005fe0:	f141 0100 	adc.w	r1, r1, #0
20005fe4:	fa03 f20e 	lsl.w	r2, r3, lr
20005fe8:	1880      	adds	r0, r0, r2
20005fea:	fa43 f305 	asr.w	r3, r3, r5
20005fee:	4159      	adcs	r1, r3
20005ff0:	e00e      	b.n	20006010 <__adddf3+0xd0>
20005ff2:	f1a5 0520 	sub.w	r5, r5, #32
20005ff6:	f10e 0e20 	add.w	lr, lr, #32
20005ffa:	2a01      	cmp	r2, #1
20005ffc:	fa03 fc0e 	lsl.w	ip, r3, lr
20006000:	bf28      	it	cs
20006002:	f04c 0c02 	orrcs.w	ip, ip, #2
20006006:	fa43 f305 	asr.w	r3, r3, r5
2000600a:	18c0      	adds	r0, r0, r3
2000600c:	eb51 71e3 	adcs.w	r1, r1, r3, asr #31
20006010:	f001 4500 	and.w	r5, r1, #2147483648	; 0x80000000
20006014:	d507      	bpl.n	20006026 <__adddf3+0xe6>
20006016:	f04f 0e00 	mov.w	lr, #0
2000601a:	f1dc 0c00 	rsbs	ip, ip, #0
2000601e:	eb7e 0000 	sbcs.w	r0, lr, r0
20006022:	eb6e 0101 	sbc.w	r1, lr, r1
20006026:	f5b1 1f80 	cmp.w	r1, #1048576	; 0x100000
2000602a:	d31b      	bcc.n	20006064 <__adddf3+0x124>
2000602c:	f5b1 1f00 	cmp.w	r1, #2097152	; 0x200000
20006030:	d30c      	bcc.n	2000604c <__adddf3+0x10c>
20006032:	0849      	lsrs	r1, r1, #1
20006034:	ea5f 0030 	movs.w	r0, r0, rrx
20006038:	ea4f 0c3c 	mov.w	ip, ip, rrx
2000603c:	f104 0401 	add.w	r4, r4, #1
20006040:	ea4f 5244 	mov.w	r2, r4, lsl #21
20006044:	f512 0f80 	cmn.w	r2, #4194304	; 0x400000
20006048:	f080 809a 	bcs.w	20006180 <__adddf3+0x240>
2000604c:	f1bc 4f00 	cmp.w	ip, #2147483648	; 0x80000000
20006050:	bf08      	it	eq
20006052:	ea5f 0c50 	movseq.w	ip, r0, lsr #1
20006056:	f150 0000 	adcs.w	r0, r0, #0
2000605a:	eb41 5104 	adc.w	r1, r1, r4, lsl #20
2000605e:	ea41 0105 	orr.w	r1, r1, r5
20006062:	bd30      	pop	{r4, r5, pc}
20006064:	ea5f 0c4c 	movs.w	ip, ip, lsl #1
20006068:	4140      	adcs	r0, r0
2000606a:	eb41 0101 	adc.w	r1, r1, r1
2000606e:	f411 1f80 	tst.w	r1, #1048576	; 0x100000
20006072:	f1a4 0401 	sub.w	r4, r4, #1
20006076:	d1e9      	bne.n	2000604c <__adddf3+0x10c>
20006078:	f091 0f00 	teq	r1, #0
2000607c:	bf04      	itt	eq
2000607e:	4601      	moveq	r1, r0
20006080:	2000      	moveq	r0, #0
20006082:	fab1 f381 	clz	r3, r1
20006086:	bf08      	it	eq
20006088:	3320      	addeq	r3, #32
2000608a:	f1a3 030b 	sub.w	r3, r3, #11
2000608e:	f1b3 0220 	subs.w	r2, r3, #32
20006092:	da0c      	bge.n	200060ae <__adddf3+0x16e>
20006094:	320c      	adds	r2, #12
20006096:	dd08      	ble.n	200060aa <__adddf3+0x16a>
20006098:	f102 0c14 	add.w	ip, r2, #20
2000609c:	f1c2 020c 	rsb	r2, r2, #12
200060a0:	fa01 f00c 	lsl.w	r0, r1, ip
200060a4:	fa21 f102 	lsr.w	r1, r1, r2
200060a8:	e00c      	b.n	200060c4 <__adddf3+0x184>
200060aa:	f102 0214 	add.w	r2, r2, #20
200060ae:	bfd8      	it	le
200060b0:	f1c2 0c20 	rsble	ip, r2, #32
200060b4:	fa01 f102 	lsl.w	r1, r1, r2
200060b8:	fa20 fc0c 	lsr.w	ip, r0, ip
200060bc:	bfdc      	itt	le
200060be:	ea41 010c 	orrle.w	r1, r1, ip
200060c2:	4090      	lslle	r0, r2
200060c4:	1ae4      	subs	r4, r4, r3
200060c6:	bfa2      	ittt	ge
200060c8:	eb01 5104 	addge.w	r1, r1, r4, lsl #20
200060cc:	4329      	orrge	r1, r5
200060ce:	bd30      	popge	{r4, r5, pc}
200060d0:	ea6f 0404 	mvn.w	r4, r4
200060d4:	3c1f      	subs	r4, #31
200060d6:	da1c      	bge.n	20006112 <__adddf3+0x1d2>
200060d8:	340c      	adds	r4, #12
200060da:	dc0e      	bgt.n	200060fa <__adddf3+0x1ba>
200060dc:	f104 0414 	add.w	r4, r4, #20
200060e0:	f1c4 0220 	rsb	r2, r4, #32
200060e4:	fa20 f004 	lsr.w	r0, r0, r4
200060e8:	fa01 f302 	lsl.w	r3, r1, r2
200060ec:	ea40 0003 	orr.w	r0, r0, r3
200060f0:	fa21 f304 	lsr.w	r3, r1, r4
200060f4:	ea45 0103 	orr.w	r1, r5, r3
200060f8:	bd30      	pop	{r4, r5, pc}
200060fa:	f1c4 040c 	rsb	r4, r4, #12
200060fe:	f1c4 0220 	rsb	r2, r4, #32
20006102:	fa20 f002 	lsr.w	r0, r0, r2
20006106:	fa01 f304 	lsl.w	r3, r1, r4
2000610a:	ea40 0003 	orr.w	r0, r0, r3
2000610e:	4629      	mov	r1, r5
20006110:	bd30      	pop	{r4, r5, pc}
20006112:	fa21 f004 	lsr.w	r0, r1, r4
20006116:	4629      	mov	r1, r5
20006118:	bd30      	pop	{r4, r5, pc}
2000611a:	f094 0f00 	teq	r4, #0
2000611e:	f483 1380 	eor.w	r3, r3, #1048576	; 0x100000
20006122:	bf06      	itte	eq
20006124:	f481 1180 	eoreq.w	r1, r1, #1048576	; 0x100000
20006128:	3401      	addeq	r4, #1
2000612a:	3d01      	subne	r5, #1
2000612c:	e74e      	b.n	20005fcc <__adddf3+0x8c>
2000612e:	ea7f 5c64 	mvns.w	ip, r4, asr #21
20006132:	bf18      	it	ne
20006134:	ea7f 5c65 	mvnsne.w	ip, r5, asr #21
20006138:	d029      	beq.n	2000618e <__adddf3+0x24e>
2000613a:	ea94 0f05 	teq	r4, r5
2000613e:	bf08      	it	eq
20006140:	ea90 0f02 	teqeq	r0, r2
20006144:	d005      	beq.n	20006152 <__adddf3+0x212>
20006146:	ea54 0c00 	orrs.w	ip, r4, r0
2000614a:	bf04      	itt	eq
2000614c:	4619      	moveq	r1, r3
2000614e:	4610      	moveq	r0, r2
20006150:	bd30      	pop	{r4, r5, pc}
20006152:	ea91 0f03 	teq	r1, r3
20006156:	bf1e      	ittt	ne
20006158:	2100      	movne	r1, #0
2000615a:	2000      	movne	r0, #0
2000615c:	bd30      	popne	{r4, r5, pc}
2000615e:	ea5f 5c54 	movs.w	ip, r4, lsr #21
20006162:	d105      	bne.n	20006170 <__adddf3+0x230>
20006164:	0040      	lsls	r0, r0, #1
20006166:	4149      	adcs	r1, r1
20006168:	bf28      	it	cs
2000616a:	f041 4100 	orrcs.w	r1, r1, #2147483648	; 0x80000000
2000616e:	bd30      	pop	{r4, r5, pc}
20006170:	f514 0480 	adds.w	r4, r4, #4194304	; 0x400000
20006174:	bf3c      	itt	cc
20006176:	f501 1180 	addcc.w	r1, r1, #1048576	; 0x100000
2000617a:	bd30      	popcc	{r4, r5, pc}
2000617c:	f001 4500 	and.w	r5, r1, #2147483648	; 0x80000000
20006180:	f045 41fe 	orr.w	r1, r5, #2130706432	; 0x7f000000
20006184:	f441 0170 	orr.w	r1, r1, #15728640	; 0xf00000
20006188:	f04f 0000 	mov.w	r0, #0
2000618c:	bd30      	pop	{r4, r5, pc}
2000618e:	ea7f 5c64 	mvns.w	ip, r4, asr #21
20006192:	bf1a      	itte	ne
20006194:	4619      	movne	r1, r3
20006196:	4610      	movne	r0, r2
20006198:	ea7f 5c65 	mvnseq.w	ip, r5, asr #21
2000619c:	bf1c      	itt	ne
2000619e:	460b      	movne	r3, r1
200061a0:	4602      	movne	r2, r0
200061a2:	ea50 3401 	orrs.w	r4, r0, r1, lsl #12
200061a6:	bf06      	itte	eq
200061a8:	ea52 3503 	orrseq.w	r5, r2, r3, lsl #12
200061ac:	ea91 0f03 	teqeq	r1, r3
200061b0:	f441 2100 	orrne.w	r1, r1, #524288	; 0x80000
200061b4:	bd30      	pop	{r4, r5, pc}
200061b6:	bf00      	nop

200061b8 <__aeabi_ui2d>:
200061b8:	f090 0f00 	teq	r0, #0
200061bc:	bf04      	itt	eq
200061be:	2100      	moveq	r1, #0
200061c0:	4770      	bxeq	lr
200061c2:	b530      	push	{r4, r5, lr}
200061c4:	f44f 6480 	mov.w	r4, #1024	; 0x400
200061c8:	f104 0432 	add.w	r4, r4, #50	; 0x32
200061cc:	f04f 0500 	mov.w	r5, #0
200061d0:	f04f 0100 	mov.w	r1, #0
200061d4:	e750      	b.n	20006078 <__adddf3+0x138>
200061d6:	bf00      	nop

200061d8 <__aeabi_i2d>:
200061d8:	f090 0f00 	teq	r0, #0
200061dc:	bf04      	itt	eq
200061de:	2100      	moveq	r1, #0
200061e0:	4770      	bxeq	lr
200061e2:	b530      	push	{r4, r5, lr}
200061e4:	f44f 6480 	mov.w	r4, #1024	; 0x400
200061e8:	f104 0432 	add.w	r4, r4, #50	; 0x32
200061ec:	f010 4500 	ands.w	r5, r0, #2147483648	; 0x80000000
200061f0:	bf48      	it	mi
200061f2:	4240      	negmi	r0, r0
200061f4:	f04f 0100 	mov.w	r1, #0
200061f8:	e73e      	b.n	20006078 <__adddf3+0x138>
200061fa:	bf00      	nop

200061fc <__aeabi_f2d>:
200061fc:	0042      	lsls	r2, r0, #1
200061fe:	ea4f 01e2 	mov.w	r1, r2, asr #3
20006202:	ea4f 0131 	mov.w	r1, r1, rrx
20006206:	ea4f 7002 	mov.w	r0, r2, lsl #28
2000620a:	bf1f      	itttt	ne
2000620c:	f012 437f 	andsne.w	r3, r2, #4278190080	; 0xff000000
20006210:	f093 4f7f 	teqne	r3, #4278190080	; 0xff000000
20006214:	f081 5160 	eorne.w	r1, r1, #939524096	; 0x38000000
20006218:	4770      	bxne	lr
2000621a:	f092 0f00 	teq	r2, #0
2000621e:	bf14      	ite	ne
20006220:	f093 4f7f 	teqne	r3, #4278190080	; 0xff000000
20006224:	4770      	bxeq	lr
20006226:	b530      	push	{r4, r5, lr}
20006228:	f44f 7460 	mov.w	r4, #896	; 0x380
2000622c:	f001 4500 	and.w	r5, r1, #2147483648	; 0x80000000
20006230:	f021 4100 	bic.w	r1, r1, #2147483648	; 0x80000000
20006234:	e720      	b.n	20006078 <__adddf3+0x138>
20006236:	bf00      	nop

20006238 <__aeabi_ul2d>:
20006238:	ea50 0201 	orrs.w	r2, r0, r1
2000623c:	bf08      	it	eq
2000623e:	4770      	bxeq	lr
20006240:	b530      	push	{r4, r5, lr}
20006242:	f04f 0500 	mov.w	r5, #0
20006246:	e00a      	b.n	2000625e <__aeabi_l2d+0x16>

20006248 <__aeabi_l2d>:
20006248:	ea50 0201 	orrs.w	r2, r0, r1
2000624c:	bf08      	it	eq
2000624e:	4770      	bxeq	lr
20006250:	b530      	push	{r4, r5, lr}
20006252:	f011 4500 	ands.w	r5, r1, #2147483648	; 0x80000000
20006256:	d502      	bpl.n	2000625e <__aeabi_l2d+0x16>
20006258:	4240      	negs	r0, r0
2000625a:	eb61 0141 	sbc.w	r1, r1, r1, lsl #1
2000625e:	f44f 6480 	mov.w	r4, #1024	; 0x400
20006262:	f104 0432 	add.w	r4, r4, #50	; 0x32
20006266:	ea5f 5c91 	movs.w	ip, r1, lsr #22
2000626a:	f43f aedc 	beq.w	20006026 <__adddf3+0xe6>
2000626e:	f04f 0203 	mov.w	r2, #3
20006272:	ea5f 0cdc 	movs.w	ip, ip, lsr #3
20006276:	bf18      	it	ne
20006278:	3203      	addne	r2, #3
2000627a:	ea5f 0cdc 	movs.w	ip, ip, lsr #3
2000627e:	bf18      	it	ne
20006280:	3203      	addne	r2, #3
20006282:	eb02 02dc 	add.w	r2, r2, ip, lsr #3
20006286:	f1c2 0320 	rsb	r3, r2, #32
2000628a:	fa00 fc03 	lsl.w	ip, r0, r3
2000628e:	fa20 f002 	lsr.w	r0, r0, r2
20006292:	fa01 fe03 	lsl.w	lr, r1, r3
20006296:	ea40 000e 	orr.w	r0, r0, lr
2000629a:	fa21 f102 	lsr.w	r1, r1, r2
2000629e:	4414      	add	r4, r2
200062a0:	e6c1      	b.n	20006026 <__adddf3+0xe6>
200062a2:	bf00      	nop

200062a4 <__aeabi_dmul>:
200062a4:	b570      	push	{r4, r5, r6, lr}
200062a6:	f04f 0cff 	mov.w	ip, #255	; 0xff
200062aa:	f44c 6ce0 	orr.w	ip, ip, #1792	; 0x700
200062ae:	ea1c 5411 	ands.w	r4, ip, r1, lsr #20
200062b2:	bf1d      	ittte	ne
200062b4:	ea1c 5513 	andsne.w	r5, ip, r3, lsr #20
200062b8:	ea94 0f0c 	teqne	r4, ip
200062bc:	ea95 0f0c 	teqne	r5, ip
200062c0:	f000 f8de 	bleq	20006480 <__aeabi_dmul+0x1dc>
200062c4:	442c      	add	r4, r5
200062c6:	ea81 0603 	eor.w	r6, r1, r3
200062ca:	ea21 514c 	bic.w	r1, r1, ip, lsl #21
200062ce:	ea23 534c 	bic.w	r3, r3, ip, lsl #21
200062d2:	ea50 3501 	orrs.w	r5, r0, r1, lsl #12
200062d6:	bf18      	it	ne
200062d8:	ea52 3503 	orrsne.w	r5, r2, r3, lsl #12
200062dc:	f441 1180 	orr.w	r1, r1, #1048576	; 0x100000
200062e0:	f443 1380 	orr.w	r3, r3, #1048576	; 0x100000
200062e4:	d038      	beq.n	20006358 <__aeabi_dmul+0xb4>
200062e6:	fba0 ce02 	umull	ip, lr, r0, r2
200062ea:	f04f 0500 	mov.w	r5, #0
200062ee:	fbe1 e502 	umlal	lr, r5, r1, r2
200062f2:	f006 4200 	and.w	r2, r6, #2147483648	; 0x80000000
200062f6:	fbe0 e503 	umlal	lr, r5, r0, r3
200062fa:	f04f 0600 	mov.w	r6, #0
200062fe:	fbe1 5603 	umlal	r5, r6, r1, r3
20006302:	f09c 0f00 	teq	ip, #0
20006306:	bf18      	it	ne
20006308:	f04e 0e01 	orrne.w	lr, lr, #1
2000630c:	f1a4 04ff 	sub.w	r4, r4, #255	; 0xff
20006310:	f5b6 7f00 	cmp.w	r6, #512	; 0x200
20006314:	f564 7440 	sbc.w	r4, r4, #768	; 0x300
20006318:	d204      	bcs.n	20006324 <__aeabi_dmul+0x80>
2000631a:	ea5f 0e4e 	movs.w	lr, lr, lsl #1
2000631e:	416d      	adcs	r5, r5
20006320:	eb46 0606 	adc.w	r6, r6, r6
20006324:	ea42 21c6 	orr.w	r1, r2, r6, lsl #11
20006328:	ea41 5155 	orr.w	r1, r1, r5, lsr #21
2000632c:	ea4f 20c5 	mov.w	r0, r5, lsl #11
20006330:	ea40 505e 	orr.w	r0, r0, lr, lsr #21
20006334:	ea4f 2ece 	mov.w	lr, lr, lsl #11
20006338:	f1b4 0cfd 	subs.w	ip, r4, #253	; 0xfd
2000633c:	bf88      	it	hi
2000633e:	f5bc 6fe0 	cmphi.w	ip, #1792	; 0x700
20006342:	d81e      	bhi.n	20006382 <__aeabi_dmul+0xde>
20006344:	f1be 4f00 	cmp.w	lr, #2147483648	; 0x80000000
20006348:	bf08      	it	eq
2000634a:	ea5f 0e50 	movseq.w	lr, r0, lsr #1
2000634e:	f150 0000 	adcs.w	r0, r0, #0
20006352:	eb41 5104 	adc.w	r1, r1, r4, lsl #20
20006356:	bd70      	pop	{r4, r5, r6, pc}
20006358:	f006 4600 	and.w	r6, r6, #2147483648	; 0x80000000
2000635c:	ea46 0101 	orr.w	r1, r6, r1
20006360:	ea40 0002 	orr.w	r0, r0, r2
20006364:	ea81 0103 	eor.w	r1, r1, r3
20006368:	ebb4 045c 	subs.w	r4, r4, ip, lsr #1
2000636c:	bfc2      	ittt	gt
2000636e:	ebd4 050c 	rsbsgt	r5, r4, ip
20006372:	ea41 5104 	orrgt.w	r1, r1, r4, lsl #20
20006376:	bd70      	popgt	{r4, r5, r6, pc}
20006378:	f441 1180 	orr.w	r1, r1, #1048576	; 0x100000
2000637c:	f04f 0e00 	mov.w	lr, #0
20006380:	3c01      	subs	r4, #1
20006382:	f300 80ab 	bgt.w	200064dc <__aeabi_dmul+0x238>
20006386:	f114 0f36 	cmn.w	r4, #54	; 0x36
2000638a:	bfde      	ittt	le
2000638c:	2000      	movle	r0, #0
2000638e:	f001 4100 	andle.w	r1, r1, #2147483648	; 0x80000000
20006392:	bd70      	pople	{r4, r5, r6, pc}
20006394:	f1c4 0400 	rsb	r4, r4, #0
20006398:	3c20      	subs	r4, #32
2000639a:	da35      	bge.n	20006408 <__aeabi_dmul+0x164>
2000639c:	340c      	adds	r4, #12
2000639e:	dc1b      	bgt.n	200063d8 <__aeabi_dmul+0x134>
200063a0:	f104 0414 	add.w	r4, r4, #20
200063a4:	f1c4 0520 	rsb	r5, r4, #32
200063a8:	fa00 f305 	lsl.w	r3, r0, r5
200063ac:	fa20 f004 	lsr.w	r0, r0, r4
200063b0:	fa01 f205 	lsl.w	r2, r1, r5
200063b4:	ea40 0002 	orr.w	r0, r0, r2
200063b8:	f001 4200 	and.w	r2, r1, #2147483648	; 0x80000000
200063bc:	f021 4100 	bic.w	r1, r1, #2147483648	; 0x80000000
200063c0:	eb10 70d3 	adds.w	r0, r0, r3, lsr #31
200063c4:	fa21 f604 	lsr.w	r6, r1, r4
200063c8:	eb42 0106 	adc.w	r1, r2, r6
200063cc:	ea5e 0e43 	orrs.w	lr, lr, r3, lsl #1
200063d0:	bf08      	it	eq
200063d2:	ea20 70d3 	biceq.w	r0, r0, r3, lsr #31
200063d6:	bd70      	pop	{r4, r5, r6, pc}
200063d8:	f1c4 040c 	rsb	r4, r4, #12
200063dc:	f1c4 0520 	rsb	r5, r4, #32
200063e0:	fa00 f304 	lsl.w	r3, r0, r4
200063e4:	fa20 f005 	lsr.w	r0, r0, r5
200063e8:	fa01 f204 	lsl.w	r2, r1, r4
200063ec:	ea40 0002 	orr.w	r0, r0, r2
200063f0:	f001 4100 	and.w	r1, r1, #2147483648	; 0x80000000
200063f4:	eb10 70d3 	adds.w	r0, r0, r3, lsr #31
200063f8:	f141 0100 	adc.w	r1, r1, #0
200063fc:	ea5e 0e43 	orrs.w	lr, lr, r3, lsl #1
20006400:	bf08      	it	eq
20006402:	ea20 70d3 	biceq.w	r0, r0, r3, lsr #31
20006406:	bd70      	pop	{r4, r5, r6, pc}
20006408:	f1c4 0520 	rsb	r5, r4, #32
2000640c:	fa00 f205 	lsl.w	r2, r0, r5
20006410:	ea4e 0e02 	orr.w	lr, lr, r2
20006414:	fa20 f304 	lsr.w	r3, r0, r4
20006418:	fa01 f205 	lsl.w	r2, r1, r5
2000641c:	ea43 0302 	orr.w	r3, r3, r2
20006420:	fa21 f004 	lsr.w	r0, r1, r4
20006424:	f001 4100 	and.w	r1, r1, #2147483648	; 0x80000000
20006428:	fa21 f204 	lsr.w	r2, r1, r4
2000642c:	ea20 0002 	bic.w	r0, r0, r2
20006430:	eb00 70d3 	add.w	r0, r0, r3, lsr #31
20006434:	ea5e 0e43 	orrs.w	lr, lr, r3, lsl #1
20006438:	bf08      	it	eq
2000643a:	ea20 70d3 	biceq.w	r0, r0, r3, lsr #31
2000643e:	bd70      	pop	{r4, r5, r6, pc}
20006440:	f094 0f00 	teq	r4, #0
20006444:	d10f      	bne.n	20006466 <__aeabi_dmul+0x1c2>
20006446:	f001 4600 	and.w	r6, r1, #2147483648	; 0x80000000
2000644a:	0040      	lsls	r0, r0, #1
2000644c:	eb41 0101 	adc.w	r1, r1, r1
20006450:	f411 1f80 	tst.w	r1, #1048576	; 0x100000
20006454:	bf08      	it	eq
20006456:	3c01      	subeq	r4, #1
20006458:	d0f7      	beq.n	2000644a <__aeabi_dmul+0x1a6>
2000645a:	ea41 0106 	orr.w	r1, r1, r6
2000645e:	f095 0f00 	teq	r5, #0
20006462:	bf18      	it	ne
20006464:	4770      	bxne	lr
20006466:	f003 4600 	and.w	r6, r3, #2147483648	; 0x80000000
2000646a:	0052      	lsls	r2, r2, #1
2000646c:	eb43 0303 	adc.w	r3, r3, r3
20006470:	f413 1f80 	tst.w	r3, #1048576	; 0x100000
20006474:	bf08      	it	eq
20006476:	3d01      	subeq	r5, #1
20006478:	d0f7      	beq.n	2000646a <__aeabi_dmul+0x1c6>
2000647a:	ea43 0306 	orr.w	r3, r3, r6
2000647e:	4770      	bx	lr
20006480:	ea94 0f0c 	teq	r4, ip
20006484:	ea0c 5513 	and.w	r5, ip, r3, lsr #20
20006488:	bf18      	it	ne
2000648a:	ea95 0f0c 	teqne	r5, ip
2000648e:	d00c      	beq.n	200064aa <__aeabi_dmul+0x206>
20006490:	ea50 0641 	orrs.w	r6, r0, r1, lsl #1
20006494:	bf18      	it	ne
20006496:	ea52 0643 	orrsne.w	r6, r2, r3, lsl #1
2000649a:	d1d1      	bne.n	20006440 <__aeabi_dmul+0x19c>
2000649c:	ea81 0103 	eor.w	r1, r1, r3
200064a0:	f001 4100 	and.w	r1, r1, #2147483648	; 0x80000000
200064a4:	f04f 0000 	mov.w	r0, #0
200064a8:	bd70      	pop	{r4, r5, r6, pc}
200064aa:	ea50 0641 	orrs.w	r6, r0, r1, lsl #1
200064ae:	bf06      	itte	eq
200064b0:	4610      	moveq	r0, r2
200064b2:	4619      	moveq	r1, r3
200064b4:	ea52 0643 	orrsne.w	r6, r2, r3, lsl #1
200064b8:	d019      	beq.n	200064ee <__aeabi_dmul+0x24a>
200064ba:	ea94 0f0c 	teq	r4, ip
200064be:	d102      	bne.n	200064c6 <__aeabi_dmul+0x222>
200064c0:	ea50 3601 	orrs.w	r6, r0, r1, lsl #12
200064c4:	d113      	bne.n	200064ee <__aeabi_dmul+0x24a>
200064c6:	ea95 0f0c 	teq	r5, ip
200064ca:	d105      	bne.n	200064d8 <__aeabi_dmul+0x234>
200064cc:	ea52 3603 	orrs.w	r6, r2, r3, lsl #12
200064d0:	bf1c      	itt	ne
200064d2:	4610      	movne	r0, r2
200064d4:	4619      	movne	r1, r3
200064d6:	d10a      	bne.n	200064ee <__aeabi_dmul+0x24a>
200064d8:	ea81 0103 	eor.w	r1, r1, r3
200064dc:	f001 4100 	and.w	r1, r1, #2147483648	; 0x80000000
200064e0:	f041 41fe 	orr.w	r1, r1, #2130706432	; 0x7f000000
200064e4:	f441 0170 	orr.w	r1, r1, #15728640	; 0xf00000
200064e8:	f04f 0000 	mov.w	r0, #0
200064ec:	bd70      	pop	{r4, r5, r6, pc}
200064ee:	f041 41fe 	orr.w	r1, r1, #2130706432	; 0x7f000000
200064f2:	f441 0178 	orr.w	r1, r1, #16252928	; 0xf80000
200064f6:	bd70      	pop	{r4, r5, r6, pc}

200064f8 <__aeabi_ddiv>:
200064f8:	b570      	push	{r4, r5, r6, lr}
200064fa:	f04f 0cff 	mov.w	ip, #255	; 0xff
200064fe:	f44c 6ce0 	orr.w	ip, ip, #1792	; 0x700
20006502:	ea1c 5411 	ands.w	r4, ip, r1, lsr #20
20006506:	bf1d      	ittte	ne
20006508:	ea1c 5513 	andsne.w	r5, ip, r3, lsr #20
2000650c:	ea94 0f0c 	teqne	r4, ip
20006510:	ea95 0f0c 	teqne	r5, ip
20006514:	f000 f8a7 	bleq	20006666 <__aeabi_ddiv+0x16e>
20006518:	eba4 0405 	sub.w	r4, r4, r5
2000651c:	ea81 0e03 	eor.w	lr, r1, r3
20006520:	ea52 3503 	orrs.w	r5, r2, r3, lsl #12
20006524:	ea4f 3101 	mov.w	r1, r1, lsl #12
20006528:	f000 8088 	beq.w	2000663c <__aeabi_ddiv+0x144>
2000652c:	ea4f 3303 	mov.w	r3, r3, lsl #12
20006530:	f04f 5580 	mov.w	r5, #268435456	; 0x10000000
20006534:	ea45 1313 	orr.w	r3, r5, r3, lsr #4
20006538:	ea43 6312 	orr.w	r3, r3, r2, lsr #24
2000653c:	ea4f 2202 	mov.w	r2, r2, lsl #8
20006540:	ea45 1511 	orr.w	r5, r5, r1, lsr #4
20006544:	ea45 6510 	orr.w	r5, r5, r0, lsr #24
20006548:	ea4f 2600 	mov.w	r6, r0, lsl #8
2000654c:	f00e 4100 	and.w	r1, lr, #2147483648	; 0x80000000
20006550:	429d      	cmp	r5, r3
20006552:	bf08      	it	eq
20006554:	4296      	cmpeq	r6, r2
20006556:	f144 04fd 	adc.w	r4, r4, #253	; 0xfd
2000655a:	f504 7440 	add.w	r4, r4, #768	; 0x300
2000655e:	d202      	bcs.n	20006566 <__aeabi_ddiv+0x6e>
20006560:	085b      	lsrs	r3, r3, #1
20006562:	ea4f 0232 	mov.w	r2, r2, rrx
20006566:	1ab6      	subs	r6, r6, r2
20006568:	eb65 0503 	sbc.w	r5, r5, r3
2000656c:	085b      	lsrs	r3, r3, #1
2000656e:	ea4f 0232 	mov.w	r2, r2, rrx
20006572:	f44f 1080 	mov.w	r0, #1048576	; 0x100000
20006576:	f44f 2c00 	mov.w	ip, #524288	; 0x80000
2000657a:	ebb6 0e02 	subs.w	lr, r6, r2
2000657e:	eb75 0e03 	sbcs.w	lr, r5, r3
20006582:	bf22      	ittt	cs
20006584:	1ab6      	subcs	r6, r6, r2
20006586:	4675      	movcs	r5, lr
20006588:	ea40 000c 	orrcs.w	r0, r0, ip
2000658c:	085b      	lsrs	r3, r3, #1
2000658e:	ea4f 0232 	mov.w	r2, r2, rrx
20006592:	ebb6 0e02 	subs.w	lr, r6, r2
20006596:	eb75 0e03 	sbcs.w	lr, r5, r3
2000659a:	bf22      	ittt	cs
2000659c:	1ab6      	subcs	r6, r6, r2
2000659e:	4675      	movcs	r5, lr
200065a0:	ea40 005c 	orrcs.w	r0, r0, ip, lsr #1
200065a4:	085b      	lsrs	r3, r3, #1
200065a6:	ea4f 0232 	mov.w	r2, r2, rrx
200065aa:	ebb6 0e02 	subs.w	lr, r6, r2
200065ae:	eb75 0e03 	sbcs.w	lr, r5, r3
200065b2:	bf22      	ittt	cs
200065b4:	1ab6      	subcs	r6, r6, r2
200065b6:	4675      	movcs	r5, lr
200065b8:	ea40 009c 	orrcs.w	r0, r0, ip, lsr #2
200065bc:	085b      	lsrs	r3, r3, #1
200065be:	ea4f 0232 	mov.w	r2, r2, rrx
200065c2:	ebb6 0e02 	subs.w	lr, r6, r2
200065c6:	eb75 0e03 	sbcs.w	lr, r5, r3
200065ca:	bf22      	ittt	cs
200065cc:	1ab6      	subcs	r6, r6, r2
200065ce:	4675      	movcs	r5, lr
200065d0:	ea40 00dc 	orrcs.w	r0, r0, ip, lsr #3
200065d4:	ea55 0e06 	orrs.w	lr, r5, r6
200065d8:	d018      	beq.n	2000660c <__aeabi_ddiv+0x114>
200065da:	ea4f 1505 	mov.w	r5, r5, lsl #4
200065de:	ea45 7516 	orr.w	r5, r5, r6, lsr #28
200065e2:	ea4f 1606 	mov.w	r6, r6, lsl #4
200065e6:	ea4f 03c3 	mov.w	r3, r3, lsl #3
200065ea:	ea43 7352 	orr.w	r3, r3, r2, lsr #29
200065ee:	ea4f 02c2 	mov.w	r2, r2, lsl #3
200065f2:	ea5f 1c1c 	movs.w	ip, ip, lsr #4
200065f6:	d1c0      	bne.n	2000657a <__aeabi_ddiv+0x82>
200065f8:	f411 1f80 	tst.w	r1, #1048576	; 0x100000
200065fc:	d10b      	bne.n	20006616 <__aeabi_ddiv+0x11e>
200065fe:	ea41 0100 	orr.w	r1, r1, r0
20006602:	f04f 0000 	mov.w	r0, #0
20006606:	f04f 4c00 	mov.w	ip, #2147483648	; 0x80000000
2000660a:	e7b6      	b.n	2000657a <__aeabi_ddiv+0x82>
2000660c:	f411 1f80 	tst.w	r1, #1048576	; 0x100000
20006610:	bf04      	itt	eq
20006612:	4301      	orreq	r1, r0
20006614:	2000      	moveq	r0, #0
20006616:	f1b4 0cfd 	subs.w	ip, r4, #253	; 0xfd
2000661a:	bf88      	it	hi
2000661c:	f5bc 6fe0 	cmphi.w	ip, #1792	; 0x700
20006620:	f63f aeaf 	bhi.w	20006382 <__aeabi_dmul+0xde>
20006624:	ebb5 0c03 	subs.w	ip, r5, r3
20006628:	bf04      	itt	eq
2000662a:	ebb6 0c02 	subseq.w	ip, r6, r2
2000662e:	ea5f 0c50 	movseq.w	ip, r0, lsr #1
20006632:	f150 0000 	adcs.w	r0, r0, #0
20006636:	eb41 5104 	adc.w	r1, r1, r4, lsl #20
2000663a:	bd70      	pop	{r4, r5, r6, pc}
2000663c:	f00e 4e00 	and.w	lr, lr, #2147483648	; 0x80000000
20006640:	ea4e 3111 	orr.w	r1, lr, r1, lsr #12
20006644:	eb14 045c 	adds.w	r4, r4, ip, lsr #1
20006648:	bfc2      	ittt	gt
2000664a:	ebd4 050c 	rsbsgt	r5, r4, ip
2000664e:	ea41 5104 	orrgt.w	r1, r1, r4, lsl #20
20006652:	bd70      	popgt	{r4, r5, r6, pc}
20006654:	f441 1180 	orr.w	r1, r1, #1048576	; 0x100000
20006658:	f04f 0e00 	mov.w	lr, #0
2000665c:	3c01      	subs	r4, #1
2000665e:	e690      	b.n	20006382 <__aeabi_dmul+0xde>
20006660:	ea45 0e06 	orr.w	lr, r5, r6
20006664:	e68d      	b.n	20006382 <__aeabi_dmul+0xde>
20006666:	ea0c 5513 	and.w	r5, ip, r3, lsr #20
2000666a:	ea94 0f0c 	teq	r4, ip
2000666e:	bf08      	it	eq
20006670:	ea95 0f0c 	teqeq	r5, ip
20006674:	f43f af3b 	beq.w	200064ee <__aeabi_dmul+0x24a>
20006678:	ea94 0f0c 	teq	r4, ip
2000667c:	d10a      	bne.n	20006694 <__aeabi_ddiv+0x19c>
2000667e:	ea50 3401 	orrs.w	r4, r0, r1, lsl #12
20006682:	f47f af34 	bne.w	200064ee <__aeabi_dmul+0x24a>
20006686:	ea95 0f0c 	teq	r5, ip
2000668a:	f47f af25 	bne.w	200064d8 <__aeabi_dmul+0x234>
2000668e:	4610      	mov	r0, r2
20006690:	4619      	mov	r1, r3
20006692:	e72c      	b.n	200064ee <__aeabi_dmul+0x24a>
20006694:	ea95 0f0c 	teq	r5, ip
20006698:	d106      	bne.n	200066a8 <__aeabi_ddiv+0x1b0>
2000669a:	ea52 3503 	orrs.w	r5, r2, r3, lsl #12
2000669e:	f43f aefd 	beq.w	2000649c <__aeabi_dmul+0x1f8>
200066a2:	4610      	mov	r0, r2
200066a4:	4619      	mov	r1, r3
200066a6:	e722      	b.n	200064ee <__aeabi_dmul+0x24a>
200066a8:	ea50 0641 	orrs.w	r6, r0, r1, lsl #1
200066ac:	bf18      	it	ne
200066ae:	ea52 0643 	orrsne.w	r6, r2, r3, lsl #1
200066b2:	f47f aec5 	bne.w	20006440 <__aeabi_dmul+0x19c>
200066b6:	ea50 0441 	orrs.w	r4, r0, r1, lsl #1
200066ba:	f47f af0d 	bne.w	200064d8 <__aeabi_dmul+0x234>
200066be:	ea52 0543 	orrs.w	r5, r2, r3, lsl #1
200066c2:	f47f aeeb 	bne.w	2000649c <__aeabi_dmul+0x1f8>
200066c6:	e712      	b.n	200064ee <__aeabi_dmul+0x24a>

200066c8 <__gedf2>:
200066c8:	f04f 3cff 	mov.w	ip, #4294967295
200066cc:	e006      	b.n	200066dc <__cmpdf2+0x4>
200066ce:	bf00      	nop

200066d0 <__ledf2>:
200066d0:	f04f 0c01 	mov.w	ip, #1
200066d4:	e002      	b.n	200066dc <__cmpdf2+0x4>
200066d6:	bf00      	nop

200066d8 <__cmpdf2>:
200066d8:	f04f 0c01 	mov.w	ip, #1
200066dc:	f84d cd04 	str.w	ip, [sp, #-4]!
200066e0:	ea4f 0c41 	mov.w	ip, r1, lsl #1
200066e4:	ea7f 5c6c 	mvns.w	ip, ip, asr #21
200066e8:	ea4f 0c43 	mov.w	ip, r3, lsl #1
200066ec:	bf18      	it	ne
200066ee:	ea7f 5c6c 	mvnsne.w	ip, ip, asr #21
200066f2:	d01b      	beq.n	2000672c <__cmpdf2+0x54>
200066f4:	b001      	add	sp, #4
200066f6:	ea50 0c41 	orrs.w	ip, r0, r1, lsl #1
200066fa:	bf0c      	ite	eq
200066fc:	ea52 0c43 	orrseq.w	ip, r2, r3, lsl #1
20006700:	ea91 0f03 	teqne	r1, r3
20006704:	bf02      	ittt	eq
20006706:	ea90 0f02 	teqeq	r0, r2
2000670a:	2000      	moveq	r0, #0
2000670c:	4770      	bxeq	lr
2000670e:	f110 0f00 	cmn.w	r0, #0
20006712:	ea91 0f03 	teq	r1, r3
20006716:	bf58      	it	pl
20006718:	4299      	cmppl	r1, r3
2000671a:	bf08      	it	eq
2000671c:	4290      	cmpeq	r0, r2
2000671e:	bf2c      	ite	cs
20006720:	17d8      	asrcs	r0, r3, #31
20006722:	ea6f 70e3 	mvncc.w	r0, r3, asr #31
20006726:	f040 0001 	orr.w	r0, r0, #1
2000672a:	4770      	bx	lr
2000672c:	ea4f 0c41 	mov.w	ip, r1, lsl #1
20006730:	ea7f 5c6c 	mvns.w	ip, ip, asr #21
20006734:	d102      	bne.n	2000673c <__cmpdf2+0x64>
20006736:	ea50 3c01 	orrs.w	ip, r0, r1, lsl #12
2000673a:	d107      	bne.n	2000674c <__cmpdf2+0x74>
2000673c:	ea4f 0c43 	mov.w	ip, r3, lsl #1
20006740:	ea7f 5c6c 	mvns.w	ip, ip, asr #21
20006744:	d1d6      	bne.n	200066f4 <__cmpdf2+0x1c>
20006746:	ea52 3c03 	orrs.w	ip, r2, r3, lsl #12
2000674a:	d0d3      	beq.n	200066f4 <__cmpdf2+0x1c>
2000674c:	f85d 0b04 	ldr.w	r0, [sp], #4
20006750:	4770      	bx	lr
20006752:	bf00      	nop

20006754 <__aeabi_cdrcmple>:
20006754:	4684      	mov	ip, r0
20006756:	4610      	mov	r0, r2
20006758:	4662      	mov	r2, ip
2000675a:	468c      	mov	ip, r1
2000675c:	4619      	mov	r1, r3
2000675e:	4663      	mov	r3, ip
20006760:	e000      	b.n	20006764 <__aeabi_cdcmpeq>
20006762:	bf00      	nop

20006764 <__aeabi_cdcmpeq>:
20006764:	b501      	push	{r0, lr}
20006766:	f7ff ffb7 	bl	200066d8 <__cmpdf2>
2000676a:	2800      	cmp	r0, #0
2000676c:	bf48      	it	mi
2000676e:	f110 0f00 	cmnmi.w	r0, #0
20006772:	bd01      	pop	{r0, pc}

20006774 <__aeabi_dcmpeq>:
20006774:	f84d ed08 	str.w	lr, [sp, #-8]!
20006778:	f7ff fff4 	bl	20006764 <__aeabi_cdcmpeq>
2000677c:	bf0c      	ite	eq
2000677e:	2001      	moveq	r0, #1
20006780:	2000      	movne	r0, #0
20006782:	f85d fb08 	ldr.w	pc, [sp], #8
20006786:	bf00      	nop

20006788 <__aeabi_dcmplt>:
20006788:	f84d ed08 	str.w	lr, [sp, #-8]!
2000678c:	f7ff ffea 	bl	20006764 <__aeabi_cdcmpeq>
20006790:	bf34      	ite	cc
20006792:	2001      	movcc	r0, #1
20006794:	2000      	movcs	r0, #0
20006796:	f85d fb08 	ldr.w	pc, [sp], #8
2000679a:	bf00      	nop

2000679c <__aeabi_dcmple>:
2000679c:	f84d ed08 	str.w	lr, [sp, #-8]!
200067a0:	f7ff ffe0 	bl	20006764 <__aeabi_cdcmpeq>
200067a4:	bf94      	ite	ls
200067a6:	2001      	movls	r0, #1
200067a8:	2000      	movhi	r0, #0
200067aa:	f85d fb08 	ldr.w	pc, [sp], #8
200067ae:	bf00      	nop

200067b0 <__aeabi_dcmpge>:
200067b0:	f84d ed08 	str.w	lr, [sp, #-8]!
200067b4:	f7ff ffce 	bl	20006754 <__aeabi_cdrcmple>
200067b8:	bf94      	ite	ls
200067ba:	2001      	movls	r0, #1
200067bc:	2000      	movhi	r0, #0
200067be:	f85d fb08 	ldr.w	pc, [sp], #8
200067c2:	bf00      	nop

200067c4 <__aeabi_dcmpgt>:
200067c4:	f84d ed08 	str.w	lr, [sp, #-8]!
200067c8:	f7ff ffc4 	bl	20006754 <__aeabi_cdrcmple>
200067cc:	bf34      	ite	cc
200067ce:	2001      	movcc	r0, #1
200067d0:	2000      	movcs	r0, #0
200067d2:	f85d fb08 	ldr.w	pc, [sp], #8
200067d6:	bf00      	nop

200067d8 <__aeabi_d2iz>:
200067d8:	ea4f 0241 	mov.w	r2, r1, lsl #1
200067dc:	f512 1200 	adds.w	r2, r2, #2097152	; 0x200000
200067e0:	d215      	bcs.n	2000680e <__aeabi_d2iz+0x36>
200067e2:	d511      	bpl.n	20006808 <__aeabi_d2iz+0x30>
200067e4:	f46f 7378 	mvn.w	r3, #992	; 0x3e0
200067e8:	ebb3 5262 	subs.w	r2, r3, r2, asr #21
200067ec:	d912      	bls.n	20006814 <__aeabi_d2iz+0x3c>
200067ee:	ea4f 23c1 	mov.w	r3, r1, lsl #11
200067f2:	f043 4300 	orr.w	r3, r3, #2147483648	; 0x80000000
200067f6:	ea43 5350 	orr.w	r3, r3, r0, lsr #21
200067fa:	f011 4f00 	tst.w	r1, #2147483648	; 0x80000000
200067fe:	fa23 f002 	lsr.w	r0, r3, r2
20006802:	bf18      	it	ne
20006804:	4240      	negne	r0, r0
20006806:	4770      	bx	lr
20006808:	f04f 0000 	mov.w	r0, #0
2000680c:	4770      	bx	lr
2000680e:	ea50 3001 	orrs.w	r0, r0, r1, lsl #12
20006812:	d105      	bne.n	20006820 <__aeabi_d2iz+0x48>
20006814:	f011 4000 	ands.w	r0, r1, #2147483648	; 0x80000000
20006818:	bf08      	it	eq
2000681a:	f06f 4000 	mvneq.w	r0, #2147483648	; 0x80000000
2000681e:	4770      	bx	lr
20006820:	f04f 0000 	mov.w	r0, #0
20006824:	4770      	bx	lr
20006826:	bf00      	nop

20006828 <__aeabi_uldivmod>:
20006828:	b94b      	cbnz	r3, 2000683e <__aeabi_uldivmod+0x16>
2000682a:	b942      	cbnz	r2, 2000683e <__aeabi_uldivmod+0x16>
2000682c:	2900      	cmp	r1, #0
2000682e:	bf08      	it	eq
20006830:	2800      	cmpeq	r0, #0
20006832:	d002      	beq.n	2000683a <__aeabi_uldivmod+0x12>
20006834:	f04f 31ff 	mov.w	r1, #4294967295
20006838:	4608      	mov	r0, r1
2000683a:	f7ff bb79 	b.w	20005f30 <__aeabi_idiv0>
2000683e:	b082      	sub	sp, #8
20006840:	46ec      	mov	ip, sp
20006842:	e92d 5000 	stmdb	sp!, {ip, lr}
20006846:	f000 f805 	bl	20006854 <__gnu_uldivmod_helper>
2000684a:	f8dd e004 	ldr.w	lr, [sp, #4]
2000684e:	b002      	add	sp, #8
20006850:	bc0c      	pop	{r2, r3}
20006852:	4770      	bx	lr

20006854 <__gnu_uldivmod_helper>:
20006854:	b5f8      	push	{r3, r4, r5, r6, r7, lr}
20006856:	4614      	mov	r4, r2
20006858:	461d      	mov	r5, r3
2000685a:	4606      	mov	r6, r0
2000685c:	460f      	mov	r7, r1
2000685e:	f000 f9d7 	bl	20006c10 <__udivdi3>
20006862:	fb00 f505 	mul.w	r5, r0, r5
20006866:	fba0 2304 	umull	r2, r3, r0, r4
2000686a:	fb04 5401 	mla	r4, r4, r1, r5
2000686e:	18e3      	adds	r3, r4, r3
20006870:	1ab6      	subs	r6, r6, r2
20006872:	eb67 0703 	sbc.w	r7, r7, r3
20006876:	9b06      	ldr	r3, [sp, #24]
20006878:	e9c3 6700 	strd	r6, r7, [r3]
2000687c:	bdf8      	pop	{r3, r4, r5, r6, r7, pc}
2000687e:	bf00      	nop

20006880 <__gnu_ldivmod_helper>:
20006880:	b5f8      	push	{r3, r4, r5, r6, r7, lr}
20006882:	4614      	mov	r4, r2
20006884:	461d      	mov	r5, r3
20006886:	4606      	mov	r6, r0
20006888:	460f      	mov	r7, r1
2000688a:	f000 f80f 	bl	200068ac <__divdi3>
2000688e:	fb00 f505 	mul.w	r5, r0, r5
20006892:	fba0 2304 	umull	r2, r3, r0, r4
20006896:	fb04 5401 	mla	r4, r4, r1, r5
2000689a:	18e3      	adds	r3, r4, r3
2000689c:	1ab6      	subs	r6, r6, r2
2000689e:	eb67 0703 	sbc.w	r7, r7, r3
200068a2:	9b06      	ldr	r3, [sp, #24]
200068a4:	e9c3 6700 	strd	r6, r7, [r3]
200068a8:	bdf8      	pop	{r3, r4, r5, r6, r7, pc}
200068aa:	bf00      	nop

200068ac <__divdi3>:
200068ac:	2900      	cmp	r1, #0
200068ae:	e92d 4ff0 	stmdb	sp!, {r4, r5, r6, r7, r8, r9, sl, fp, lr}
200068b2:	b085      	sub	sp, #20
200068b4:	f2c0 80c8 	blt.w	20006a48 <__divdi3+0x19c>
200068b8:	2600      	movs	r6, #0
200068ba:	2b00      	cmp	r3, #0
200068bc:	f2c0 80bf 	blt.w	20006a3e <__divdi3+0x192>
200068c0:	4689      	mov	r9, r1
200068c2:	4614      	mov	r4, r2
200068c4:	4605      	mov	r5, r0
200068c6:	469b      	mov	fp, r3
200068c8:	2b00      	cmp	r3, #0
200068ca:	d14a      	bne.n	20006962 <__divdi3+0xb6>
200068cc:	428a      	cmp	r2, r1
200068ce:	d957      	bls.n	20006980 <__divdi3+0xd4>
200068d0:	fab2 f382 	clz	r3, r2
200068d4:	b153      	cbz	r3, 200068ec <__divdi3+0x40>
200068d6:	f1c3 0020 	rsb	r0, r3, #32
200068da:	fa01 f903 	lsl.w	r9, r1, r3
200068de:	fa25 f800 	lsr.w	r8, r5, r0
200068e2:	fa12 f403 	lsls.w	r4, r2, r3
200068e6:	409d      	lsls	r5, r3
200068e8:	ea48 0909 	orr.w	r9, r8, r9
200068ec:	0c27      	lsrs	r7, r4, #16
200068ee:	4648      	mov	r0, r9
200068f0:	4639      	mov	r1, r7
200068f2:	fa1f fb84 	uxth.w	fp, r4
200068f6:	f7ff f9df 	bl	20005cb8 <__aeabi_uidiv>
200068fa:	4639      	mov	r1, r7
200068fc:	4682      	mov	sl, r0
200068fe:	4648      	mov	r0, r9
20006900:	f7ff fb08 	bl	20005f14 <__aeabi_uidivmod>
20006904:	0c2a      	lsrs	r2, r5, #16
20006906:	fb0b f30a 	mul.w	r3, fp, sl
2000690a:	ea42 4901 	orr.w	r9, r2, r1, lsl #16
2000690e:	454b      	cmp	r3, r9
20006910:	d909      	bls.n	20006926 <__divdi3+0x7a>
20006912:	eb19 0904 	adds.w	r9, r9, r4
20006916:	f10a 3aff 	add.w	sl, sl, #4294967295
2000691a:	d204      	bcs.n	20006926 <__divdi3+0x7a>
2000691c:	454b      	cmp	r3, r9
2000691e:	bf84      	itt	hi
20006920:	f10a 3aff 	addhi.w	sl, sl, #4294967295
20006924:	44a1      	addhi	r9, r4
20006926:	ebc3 0909 	rsb	r9, r3, r9
2000692a:	4639      	mov	r1, r7
2000692c:	4648      	mov	r0, r9
2000692e:	b2ad      	uxth	r5, r5
20006930:	f7ff f9c2 	bl	20005cb8 <__aeabi_uidiv>
20006934:	4639      	mov	r1, r7
20006936:	4680      	mov	r8, r0
20006938:	4648      	mov	r0, r9
2000693a:	f7ff faeb 	bl	20005f14 <__aeabi_uidivmod>
2000693e:	fb0b fb08 	mul.w	fp, fp, r8
20006942:	ea45 4501 	orr.w	r5, r5, r1, lsl #16
20006946:	45ab      	cmp	fp, r5
20006948:	d907      	bls.n	2000695a <__divdi3+0xae>
2000694a:	192d      	adds	r5, r5, r4
2000694c:	f108 38ff 	add.w	r8, r8, #4294967295
20006950:	d203      	bcs.n	2000695a <__divdi3+0xae>
20006952:	45ab      	cmp	fp, r5
20006954:	bf88      	it	hi
20006956:	f108 38ff 	addhi.w	r8, r8, #4294967295
2000695a:	ea48 480a 	orr.w	r8, r8, sl, lsl #16
2000695e:	2700      	movs	r7, #0
20006960:	e003      	b.n	2000696a <__divdi3+0xbe>
20006962:	428b      	cmp	r3, r1
20006964:	d957      	bls.n	20006a16 <__divdi3+0x16a>
20006966:	2700      	movs	r7, #0
20006968:	46b8      	mov	r8, r7
2000696a:	4642      	mov	r2, r8
2000696c:	463b      	mov	r3, r7
2000696e:	b116      	cbz	r6, 20006976 <__divdi3+0xca>
20006970:	4252      	negs	r2, r2
20006972:	eb63 0343 	sbc.w	r3, r3, r3, lsl #1
20006976:	4619      	mov	r1, r3
20006978:	4610      	mov	r0, r2
2000697a:	b005      	add	sp, #20
2000697c:	e8bd 8ff0 	ldmia.w	sp!, {r4, r5, r6, r7, r8, r9, sl, fp, pc}
20006980:	b922      	cbnz	r2, 2000698c <__divdi3+0xe0>
20006982:	4611      	mov	r1, r2
20006984:	2001      	movs	r0, #1
20006986:	f7ff f997 	bl	20005cb8 <__aeabi_uidiv>
2000698a:	4604      	mov	r4, r0
2000698c:	fab4 f884 	clz	r8, r4
20006990:	f1b8 0f00 	cmp.w	r8, #0
20006994:	d15e      	bne.n	20006a54 <__divdi3+0x1a8>
20006996:	ebc4 0809 	rsb	r8, r4, r9
2000699a:	0c27      	lsrs	r7, r4, #16
2000699c:	fa1f f984 	uxth.w	r9, r4
200069a0:	2101      	movs	r1, #1
200069a2:	9102      	str	r1, [sp, #8]
200069a4:	4639      	mov	r1, r7
200069a6:	4640      	mov	r0, r8
200069a8:	f7ff f986 	bl	20005cb8 <__aeabi_uidiv>
200069ac:	4639      	mov	r1, r7
200069ae:	4682      	mov	sl, r0
200069b0:	4640      	mov	r0, r8
200069b2:	f7ff faaf 	bl	20005f14 <__aeabi_uidivmod>
200069b6:	ea4f 4815 	mov.w	r8, r5, lsr #16
200069ba:	fb09 f30a 	mul.w	r3, r9, sl
200069be:	ea48 4b01 	orr.w	fp, r8, r1, lsl #16
200069c2:	455b      	cmp	r3, fp
200069c4:	d909      	bls.n	200069da <__divdi3+0x12e>
200069c6:	eb1b 0b04 	adds.w	fp, fp, r4
200069ca:	f10a 3aff 	add.w	sl, sl, #4294967295
200069ce:	d204      	bcs.n	200069da <__divdi3+0x12e>
200069d0:	455b      	cmp	r3, fp
200069d2:	bf84      	itt	hi
200069d4:	f10a 3aff 	addhi.w	sl, sl, #4294967295
200069d8:	44a3      	addhi	fp, r4
200069da:	ebc3 0b0b 	rsb	fp, r3, fp
200069de:	4639      	mov	r1, r7
200069e0:	4658      	mov	r0, fp
200069e2:	b2ad      	uxth	r5, r5
200069e4:	f7ff f968 	bl	20005cb8 <__aeabi_uidiv>
200069e8:	4639      	mov	r1, r7
200069ea:	4680      	mov	r8, r0
200069ec:	4658      	mov	r0, fp
200069ee:	f7ff fa91 	bl	20005f14 <__aeabi_uidivmod>
200069f2:	fb09 f908 	mul.w	r9, r9, r8
200069f6:	ea45 4501 	orr.w	r5, r5, r1, lsl #16
200069fa:	45a9      	cmp	r9, r5
200069fc:	d907      	bls.n	20006a0e <__divdi3+0x162>
200069fe:	192d      	adds	r5, r5, r4
20006a00:	f108 38ff 	add.w	r8, r8, #4294967295
20006a04:	d203      	bcs.n	20006a0e <__divdi3+0x162>
20006a06:	45a9      	cmp	r9, r5
20006a08:	bf88      	it	hi
20006a0a:	f108 38ff 	addhi.w	r8, r8, #4294967295
20006a0e:	ea48 480a 	orr.w	r8, r8, sl, lsl #16
20006a12:	9f02      	ldr	r7, [sp, #8]
20006a14:	e7a9      	b.n	2000696a <__divdi3+0xbe>
20006a16:	fab3 f783 	clz	r7, r3
20006a1a:	2f00      	cmp	r7, #0
20006a1c:	d168      	bne.n	20006af0 <__divdi3+0x244>
20006a1e:	428b      	cmp	r3, r1
20006a20:	bf2c      	ite	cs
20006a22:	f04f 0900 	movcs.w	r9, #0
20006a26:	f04f 0901 	movcc.w	r9, #1
20006a2a:	4282      	cmp	r2, r0
20006a2c:	bf8c      	ite	hi
20006a2e:	464c      	movhi	r4, r9
20006a30:	f049 0401 	orrls.w	r4, r9, #1
20006a34:	2c00      	cmp	r4, #0
20006a36:	d096      	beq.n	20006966 <__divdi3+0xba>
20006a38:	f04f 0801 	mov.w	r8, #1
20006a3c:	e795      	b.n	2000696a <__divdi3+0xbe>
20006a3e:	4252      	negs	r2, r2
20006a40:	eb63 0343 	sbc.w	r3, r3, r3, lsl #1
20006a44:	43f6      	mvns	r6, r6
20006a46:	e73b      	b.n	200068c0 <__divdi3+0x14>
20006a48:	4240      	negs	r0, r0
20006a4a:	eb61 0141 	sbc.w	r1, r1, r1, lsl #1
20006a4e:	f04f 36ff 	mov.w	r6, #4294967295
20006a52:	e732      	b.n	200068ba <__divdi3+0xe>
20006a54:	fa04 f408 	lsl.w	r4, r4, r8
20006a58:	f1c8 0720 	rsb	r7, r8, #32
20006a5c:	fa35 f307 	lsrs.w	r3, r5, r7
20006a60:	fa29 fa07 	lsr.w	sl, r9, r7
20006a64:	0c27      	lsrs	r7, r4, #16
20006a66:	fa09 fb08 	lsl.w	fp, r9, r8
20006a6a:	4639      	mov	r1, r7
20006a6c:	4650      	mov	r0, sl
20006a6e:	ea43 020b 	orr.w	r2, r3, fp
20006a72:	9202      	str	r2, [sp, #8]
20006a74:	f7ff f920 	bl	20005cb8 <__aeabi_uidiv>
20006a78:	4639      	mov	r1, r7
20006a7a:	fa1f f984 	uxth.w	r9, r4
20006a7e:	4683      	mov	fp, r0
20006a80:	4650      	mov	r0, sl
20006a82:	f7ff fa47 	bl	20005f14 <__aeabi_uidivmod>
20006a86:	9802      	ldr	r0, [sp, #8]
20006a88:	fb09 f20b 	mul.w	r2, r9, fp
20006a8c:	0c03      	lsrs	r3, r0, #16
20006a8e:	ea43 4301 	orr.w	r3, r3, r1, lsl #16
20006a92:	429a      	cmp	r2, r3
20006a94:	d904      	bls.n	20006aa0 <__divdi3+0x1f4>
20006a96:	191b      	adds	r3, r3, r4
20006a98:	f10b 3bff 	add.w	fp, fp, #4294967295
20006a9c:	f0c0 80b1 	bcc.w	20006c02 <__divdi3+0x356>
20006aa0:	1a9b      	subs	r3, r3, r2
20006aa2:	4639      	mov	r1, r7
20006aa4:	4618      	mov	r0, r3
20006aa6:	9301      	str	r3, [sp, #4]
20006aa8:	f7ff f906 	bl	20005cb8 <__aeabi_uidiv>
20006aac:	9901      	ldr	r1, [sp, #4]
20006aae:	4682      	mov	sl, r0
20006ab0:	4608      	mov	r0, r1
20006ab2:	4639      	mov	r1, r7
20006ab4:	f7ff fa2e 	bl	20005f14 <__aeabi_uidivmod>
20006ab8:	f8dd c008 	ldr.w	ip, [sp, #8]
20006abc:	fb09 f30a 	mul.w	r3, r9, sl
20006ac0:	fa1f f08c 	uxth.w	r0, ip
20006ac4:	ea40 4201 	orr.w	r2, r0, r1, lsl #16
20006ac8:	4293      	cmp	r3, r2
20006aca:	d908      	bls.n	20006ade <__divdi3+0x232>
20006acc:	1912      	adds	r2, r2, r4
20006ace:	f10a 3aff 	add.w	sl, sl, #4294967295
20006ad2:	d204      	bcs.n	20006ade <__divdi3+0x232>
20006ad4:	4293      	cmp	r3, r2
20006ad6:	bf84      	itt	hi
20006ad8:	f10a 3aff 	addhi.w	sl, sl, #4294967295
20006adc:	1912      	addhi	r2, r2, r4
20006ade:	fa05 f508 	lsl.w	r5, r5, r8
20006ae2:	ea4a 4e0b 	orr.w	lr, sl, fp, lsl #16
20006ae6:	ebc3 0802 	rsb	r8, r3, r2
20006aea:	f8cd e008 	str.w	lr, [sp, #8]
20006aee:	e759      	b.n	200069a4 <__divdi3+0xf8>
20006af0:	f1c7 0020 	rsb	r0, r7, #32
20006af4:	fa03 fa07 	lsl.w	sl, r3, r7
20006af8:	40c2      	lsrs	r2, r0
20006afa:	fa35 f300 	lsrs.w	r3, r5, r0
20006afe:	ea42 0b0a 	orr.w	fp, r2, sl
20006b02:	fa21 f800 	lsr.w	r8, r1, r0
20006b06:	fa01 f907 	lsl.w	r9, r1, r7
20006b0a:	4640      	mov	r0, r8
20006b0c:	ea4f 4a1b 	mov.w	sl, fp, lsr #16
20006b10:	ea43 0109 	orr.w	r1, r3, r9
20006b14:	9102      	str	r1, [sp, #8]
20006b16:	4651      	mov	r1, sl
20006b18:	fa1f f28b 	uxth.w	r2, fp
20006b1c:	9203      	str	r2, [sp, #12]
20006b1e:	f7ff f8cb 	bl	20005cb8 <__aeabi_uidiv>
20006b22:	4651      	mov	r1, sl
20006b24:	4681      	mov	r9, r0
20006b26:	4640      	mov	r0, r8
20006b28:	f7ff f9f4 	bl	20005f14 <__aeabi_uidivmod>
20006b2c:	9b03      	ldr	r3, [sp, #12]
20006b2e:	f8dd c008 	ldr.w	ip, [sp, #8]
20006b32:	fb03 f209 	mul.w	r2, r3, r9
20006b36:	ea4f 401c 	mov.w	r0, ip, lsr #16
20006b3a:	fa14 f307 	lsls.w	r3, r4, r7
20006b3e:	ea40 4401 	orr.w	r4, r0, r1, lsl #16
20006b42:	42a2      	cmp	r2, r4
20006b44:	d904      	bls.n	20006b50 <__divdi3+0x2a4>
20006b46:	eb14 040b 	adds.w	r4, r4, fp
20006b4a:	f109 39ff 	add.w	r9, r9, #4294967295
20006b4e:	d352      	bcc.n	20006bf6 <__divdi3+0x34a>
20006b50:	1aa4      	subs	r4, r4, r2
20006b52:	4651      	mov	r1, sl
20006b54:	4620      	mov	r0, r4
20006b56:	9301      	str	r3, [sp, #4]
20006b58:	f7ff f8ae 	bl	20005cb8 <__aeabi_uidiv>
20006b5c:	4651      	mov	r1, sl
20006b5e:	4680      	mov	r8, r0
20006b60:	4620      	mov	r0, r4
20006b62:	f7ff f9d7 	bl	20005f14 <__aeabi_uidivmod>
20006b66:	9803      	ldr	r0, [sp, #12]
20006b68:	f8dd c008 	ldr.w	ip, [sp, #8]
20006b6c:	fb00 f208 	mul.w	r2, r0, r8
20006b70:	fa1f f38c 	uxth.w	r3, ip
20006b74:	ea43 4001 	orr.w	r0, r3, r1, lsl #16
20006b78:	9b01      	ldr	r3, [sp, #4]
20006b7a:	4282      	cmp	r2, r0
20006b7c:	d904      	bls.n	20006b88 <__divdi3+0x2dc>
20006b7e:	eb10 000b 	adds.w	r0, r0, fp
20006b82:	f108 38ff 	add.w	r8, r8, #4294967295
20006b86:	d330      	bcc.n	20006bea <__divdi3+0x33e>
20006b88:	ea48 4809 	orr.w	r8, r8, r9, lsl #16
20006b8c:	fa1f fc83 	uxth.w	ip, r3
20006b90:	0c1b      	lsrs	r3, r3, #16
20006b92:	1a80      	subs	r0, r0, r2
20006b94:	fa1f fe88 	uxth.w	lr, r8
20006b98:	ea4f 4a18 	mov.w	sl, r8, lsr #16
20006b9c:	fb0c f90e 	mul.w	r9, ip, lr
20006ba0:	fb0c fc0a 	mul.w	ip, ip, sl
20006ba4:	fb03 c10e 	mla	r1, r3, lr, ip
20006ba8:	fb03 f20a 	mul.w	r2, r3, sl
20006bac:	eb01 4119 	add.w	r1, r1, r9, lsr #16
20006bb0:	458c      	cmp	ip, r1
20006bb2:	bf88      	it	hi
20006bb4:	f502 3280 	addhi.w	r2, r2, #65536	; 0x10000
20006bb8:	eb02 4e11 	add.w	lr, r2, r1, lsr #16
20006bbc:	4570      	cmp	r0, lr
20006bbe:	d310      	bcc.n	20006be2 <__divdi3+0x336>
20006bc0:	fa1f f989 	uxth.w	r9, r9
20006bc4:	fa05 f707 	lsl.w	r7, r5, r7
20006bc8:	eb09 4001 	add.w	r0, r9, r1, lsl #16
20006bcc:	bf14      	ite	ne
20006bce:	2200      	movne	r2, #0
20006bd0:	2201      	moveq	r2, #1
20006bd2:	4287      	cmp	r7, r0
20006bd4:	bf2c      	ite	cs
20006bd6:	2700      	movcs	r7, #0
20006bd8:	f002 0701 	andcc.w	r7, r2, #1
20006bdc:	2f00      	cmp	r7, #0
20006bde:	f43f aec4 	beq.w	2000696a <__divdi3+0xbe>
20006be2:	f108 38ff 	add.w	r8, r8, #4294967295
20006be6:	2700      	movs	r7, #0
20006be8:	e6bf      	b.n	2000696a <__divdi3+0xbe>
20006bea:	4282      	cmp	r2, r0
20006bec:	bf84      	itt	hi
20006bee:	4458      	addhi	r0, fp
20006bf0:	f108 38ff 	addhi.w	r8, r8, #4294967295
20006bf4:	e7c8      	b.n	20006b88 <__divdi3+0x2dc>
20006bf6:	42a2      	cmp	r2, r4
20006bf8:	bf84      	itt	hi
20006bfa:	f109 39ff 	addhi.w	r9, r9, #4294967295
20006bfe:	445c      	addhi	r4, fp
20006c00:	e7a6      	b.n	20006b50 <__divdi3+0x2a4>
20006c02:	429a      	cmp	r2, r3
20006c04:	bf84      	itt	hi
20006c06:	f10b 3bff 	addhi.w	fp, fp, #4294967295
20006c0a:	191b      	addhi	r3, r3, r4
20006c0c:	e748      	b.n	20006aa0 <__divdi3+0x1f4>
20006c0e:	bf00      	nop

20006c10 <__udivdi3>:
20006c10:	e92d 4ff0 	stmdb	sp!, {r4, r5, r6, r7, r8, r9, sl, fp, lr}
20006c14:	460c      	mov	r4, r1
20006c16:	b083      	sub	sp, #12
20006c18:	4680      	mov	r8, r0
20006c1a:	4616      	mov	r6, r2
20006c1c:	4689      	mov	r9, r1
20006c1e:	461f      	mov	r7, r3
20006c20:	4615      	mov	r5, r2
20006c22:	468a      	mov	sl, r1
20006c24:	2b00      	cmp	r3, #0
20006c26:	d14b      	bne.n	20006cc0 <__udivdi3+0xb0>
20006c28:	428a      	cmp	r2, r1
20006c2a:	d95c      	bls.n	20006ce6 <__udivdi3+0xd6>
20006c2c:	fab2 f382 	clz	r3, r2
20006c30:	b15b      	cbz	r3, 20006c4a <__udivdi3+0x3a>
20006c32:	f1c3 0020 	rsb	r0, r3, #32
20006c36:	fa01 fa03 	lsl.w	sl, r1, r3
20006c3a:	fa28 f200 	lsr.w	r2, r8, r0
20006c3e:	fa16 f503 	lsls.w	r5, r6, r3
20006c42:	fa08 f803 	lsl.w	r8, r8, r3
20006c46:	ea42 0a0a 	orr.w	sl, r2, sl
20006c4a:	0c2e      	lsrs	r6, r5, #16
20006c4c:	4650      	mov	r0, sl
20006c4e:	4631      	mov	r1, r6
20006c50:	b2af      	uxth	r7, r5
20006c52:	f7ff f831 	bl	20005cb8 <__aeabi_uidiv>
20006c56:	4631      	mov	r1, r6
20006c58:	ea4f 4418 	mov.w	r4, r8, lsr #16
20006c5c:	4681      	mov	r9, r0
20006c5e:	4650      	mov	r0, sl
20006c60:	f7ff f958 	bl	20005f14 <__aeabi_uidivmod>
20006c64:	fb07 f309 	mul.w	r3, r7, r9
20006c68:	ea44 4a01 	orr.w	sl, r4, r1, lsl #16
20006c6c:	4553      	cmp	r3, sl
20006c6e:	d909      	bls.n	20006c84 <__udivdi3+0x74>
20006c70:	eb1a 0a05 	adds.w	sl, sl, r5
20006c74:	f109 39ff 	add.w	r9, r9, #4294967295
20006c78:	d204      	bcs.n	20006c84 <__udivdi3+0x74>
20006c7a:	4553      	cmp	r3, sl
20006c7c:	bf84      	itt	hi
20006c7e:	f109 39ff 	addhi.w	r9, r9, #4294967295
20006c82:	44aa      	addhi	sl, r5
20006c84:	ebc3 0a0a 	rsb	sl, r3, sl
20006c88:	4631      	mov	r1, r6
20006c8a:	4650      	mov	r0, sl
20006c8c:	fa1f f888 	uxth.w	r8, r8
20006c90:	f7ff f812 	bl	20005cb8 <__aeabi_uidiv>
20006c94:	4631      	mov	r1, r6
20006c96:	4604      	mov	r4, r0
20006c98:	4650      	mov	r0, sl
20006c9a:	f7ff f93b 	bl	20005f14 <__aeabi_uidivmod>
20006c9e:	fb07 f704 	mul.w	r7, r7, r4
20006ca2:	ea48 4801 	orr.w	r8, r8, r1, lsl #16
20006ca6:	4547      	cmp	r7, r8
20006ca8:	d906      	bls.n	20006cb8 <__udivdi3+0xa8>
20006caa:	3c01      	subs	r4, #1
20006cac:	eb18 0805 	adds.w	r8, r8, r5
20006cb0:	d202      	bcs.n	20006cb8 <__udivdi3+0xa8>
20006cb2:	4547      	cmp	r7, r8
20006cb4:	bf88      	it	hi
20006cb6:	3c01      	subhi	r4, #1
20006cb8:	ea44 4409 	orr.w	r4, r4, r9, lsl #16
20006cbc:	2600      	movs	r6, #0
20006cbe:	e05c      	b.n	20006d7a <__udivdi3+0x16a>
20006cc0:	428b      	cmp	r3, r1
20006cc2:	d858      	bhi.n	20006d76 <__udivdi3+0x166>
20006cc4:	fab3 f683 	clz	r6, r3
20006cc8:	2e00      	cmp	r6, #0
20006cca:	d15b      	bne.n	20006d84 <__udivdi3+0x174>
20006ccc:	428b      	cmp	r3, r1
20006cce:	bf2c      	ite	cs
20006cd0:	2200      	movcs	r2, #0
20006cd2:	2201      	movcc	r2, #1
20006cd4:	4285      	cmp	r5, r0
20006cd6:	bf8c      	ite	hi
20006cd8:	4615      	movhi	r5, r2
20006cda:	f042 0501 	orrls.w	r5, r2, #1
20006cde:	2d00      	cmp	r5, #0
20006ce0:	d049      	beq.n	20006d76 <__udivdi3+0x166>
20006ce2:	2401      	movs	r4, #1
20006ce4:	e049      	b.n	20006d7a <__udivdi3+0x16a>
20006ce6:	b922      	cbnz	r2, 20006cf2 <__udivdi3+0xe2>
20006ce8:	4611      	mov	r1, r2
20006cea:	2001      	movs	r0, #1
20006cec:	f7fe ffe4 	bl	20005cb8 <__aeabi_uidiv>
20006cf0:	4605      	mov	r5, r0
20006cf2:	fab5 f685 	clz	r6, r5
20006cf6:	2e00      	cmp	r6, #0
20006cf8:	f040 80ba 	bne.w	20006e70 <__udivdi3+0x260>
20006cfc:	1b64      	subs	r4, r4, r5
20006cfe:	0c2f      	lsrs	r7, r5, #16
20006d00:	fa1f fa85 	uxth.w	sl, r5
20006d04:	2601      	movs	r6, #1
20006d06:	4639      	mov	r1, r7
20006d08:	4620      	mov	r0, r4
20006d0a:	f7fe ffd5 	bl	20005cb8 <__aeabi_uidiv>
20006d0e:	4639      	mov	r1, r7
20006d10:	ea4f 4b18 	mov.w	fp, r8, lsr #16
20006d14:	4681      	mov	r9, r0
20006d16:	4620      	mov	r0, r4
20006d18:	f7ff f8fc 	bl	20005f14 <__aeabi_uidivmod>
20006d1c:	fb0a f309 	mul.w	r3, sl, r9
20006d20:	ea4b 4b01 	orr.w	fp, fp, r1, lsl #16
20006d24:	455b      	cmp	r3, fp
20006d26:	d909      	bls.n	20006d3c <__udivdi3+0x12c>
20006d28:	eb1b 0b05 	adds.w	fp, fp, r5
20006d2c:	f109 39ff 	add.w	r9, r9, #4294967295
20006d30:	d204      	bcs.n	20006d3c <__udivdi3+0x12c>
20006d32:	455b      	cmp	r3, fp
20006d34:	bf84      	itt	hi
20006d36:	f109 39ff 	addhi.w	r9, r9, #4294967295
20006d3a:	44ab      	addhi	fp, r5
20006d3c:	ebc3 0b0b 	rsb	fp, r3, fp
20006d40:	4639      	mov	r1, r7
20006d42:	4658      	mov	r0, fp
20006d44:	fa1f f888 	uxth.w	r8, r8
20006d48:	f7fe ffb6 	bl	20005cb8 <__aeabi_uidiv>
20006d4c:	4639      	mov	r1, r7
20006d4e:	4604      	mov	r4, r0
20006d50:	4658      	mov	r0, fp
20006d52:	f7ff f8df 	bl	20005f14 <__aeabi_uidivmod>
20006d56:	fb0a fa04 	mul.w	sl, sl, r4
20006d5a:	ea48 4801 	orr.w	r8, r8, r1, lsl #16
20006d5e:	45c2      	cmp	sl, r8
20006d60:	d906      	bls.n	20006d70 <__udivdi3+0x160>
20006d62:	3c01      	subs	r4, #1
20006d64:	eb18 0805 	adds.w	r8, r8, r5
20006d68:	d202      	bcs.n	20006d70 <__udivdi3+0x160>
20006d6a:	45c2      	cmp	sl, r8
20006d6c:	bf88      	it	hi
20006d6e:	3c01      	subhi	r4, #1
20006d70:	ea44 4409 	orr.w	r4, r4, r9, lsl #16
20006d74:	e001      	b.n	20006d7a <__udivdi3+0x16a>
20006d76:	2600      	movs	r6, #0
20006d78:	4634      	mov	r4, r6
20006d7a:	4631      	mov	r1, r6
20006d7c:	4620      	mov	r0, r4
20006d7e:	b003      	add	sp, #12
20006d80:	e8bd 8ff0 	ldmia.w	sp!, {r4, r5, r6, r7, r8, r9, sl, fp, pc}
20006d84:	f1c6 0020 	rsb	r0, r6, #32
20006d88:	40b3      	lsls	r3, r6
20006d8a:	fa32 f700 	lsrs.w	r7, r2, r0
20006d8e:	fa21 fb00 	lsr.w	fp, r1, r0
20006d92:	431f      	orrs	r7, r3
20006d94:	fa14 f206 	lsls.w	r2, r4, r6
20006d98:	fa28 f100 	lsr.w	r1, r8, r0
20006d9c:	4658      	mov	r0, fp
20006d9e:	ea4f 4a17 	mov.w	sl, r7, lsr #16
20006da2:	4311      	orrs	r1, r2
20006da4:	9100      	str	r1, [sp, #0]
20006da6:	4651      	mov	r1, sl
20006da8:	b2bb      	uxth	r3, r7
20006daa:	9301      	str	r3, [sp, #4]
20006dac:	f7fe ff84 	bl	20005cb8 <__aeabi_uidiv>
20006db0:	4651      	mov	r1, sl
20006db2:	40b5      	lsls	r5, r6
20006db4:	4681      	mov	r9, r0
20006db6:	4658      	mov	r0, fp
20006db8:	f7ff f8ac 	bl	20005f14 <__aeabi_uidivmod>
20006dbc:	9c01      	ldr	r4, [sp, #4]
20006dbe:	9800      	ldr	r0, [sp, #0]
20006dc0:	fb04 f309 	mul.w	r3, r4, r9
20006dc4:	ea4f 4c10 	mov.w	ip, r0, lsr #16
20006dc8:	ea4c 4b01 	orr.w	fp, ip, r1, lsl #16
20006dcc:	455b      	cmp	r3, fp
20006dce:	d905      	bls.n	20006ddc <__udivdi3+0x1cc>
20006dd0:	eb1b 0b07 	adds.w	fp, fp, r7
20006dd4:	f109 39ff 	add.w	r9, r9, #4294967295
20006dd8:	f0c0 808e 	bcc.w	20006ef8 <__udivdi3+0x2e8>
20006ddc:	ebc3 0b0b 	rsb	fp, r3, fp
20006de0:	4651      	mov	r1, sl
20006de2:	4658      	mov	r0, fp
20006de4:	f7fe ff68 	bl	20005cb8 <__aeabi_uidiv>
20006de8:	4651      	mov	r1, sl
20006dea:	4604      	mov	r4, r0
20006dec:	4658      	mov	r0, fp
20006dee:	f7ff f891 	bl	20005f14 <__aeabi_uidivmod>
20006df2:	9801      	ldr	r0, [sp, #4]
20006df4:	9a00      	ldr	r2, [sp, #0]
20006df6:	fb00 f304 	mul.w	r3, r0, r4
20006dfa:	fa1f fc82 	uxth.w	ip, r2
20006dfe:	ea4c 4201 	orr.w	r2, ip, r1, lsl #16
20006e02:	4293      	cmp	r3, r2
20006e04:	d906      	bls.n	20006e14 <__udivdi3+0x204>
20006e06:	3c01      	subs	r4, #1
20006e08:	19d2      	adds	r2, r2, r7
20006e0a:	d203      	bcs.n	20006e14 <__udivdi3+0x204>
20006e0c:	4293      	cmp	r3, r2
20006e0e:	d901      	bls.n	20006e14 <__udivdi3+0x204>
20006e10:	19d2      	adds	r2, r2, r7
20006e12:	3c01      	subs	r4, #1
20006e14:	ea44 4409 	orr.w	r4, r4, r9, lsl #16
20006e18:	b2a8      	uxth	r0, r5
20006e1a:	1ad2      	subs	r2, r2, r3
20006e1c:	0c2d      	lsrs	r5, r5, #16
20006e1e:	fa1f fc84 	uxth.w	ip, r4
20006e22:	0c23      	lsrs	r3, r4, #16
20006e24:	fb00 f70c 	mul.w	r7, r0, ip
20006e28:	fb00 fe03 	mul.w	lr, r0, r3
20006e2c:	fb05 e10c 	mla	r1, r5, ip, lr
20006e30:	fb05 f503 	mul.w	r5, r5, r3
20006e34:	eb01 4117 	add.w	r1, r1, r7, lsr #16
20006e38:	458e      	cmp	lr, r1
20006e3a:	bf88      	it	hi
20006e3c:	f505 3580 	addhi.w	r5, r5, #65536	; 0x10000
20006e40:	eb05 4511 	add.w	r5, r5, r1, lsr #16
20006e44:	42aa      	cmp	r2, r5
20006e46:	d310      	bcc.n	20006e6a <__udivdi3+0x25a>
20006e48:	b2bf      	uxth	r7, r7
20006e4a:	fa08 f606 	lsl.w	r6, r8, r6
20006e4e:	eb07 4201 	add.w	r2, r7, r1, lsl #16
20006e52:	bf14      	ite	ne
20006e54:	f04f 0e00 	movne.w	lr, #0
20006e58:	f04f 0e01 	moveq.w	lr, #1
20006e5c:	4296      	cmp	r6, r2
20006e5e:	bf2c      	ite	cs
20006e60:	2600      	movcs	r6, #0
20006e62:	f00e 0601 	andcc.w	r6, lr, #1
20006e66:	2e00      	cmp	r6, #0
20006e68:	d087      	beq.n	20006d7a <__udivdi3+0x16a>
20006e6a:	3c01      	subs	r4, #1
20006e6c:	2600      	movs	r6, #0
20006e6e:	e784      	b.n	20006d7a <__udivdi3+0x16a>
20006e70:	40b5      	lsls	r5, r6
20006e72:	f1c6 0120 	rsb	r1, r6, #32
20006e76:	fa24 f901 	lsr.w	r9, r4, r1
20006e7a:	fa28 f201 	lsr.w	r2, r8, r1
20006e7e:	0c2f      	lsrs	r7, r5, #16
20006e80:	40b4      	lsls	r4, r6
20006e82:	4639      	mov	r1, r7
20006e84:	4648      	mov	r0, r9
20006e86:	4322      	orrs	r2, r4
20006e88:	9200      	str	r2, [sp, #0]
20006e8a:	f7fe ff15 	bl	20005cb8 <__aeabi_uidiv>
20006e8e:	4639      	mov	r1, r7
20006e90:	fa1f fa85 	uxth.w	sl, r5
20006e94:	4683      	mov	fp, r0
20006e96:	4648      	mov	r0, r9
20006e98:	f7ff f83c 	bl	20005f14 <__aeabi_uidivmod>
20006e9c:	9b00      	ldr	r3, [sp, #0]
20006e9e:	0c1a      	lsrs	r2, r3, #16
20006ea0:	fb0a f30b 	mul.w	r3, sl, fp
20006ea4:	ea42 4401 	orr.w	r4, r2, r1, lsl #16
20006ea8:	42a3      	cmp	r3, r4
20006eaa:	d903      	bls.n	20006eb4 <__udivdi3+0x2a4>
20006eac:	1964      	adds	r4, r4, r5
20006eae:	f10b 3bff 	add.w	fp, fp, #4294967295
20006eb2:	d327      	bcc.n	20006f04 <__udivdi3+0x2f4>
20006eb4:	1ae4      	subs	r4, r4, r3
20006eb6:	4639      	mov	r1, r7
20006eb8:	4620      	mov	r0, r4
20006eba:	f7fe fefd 	bl	20005cb8 <__aeabi_uidiv>
20006ebe:	4639      	mov	r1, r7
20006ec0:	4681      	mov	r9, r0
20006ec2:	4620      	mov	r0, r4
20006ec4:	f7ff f826 	bl	20005f14 <__aeabi_uidivmod>
20006ec8:	9800      	ldr	r0, [sp, #0]
20006eca:	fb0a f309 	mul.w	r3, sl, r9
20006ece:	fa1f fc80 	uxth.w	ip, r0
20006ed2:	ea4c 4401 	orr.w	r4, ip, r1, lsl #16
20006ed6:	42a3      	cmp	r3, r4
20006ed8:	d908      	bls.n	20006eec <__udivdi3+0x2dc>
20006eda:	1964      	adds	r4, r4, r5
20006edc:	f109 39ff 	add.w	r9, r9, #4294967295
20006ee0:	d204      	bcs.n	20006eec <__udivdi3+0x2dc>
20006ee2:	42a3      	cmp	r3, r4
20006ee4:	bf84      	itt	hi
20006ee6:	f109 39ff 	addhi.w	r9, r9, #4294967295
20006eea:	1964      	addhi	r4, r4, r5
20006eec:	fa08 f806 	lsl.w	r8, r8, r6
20006ef0:	1ae4      	subs	r4, r4, r3
20006ef2:	ea49 460b 	orr.w	r6, r9, fp, lsl #16
20006ef6:	e706      	b.n	20006d06 <__udivdi3+0xf6>
20006ef8:	455b      	cmp	r3, fp
20006efa:	bf84      	itt	hi
20006efc:	f109 39ff 	addhi.w	r9, r9, #4294967295
20006f00:	44bb      	addhi	fp, r7
20006f02:	e76b      	b.n	20006ddc <__udivdi3+0x1cc>
20006f04:	42a3      	cmp	r3, r4
20006f06:	bf84      	itt	hi
20006f08:	f10b 3bff 	addhi.w	fp, fp, #4294967295
20006f0c:	1964      	addhi	r4, r4, r5
20006f0e:	e7d1      	b.n	20006eb4 <__udivdi3+0x2a4>
20006f10:	79737542 	.word	0x79737542
20006f14:	6f6f6c20 	.word	0x6f6f6c20
20006f18:	676e6970 	.word	0x676e6970
20006f1c:	6425203a 	.word	0x6425203a
20006f20:	00000d0a 	.word	0x00000d0a
20006f24:	70616548 	.word	0x70616548
20006f28:	646e6120 	.word	0x646e6120
20006f2c:	61747320 	.word	0x61747320
20006f30:	63206b63 	.word	0x63206b63
20006f34:	696c6c6f 	.word	0x696c6c6f
20006f38:	6e6f6973 	.word	0x6e6f6973
20006f3c:	0000000a 	.word	0x0000000a

20006f40 <C.16.2565>:
20006f40:	00000001 00000002 00000004 00000001     ................

20006f50 <_global_impure_ptr>:
20006f50:	200071e0 00000043                       .q. C...

20006f58 <blanks.3577>:
20006f58:	20202020 20202020 20202020 20202020                     

20006f68 <zeroes.3578>:
20006f68:	30303030 30303030 30303030 30303030     0000000000000000
20006f78:	33323130 37363534 42413938 46454443     0123456789ABCDEF
20006f88:	00000000 00464e49 00666e69 004e414e     ....INF.inf.NAN.
20006f98:	006e616e 33323130 37363534 62613938     nan.0123456789ab
20006fa8:	66656463 00000000 6c756e28 0000296c     cdef....(null)..
20006fb8:	00000030 69666e49 7974696e 00000000     0...Infinity....
20006fc8:	004e614e                                NaN.

20006fcc <__sf_fake_stdin>:
	...

20006fec <__sf_fake_stdout>:
	...

2000700c <__sf_fake_stderr>:
	...

2000702c <charset>:
2000702c:	20007064                                dp. 

20007030 <lconv>:
20007030:	20007060 20006f88 20006f88 20006f88     `p. .o. .o. .o. 
20007040:	20006f88 20006f88 20006f88 20006f88     .o. .o. .o. .o. 
20007050:	20006f88 20006f88 ffffffff ffffffff     .o. .o. ........
20007060:	0000002e 2d4f5349 39353838 0000312d     ....ISO-8859-1..

20007070 <__mprec_tens>:
20007070:	00000000 3ff00000 00000000 40240000     .......?......$@
20007080:	00000000 40590000 00000000 408f4000     ......Y@.....@.@
20007090:	00000000 40c38800 00000000 40f86a00     .......@.....j.@
200070a0:	00000000 412e8480 00000000 416312d0     .......A......cA
200070b0:	00000000 4197d784 00000000 41cdcd65     .......A....e..A
200070c0:	20000000 4202a05f e8000000 42374876     ... _..B....vH7B
200070d0:	a2000000 426d1a94 e5400000 42a2309c     ......mB..@..0.B
200070e0:	1e900000 42d6bcc4 26340000 430c6bf5     .......B..4&.k.C
200070f0:	37e08000 4341c379 85d8a000 43763457     ...7y.AC....W4vC
20007100:	674ec800 43abc16d 60913d00 43e158e4     ..Ngm..C.=.`.X.C
20007110:	78b58c40 4415af1d d6e2ef50 444b1ae4     @..x...DP.....KD
20007120:	064dd592 4480f0cf c7e14af6 44b52d02     ..M....D.J...-.D
20007130:	79d99db4 44ea7843                       ...yCx.D

20007138 <p05.2463>:
20007138:	00000005 00000019 0000007d 00000000     ........}.......

20007148 <__mprec_bigtens>:
20007148:	37e08000 4341c379 b5056e17 4693b8b5     ...7y.AC.n.....F
20007158:	e93ff9f5 4d384f03 f9301d32 5a827748     ..?..O8M2.0.Hw.Z
20007168:	7f73bf3c 75154fdd                       <.s..O.u

20007170 <__mprec_tinytens>:
20007170:	97d889bc 3c9cd2b2 d5a8a733 3949f623     .......<3...#.I9
20007180:	44f4a73d 32a50ffd cf8c979d 255bba08     =..D...2......[%
20007190:	64ac6f43 0ac80628                       Co.d(...

20007198 <_init>:
20007198:	b5f8      	push	{r3, r4, r5, r6, r7, lr}
2000719a:	bf00      	nop
2000719c:	bcf8      	pop	{r3, r4, r5, r6, r7}
2000719e:	bc08      	pop	{r3}
200071a0:	469e      	mov	lr, r3
200071a2:	4770      	bx	lr

200071a4 <_fini>:
200071a4:	b5f8      	push	{r3, r4, r5, r6, r7, lr}
200071a6:	bf00      	nop
200071a8:	bcf8      	pop	{r3, r4, r5, r6, r7}
200071aa:	bc08      	pop	{r3}
200071ac:	469e      	mov	lr, r3
200071ae:	4770      	bx	lr

200071b0 <__frame_dummy_init_array_entry>:
200071b0:	0485 2000                                   ... 

200071b4 <__do_global_dtors_aux_fini_array_entry>:
200071b4:	0471 2000                                   q.. 
